
WIFI-simpleGet-EXT1.elf:     file format elf32-littlearm

Sections:
Idx Name          Size      VMA       LMA       File off  Algn
  0 .text         0000a244  00400000  00400000  00010000  2**6
                  CONTENTS, ALLOC, LOAD, READONLY, CODE
  1 .ARM.exidx    00000008  0040a244  0040a244  0001a244  2**2
                  CONTENTS, ALLOC, LOAD, READONLY, DATA
  2 .relocate     000009e8  20400000  0040a24c  00020000  2**3
                  CONTENTS, ALLOC, LOAD, CODE
  3 .bss          0000bb68  204009e8  0040ac34  000209e8  2**2
                  ALLOC
  4 .stack        00002000  2040c550  0041679c  000209e8  2**0
                  ALLOC
  5 .heap         00000200  2040e550  0041879c  000209e8  2**0
                  ALLOC
  6 .ARM.attributes 0000002e  00000000  00000000  000209e8  2**0
                  CONTENTS, READONLY
  7 .comment      00000059  00000000  00000000  00020a16  2**0
                  CONTENTS, READONLY
  8 .debug_info   000316f0  00000000  00000000  00020a6f  2**0
                  CONTENTS, READONLY, DEBUGGING
  9 .debug_abbrev 000062be  00000000  00000000  0005215f  2**0
                  CONTENTS, READONLY, DEBUGGING
 10 .debug_loc    00013a08  00000000  00000000  0005841d  2**0
                  CONTENTS, READONLY, DEBUGGING
 11 .debug_aranges 000014c0  00000000  00000000  0006be25  2**0
                  CONTENTS, READONLY, DEBUGGING
 12 .debug_ranges 000018c0  00000000  00000000  0006d2e5  2**0
                  CONTENTS, READONLY, DEBUGGING
 13 .debug_macro  00029967  00000000  00000000  0006eba5  2**0
                  CONTENTS, READONLY, DEBUGGING
 14 .debug_line   0001a1bc  00000000  00000000  0009850c  2**0
                  CONTENTS, READONLY, DEBUGGING
 15 .debug_str    000a6522  00000000  00000000  000b26c8  2**0
                  CONTENTS, READONLY, DEBUGGING
 16 .debug_frame  000041e8  00000000  00000000  00158bec  2**2
                  CONTENTS, READONLY, DEBUGGING

Disassembly of section .text:

00400000 <exception_table>:
  400000:	50 e5 40 20 e5 21 40 00 e1 21 40 00 e1 21 40 00     P.@ .!@..!@..!@.
  400010:	e1 21 40 00 e1 21 40 00 e1 21 40 00 00 00 00 00     .!@..!@..!@.....
	...
  40002c:	21 44 40 00 e1 21 40 00 00 00 00 00 c1 44 40 00     !D@..!@......D@.
  40003c:	29 45 40 00 e1 21 40 00 e1 21 40 00 e1 21 40 00     )E@..!@..!@..!@.
  40004c:	e1 21 40 00 e1 21 40 00 e1 21 40 00 e1 21 40 00     .!@..!@..!@..!@.
  40005c:	e1 21 40 00 e1 21 40 00 00 00 00 00 35 1f 40 00     .!@..!@.....5.@.
  40006c:	49 1f 40 00 5d 1f 40 00 e1 21 40 00 e1 21 40 00     I.@.].@..!@..!@.
  40007c:	e1 21 40 00 71 1f 40 00 85 1f 40 00 e1 21 40 00     .!@.q.@...@..!@.
  40008c:	e1 21 40 00 e1 21 40 00 e1 21 40 00 e1 21 40 00     .!@..!@..!@..!@.
  40009c:	e1 21 40 00 e1 21 40 00 e1 21 40 00 e1 21 40 00     .!@..!@..!@..!@.
  4000ac:	e1 21 40 00 e1 21 40 00 65 16 40 00 e1 21 40 00     .!@..!@.e.@..!@.
  4000bc:	e1 21 40 00 e1 21 40 00 e1 21 40 00 e1 21 40 00     .!@..!@..!@..!@.
  4000cc:	e1 21 40 00 e1 21 40 00 e1 21 40 00 e1 21 40 00     .!@..!@..!@..!@.
  4000dc:	e1 21 40 00 79 16 40 00 e1 21 40 00 e1 21 40 00     .!@.y.@..!@..!@.
  4000ec:	e1 21 40 00 e1 21 40 00 e1 21 40 00 e1 21 40 00     .!@..!@..!@..!@.
  4000fc:	e1 21 40 00 e1 21 40 00 e1 21 40 00 e1 21 40 00     .!@..!@..!@..!@.
  40010c:	e1 21 40 00 e1 21 40 00 00 00 00 00 00 00 00 00     .!@..!@.........
  40011c:	00 00 00 00 e1 21 40 00 e1 21 40 00 e1 21 40 00     .....!@..!@..!@.
  40012c:	e1 21 40 00 e1 21 40 00 e1 21 40 00 e1 21 40 00     .!@..!@..!@..!@.
  40013c:	e1 21 40 00 e1 21 40 00 e1 21 40 00 e1 21 40 00     .!@..!@..!@..!@.
  40014c:	e1 21 40 00 e1 21 40 00 00 00 00 00 00 00 00 00     .!@..!@.........
	...

00400168 <__do_global_dtors_aux>:
  400168:	b510      	push	{r4, lr}
  40016a:	4c05      	ldr	r4, [pc, #20]	; (400180 <__do_global_dtors_aux+0x18>)
  40016c:	7823      	ldrb	r3, [r4, #0]
  40016e:	b933      	cbnz	r3, 40017e <__do_global_dtors_aux+0x16>
  400170:	4b04      	ldr	r3, [pc, #16]	; (400184 <__do_global_dtors_aux+0x1c>)
  400172:	b113      	cbz	r3, 40017a <__do_global_dtors_aux+0x12>
  400174:	4804      	ldr	r0, [pc, #16]	; (400188 <__do_global_dtors_aux+0x20>)
  400176:	f3af 8000 	nop.w
  40017a:	2301      	movs	r3, #1
  40017c:	7023      	strb	r3, [r4, #0]
  40017e:	bd10      	pop	{r4, pc}
  400180:	204009e8 	.word	0x204009e8
  400184:	00000000 	.word	0x00000000
  400188:	0040a24c 	.word	0x0040a24c

0040018c <frame_dummy>:
  40018c:	4b0c      	ldr	r3, [pc, #48]	; (4001c0 <frame_dummy+0x34>)
  40018e:	b143      	cbz	r3, 4001a2 <frame_dummy+0x16>
  400190:	480c      	ldr	r0, [pc, #48]	; (4001c4 <frame_dummy+0x38>)
  400192:	490d      	ldr	r1, [pc, #52]	; (4001c8 <frame_dummy+0x3c>)
  400194:	b510      	push	{r4, lr}
  400196:	f3af 8000 	nop.w
  40019a:	480c      	ldr	r0, [pc, #48]	; (4001cc <frame_dummy+0x40>)
  40019c:	6803      	ldr	r3, [r0, #0]
  40019e:	b923      	cbnz	r3, 4001aa <frame_dummy+0x1e>
  4001a0:	bd10      	pop	{r4, pc}
  4001a2:	480a      	ldr	r0, [pc, #40]	; (4001cc <frame_dummy+0x40>)
  4001a4:	6803      	ldr	r3, [r0, #0]
  4001a6:	b933      	cbnz	r3, 4001b6 <frame_dummy+0x2a>
  4001a8:	4770      	bx	lr
  4001aa:	4b09      	ldr	r3, [pc, #36]	; (4001d0 <frame_dummy+0x44>)
  4001ac:	2b00      	cmp	r3, #0
  4001ae:	d0f7      	beq.n	4001a0 <frame_dummy+0x14>
  4001b0:	e8bd 4010 	ldmia.w	sp!, {r4, lr}
  4001b4:	4718      	bx	r3
  4001b6:	4b06      	ldr	r3, [pc, #24]	; (4001d0 <frame_dummy+0x44>)
  4001b8:	2b00      	cmp	r3, #0
  4001ba:	d0f5      	beq.n	4001a8 <frame_dummy+0x1c>
  4001bc:	4718      	bx	r3
  4001be:	bf00      	nop
  4001c0:	00000000 	.word	0x00000000
  4001c4:	0040a24c 	.word	0x0040a24c
  4001c8:	204009ec 	.word	0x204009ec
  4001cc:	0040a24c 	.word	0x0040a24c
  4001d0:	00000000 	.word	0x00000000

004001d4 <sd_mmc_configure_slot>:

/**
 * \brief Configures the driver with the selected card configuration
 */
static void sd_mmc_configure_slot(void)
{
  4001d4:	b510      	push	{r4, lr}
	driver_select_device(sd_mmc_slot_sel, sd_mmc_card->clock,
  4001d6:	4b07      	ldr	r3, [pc, #28]	; (4001f4 <sd_mmc_configure_slot+0x20>)
  4001d8:	6819      	ldr	r1, [r3, #0]
  4001da:	f891 3022 	ldrb.w	r3, [r1, #34]	; 0x22
  4001de:	3300      	adds	r3, #0
  4001e0:	bf18      	it	ne
  4001e2:	2301      	movne	r3, #1
  4001e4:	7c4a      	ldrb	r2, [r1, #17]
  4001e6:	6809      	ldr	r1, [r1, #0]
  4001e8:	4803      	ldr	r0, [pc, #12]	; (4001f8 <sd_mmc_configure_slot+0x24>)
  4001ea:	7800      	ldrb	r0, [r0, #0]
  4001ec:	4c03      	ldr	r4, [pc, #12]	; (4001fc <sd_mmc_configure_slot+0x28>)
  4001ee:	47a0      	blx	r4
  4001f0:	bd10      	pop	{r4, pc}
  4001f2:	bf00      	nop
  4001f4:	20400a04 	.word	0x20400a04
  4001f8:	20400a0d 	.word	0x20400a0d
  4001fc:	004017f9 	.word	0x004017f9

00400200 <sd_mmc_select_slot>:
	if (slot >= SD_MMC_MEM_CNT) {
  400200:	b108      	cbz	r0, 400206 <sd_mmc_select_slot+0x6>
		return SD_MMC_ERR_SLOT;
  400202:	2004      	movs	r0, #4
  400204:	4770      	bx	lr
	if (ioport_get_pin_level(sd_mmc_cards[slot].cd_gpio)
  400206:	4b32      	ldr	r3, [pc, #200]	; (4002d0 <sd_mmc_select_slot+0xd0>)
  400208:	689a      	ldr	r2, [r3, #8]
	} else {
		return (Pio *)((uintptr_t)IOPORT_BASE_ADDRESS +
		       (IOPORT_PIO_OFFSET * port));
	}
#else
	return (Pio *)((uintptr_t)IOPORT_BASE_ADDRESS +
  40020a:	4b32      	ldr	r3, [pc, #200]	; (4002d4 <sd_mmc_select_slot+0xd4>)
  40020c:	eb03 1352 	add.w	r3, r3, r2, lsr #5
  400210:	025b      	lsls	r3, r3, #9
	}
}

__always_inline static bool arch_ioport_get_pin_level(ioport_pin_t pin)
{
	return arch_ioport_pin_to_base(pin)->PIO_PDSR & arch_ioport_pin_to_mask(pin);
  400212:	6bd9      	ldr	r1, [r3, #60]	; 0x3c
	return 1U << (pin & 0x1F);
  400214:	f002 021f 	and.w	r2, r2, #31
  400218:	2301      	movs	r3, #1
  40021a:	fa03 f202 	lsl.w	r2, r3, r2
  40021e:	420a      	tst	r2, r1
  400220:	d010      	beq.n	400244 <sd_mmc_select_slot+0x44>
		if (sd_mmc_cards[slot].state == SD_MMC_CARD_STATE_DEBOUNCE) {
  400222:	4b2b      	ldr	r3, [pc, #172]	; (4002d0 <sd_mmc_select_slot+0xd0>)
  400224:	7b9b      	ldrb	r3, [r3, #14]
  400226:	2b01      	cmp	r3, #1
  400228:	d004      	beq.n	400234 <sd_mmc_select_slot+0x34>
		sd_mmc_cards[slot].state = SD_MMC_CARD_STATE_NO_CARD;
  40022a:	2204      	movs	r2, #4
  40022c:	4b28      	ldr	r3, [pc, #160]	; (4002d0 <sd_mmc_select_slot+0xd0>)
  40022e:	739a      	strb	r2, [r3, #14]
		return SD_MMC_ERR_NO_CARD;
  400230:	2002      	movs	r0, #2
  400232:	4770      	bx	lr
	if (sd_mmc_sam_systick_used) {
  400234:	4b28      	ldr	r3, [pc, #160]	; (4002d8 <sd_mmc_select_slot+0xd8>)
  400236:	781b      	ldrb	r3, [r3, #0]
  400238:	2b00      	cmp	r3, #0
  40023a:	d0f6      	beq.n	40022a <sd_mmc_select_slot+0x2a>
		SysTick->CTRL = 0;
  40023c:	2200      	movs	r2, #0
  40023e:	4b27      	ldr	r3, [pc, #156]	; (4002dc <sd_mmc_select_slot+0xdc>)
  400240:	601a      	str	r2, [r3, #0]
  400242:	e7f2      	b.n	40022a <sd_mmc_select_slot+0x2a>
{
  400244:	b510      	push	{r4, lr}
	if (sd_mmc_cards[slot].state == SD_MMC_CARD_STATE_NO_CARD) {
  400246:	4b22      	ldr	r3, [pc, #136]	; (4002d0 <sd_mmc_select_slot+0xd0>)
  400248:	7b9b      	ldrb	r3, [r3, #14]
  40024a:	2b04      	cmp	r3, #4
  40024c:	d005      	beq.n	40025a <sd_mmc_select_slot+0x5a>
	if (sd_mmc_cards[slot].state == SD_MMC_CARD_STATE_DEBOUNCE) {
  40024e:	2b01      	cmp	r3, #1
  400250:	d019      	beq.n	400286 <sd_mmc_select_slot+0x86>
	if (sd_mmc_cards[slot].state == SD_MMC_CARD_STATE_UNUSABLE) {
  400252:	2b03      	cmp	r3, #3
  400254:	d12c      	bne.n	4002b0 <sd_mmc_select_slot+0xb0>
		return SD_MMC_ERR_UNUSABLE;
  400256:	2003      	movs	r0, #3
  400258:	bd10      	pop	{r4, pc}
		sd_mmc_cards[slot].state = SD_MMC_CARD_STATE_DEBOUNCE;
  40025a:	2201      	movs	r2, #1
  40025c:	4b1c      	ldr	r3, [pc, #112]	; (4002d0 <sd_mmc_select_slot+0xd0>)
  40025e:	739a      	strb	r2, [r3, #14]
	if (!SysTick->CTRL) {
  400260:	4b1e      	ldr	r3, [pc, #120]	; (4002dc <sd_mmc_select_slot+0xdc>)
  400262:	681b      	ldr	r3, [r3, #0]
  400264:	b93b      	cbnz	r3, 400276 <sd_mmc_select_slot+0x76>
		sd_mmc_sam_systick_used = true;
  400266:	4b1c      	ldr	r3, [pc, #112]	; (4002d8 <sd_mmc_select_slot+0xd8>)
  400268:	701a      	strb	r2, [r3, #0]
		SysTick->LOAD = (sysclk_get_cpu_hz() / (8 * 1000))
  40026a:	4b1c      	ldr	r3, [pc, #112]	; (4002dc <sd_mmc_select_slot+0xdc>)
  40026c:	491c      	ldr	r1, [pc, #112]	; (4002e0 <sd_mmc_select_slot+0xe0>)
  40026e:	6059      	str	r1, [r3, #4]
		SysTick->CTRL = SysTick_CTRL_ENABLE_Msk;
  400270:	601a      	str	r2, [r3, #0]
		return SD_MMC_ERR_NO_CARD;
  400272:	2002      	movs	r0, #2
  400274:	bd10      	pop	{r4, pc}
		sd_mmc_sam_systick_used = false;
  400276:	2200      	movs	r2, #0
  400278:	4b17      	ldr	r3, [pc, #92]	; (4002d8 <sd_mmc_select_slot+0xd8>)
  40027a:	701a      	strb	r2, [r3, #0]
		delay_ms(SD_MMC_DEBOUNCE_TIMEOUT);
  40027c:	4819      	ldr	r0, [pc, #100]	; (4002e4 <sd_mmc_select_slot+0xe4>)
  40027e:	4b1a      	ldr	r3, [pc, #104]	; (4002e8 <sd_mmc_select_slot+0xe8>)
  400280:	4798      	blx	r3
		return SD_MMC_ERR_NO_CARD;
  400282:	2002      	movs	r0, #2
  400284:	bd10      	pop	{r4, pc}
	if (!sd_mmc_sam_systick_used) {
  400286:	4b14      	ldr	r3, [pc, #80]	; (4002d8 <sd_mmc_select_slot+0xd8>)
  400288:	781b      	ldrb	r3, [r3, #0]
  40028a:	b13b      	cbz	r3, 40029c <sd_mmc_select_slot+0x9c>
	if (SysTick->CTRL & SysTick_CTRL_COUNTFLAG_Msk) {
  40028c:	4b13      	ldr	r3, [pc, #76]	; (4002dc <sd_mmc_select_slot+0xdc>)
  40028e:	681b      	ldr	r3, [r3, #0]
  400290:	f413 3f80 	tst.w	r3, #65536	; 0x10000
  400294:	d01a      	beq.n	4002cc <sd_mmc_select_slot+0xcc>
		SysTick->CTRL = 0;
  400296:	2200      	movs	r2, #0
  400298:	4b10      	ldr	r3, [pc, #64]	; (4002dc <sd_mmc_select_slot+0xdc>)
  40029a:	601a      	str	r2, [r3, #0]
		sd_mmc_cards[slot].state = SD_MMC_CARD_STATE_INIT;
  40029c:	4b0c      	ldr	r3, [pc, #48]	; (4002d0 <sd_mmc_select_slot+0xd0>)
  40029e:	2202      	movs	r2, #2
  4002a0:	739a      	strb	r2, [r3, #14]
		sd_mmc_cards[slot].clock = SDMMC_CLOCK_INIT;
  4002a2:	4a12      	ldr	r2, [pc, #72]	; (4002ec <sd_mmc_select_slot+0xec>)
  4002a4:	601a      	str	r2, [r3, #0]
		sd_mmc_cards[slot].bus_width = 1;
  4002a6:	2201      	movs	r2, #1
  4002a8:	745a      	strb	r2, [r3, #17]
		sd_mmc_cards[slot].high_speed = 0;
  4002aa:	2200      	movs	r2, #0
  4002ac:	f883 2022 	strb.w	r2, [r3, #34]	; 0x22
	sd_mmc_slot_sel = slot;
  4002b0:	2200      	movs	r2, #0
  4002b2:	4b0f      	ldr	r3, [pc, #60]	; (4002f0 <sd_mmc_select_slot+0xf0>)
  4002b4:	701a      	strb	r2, [r3, #0]
	sd_mmc_card = &sd_mmc_cards[slot];
  4002b6:	4c06      	ldr	r4, [pc, #24]	; (4002d0 <sd_mmc_select_slot+0xd0>)
  4002b8:	4b0e      	ldr	r3, [pc, #56]	; (4002f4 <sd_mmc_select_slot+0xf4>)
  4002ba:	601c      	str	r4, [r3, #0]
	sd_mmc_configure_slot();
  4002bc:	4b0e      	ldr	r3, [pc, #56]	; (4002f8 <sd_mmc_select_slot+0xf8>)
  4002be:	4798      	blx	r3
			SD_MMC_INIT_ONGOING : SD_MMC_OK;
  4002c0:	7ba0      	ldrb	r0, [r4, #14]
  4002c2:	2802      	cmp	r0, #2
  4002c4:	bf14      	ite	ne
  4002c6:	2000      	movne	r0, #0
  4002c8:	2001      	moveq	r0, #1
  4002ca:	bd10      	pop	{r4, pc}
			return SD_MMC_ERR_NO_CARD;
  4002cc:	2002      	movs	r0, #2
  4002ce:	bd10      	pop	{r4, pc}
  4002d0:	2040000c 	.word	0x2040000c
  4002d4:	00200707 	.word	0x00200707
  4002d8:	20400a0c 	.word	0x20400a0c
  4002dc:	e000e010 	.word	0xe000e010
  4002e0:	023c3460 	.word	0x023c3460
  4002e4:	0303af6b 	.word	0x0303af6b
  4002e8:	20400001 	.word	0x20400001
  4002ec:	00061a80 	.word	0x00061a80
  4002f0:	20400a0d 	.word	0x20400a0d
  4002f4:	20400a04 	.word	0x20400a04
  4002f8:	004001d5 	.word	0x004001d5

004002fc <sdio_cmd52>:
{
  4002fc:	b538      	push	{r3, r4, r5, lr}
  4002fe:	9c04      	ldr	r4, [sp, #16]
		| ((uint32_t)reg_addr << SDIO_CMD52_REG_ADRR))) {
  400300:	0252      	lsls	r2, r2, #9
	if (!driver_send_cmd(SDIO_CMD52_IO_RW_DIRECT,
  400302:	ea42 62c3 	orr.w	r2, r2, r3, lsl #27
  400306:	ea42 7201 	orr.w	r2, r2, r1, lsl #28
  40030a:	ea42 72c0 	orr.w	r2, r2, r0, lsl #31
		((uint32_t)*io_data << SDIO_CMD52_WR_DATA)
  40030e:	7821      	ldrb	r1, [r4, #0]
	if (!driver_send_cmd(SDIO_CMD52_IO_RW_DIRECT,
  400310:	4311      	orrs	r1, r2
  400312:	f241 3034 	movw	r0, #4916	; 0x1334
  400316:	4b05      	ldr	r3, [pc, #20]	; (40032c <sdio_cmd52+0x30>)
  400318:	4798      	blx	r3
  40031a:	4605      	mov	r5, r0
  40031c:	b908      	cbnz	r0, 400322 <sdio_cmd52+0x26>
}
  40031e:	4628      	mov	r0, r5
  400320:	bd38      	pop	{r3, r4, r5, pc}
	*io_data = driver_get_response() & 0xFF;
  400322:	4b03      	ldr	r3, [pc, #12]	; (400330 <sdio_cmd52+0x34>)
  400324:	4798      	blx	r3
  400326:	7020      	strb	r0, [r4, #0]
	return true;
  400328:	e7f9      	b.n	40031e <sdio_cmd52+0x22>
  40032a:	bf00      	nop
  40032c:	004018e1 	.word	0x004018e1
  400330:	00401905 	.word	0x00401905

00400334 <sd_mmc_cmd9_mci>:
{
  400334:	b510      	push	{r4, lr}
	if (!driver_send_cmd(SDMMC_MCI_CMD9_SEND_CSD, (uint32_t)sd_mmc_card->rca << 16)) {
  400336:	4b09      	ldr	r3, [pc, #36]	; (40035c <sd_mmc_cmd9_mci+0x28>)
  400338:	681b      	ldr	r3, [r3, #0]
  40033a:	8999      	ldrh	r1, [r3, #12]
  40033c:	0409      	lsls	r1, r1, #16
  40033e:	f641 3009 	movw	r0, #6921	; 0x1b09
  400342:	4b07      	ldr	r3, [pc, #28]	; (400360 <sd_mmc_cmd9_mci+0x2c>)
  400344:	4798      	blx	r3
  400346:	4604      	mov	r4, r0
  400348:	b908      	cbnz	r0, 40034e <sd_mmc_cmd9_mci+0x1a>
}
  40034a:	4620      	mov	r0, r4
  40034c:	bd10      	pop	{r4, pc}
	driver_get_response_128(sd_mmc_card->csd);
  40034e:	4b03      	ldr	r3, [pc, #12]	; (40035c <sd_mmc_cmd9_mci+0x28>)
  400350:	6818      	ldr	r0, [r3, #0]
  400352:	3012      	adds	r0, #18
  400354:	4b03      	ldr	r3, [pc, #12]	; (400364 <sd_mmc_cmd9_mci+0x30>)
  400356:	4798      	blx	r3
	return true;
  400358:	e7f7      	b.n	40034a <sd_mmc_cmd9_mci+0x16>
  40035a:	bf00      	nop
  40035c:	20400a04 	.word	0x20400a04
  400360:	004018e1 	.word	0x004018e1
  400364:	0040190d 	.word	0x0040190d

00400368 <sd_mmc_deselect_slot>:

/**
 * \brief Deselect the current card slot
 */
static void sd_mmc_deselect_slot(void)
{
  400368:	b508      	push	{r3, lr}
	if (sd_mmc_slot_sel < SD_MMC_MEM_CNT) {
  40036a:	4b04      	ldr	r3, [pc, #16]	; (40037c <sd_mmc_deselect_slot+0x14>)
  40036c:	781b      	ldrb	r3, [r3, #0]
  40036e:	b103      	cbz	r3, 400372 <sd_mmc_deselect_slot+0xa>
  400370:	bd08      	pop	{r3, pc}
		driver_deselect_device(sd_mmc_slot_sel);
  400372:	2000      	movs	r0, #0
  400374:	4b02      	ldr	r3, [pc, #8]	; (400380 <sd_mmc_deselect_slot+0x18>)
  400376:	4798      	blx	r3
	}
}
  400378:	e7fa      	b.n	400370 <sd_mmc_deselect_slot+0x8>
  40037a:	bf00      	nop
  40037c:	20400a0d 	.word	0x20400a0d
  400380:	004018bd 	.word	0x004018bd

00400384 <sd_mmc_init>:

//-------------------------------------------------------------------
//--------------------- PUBLIC FUNCTIONS ----------------------------

void sd_mmc_init(void)
{
  400384:	b508      	push	{r3, lr}
	//! Enable the PMC clock for the card detect pins
#if (defined SD_MMC_0_CD_GPIO) && (SAM) && (!SAM4L)
# include "pmc.h"
# define SD_MMC_ENABLE_CD_PIN(slot, unused) \
	pmc_enable_periph_clk(SD_MMC_##slot##_CD_PIO_ID);
	MREPEAT(SD_MMC_MEM_CNT, SD_MMC_ENABLE_CD_PIN, ~)
  400386:	2010      	movs	r0, #16
  400388:	4b05      	ldr	r3, [pc, #20]	; (4003a0 <sd_mmc_init+0x1c>)
  40038a:	4798      	blx	r3
	pmc_enable_periph_clk(SD_MMC_##slot##_WP_PIO_ID);
	MREPEAT(SD_MMC_MEM_CNT, SD_MMC_ENABLE_WP_PIN, ~)
# undef SD_MMC_ENABLE_WP_PIN
#endif
	for (uint8_t slot = 0; slot < SD_MMC_MEM_CNT; slot++) {
		sd_mmc_cards[slot].state = SD_MMC_CARD_STATE_NO_CARD;
  40038c:	2204      	movs	r2, #4
  40038e:	4b05      	ldr	r3, [pc, #20]	; (4003a4 <sd_mmc_init+0x20>)
  400390:	739a      	strb	r2, [r3, #14]
	}
	sd_mmc_slot_sel = 0xFF; // No slot configurated
  400392:	22ff      	movs	r2, #255	; 0xff
  400394:	4b04      	ldr	r3, [pc, #16]	; (4003a8 <sd_mmc_init+0x24>)
  400396:	701a      	strb	r2, [r3, #0]
	driver_init();
  400398:	4b04      	ldr	r3, [pc, #16]	; (4003ac <sd_mmc_init+0x28>)
  40039a:	4798      	blx	r3
  40039c:	bd08      	pop	{r3, pc}
  40039e:	bf00      	nop
  4003a0:	004020b9 	.word	0x004020b9
  4003a4:	2040000c 	.word	0x2040000c
  4003a8:	20400a0d 	.word	0x20400a0d
  4003ac:	004017bd 	.word	0x004017bd

004003b0 <sd_mmc_check>:
{
	return SD_MMC_MEM_CNT;
}

sd_mmc_err_t sd_mmc_check(uint8_t slot)
{
  4003b0:	e92d 43f0 	stmdb	sp!, {r4, r5, r6, r7, r8, r9, lr}
  4003b4:	b095      	sub	sp, #84	; 0x54
	sd_mmc_err_t sd_mmc_err;

	sd_mmc_err = sd_mmc_select_slot(slot);
  4003b6:	4ba7      	ldr	r3, [pc, #668]	; (400654 <sd_mmc_check+0x2a4>)
  4003b8:	4798      	blx	r3
  4003ba:	4604      	mov	r4, r0
	if (sd_mmc_err != SD_MMC_INIT_ONGOING) {
  4003bc:	2801      	cmp	r0, #1
  4003be:	d005      	beq.n	4003cc <sd_mmc_check+0x1c>
		sd_mmc_deselect_slot();
  4003c0:	4ba5      	ldr	r3, [pc, #660]	; (400658 <sd_mmc_check+0x2a8>)
  4003c2:	4798      	blx	r3
	}
	sd_mmc_debug("SD/MMC card initialization failed\n\r");
	sd_mmc_card->state = SD_MMC_CARD_STATE_UNUSABLE;
	sd_mmc_deselect_slot();
	return SD_MMC_ERR_UNUSABLE;
}
  4003c4:	4620      	mov	r0, r4
  4003c6:	b015      	add	sp, #84	; 0x54
  4003c8:	e8bd 83f0 	ldmia.w	sp!, {r4, r5, r6, r7, r8, r9, pc}
	uint8_t data = 0x08;
  4003cc:	ae14      	add	r6, sp, #80	; 0x50
  4003ce:	2308      	movs	r3, #8
  4003d0:	f806 3d45 	strb.w	r3, [r6, #-69]!
	sd_mmc_card->type = CARD_TYPE_SD;
  4003d4:	4ba1      	ldr	r3, [pc, #644]	; (40065c <sd_mmc_check+0x2ac>)
  4003d6:	681b      	ldr	r3, [r3, #0]
  4003d8:	2701      	movs	r7, #1
  4003da:	73df      	strb	r7, [r3, #15]
	sd_mmc_card->version = CARD_VER_UNKNOWN;
  4003dc:	2500      	movs	r5, #0
  4003de:	741d      	strb	r5, [r3, #16]
	sd_mmc_card->rca = 0;
  4003e0:	819d      	strh	r5, [r3, #12]
	driver_send_clock();
  4003e2:	4b9f      	ldr	r3, [pc, #636]	; (400660 <sd_mmc_check+0x2b0>)
  4003e4:	4798      	blx	r3
	sdio_cmd52(SDIO_CMD52_WRITE_FLAG, SDIO_CIA,SDIO_CCCR_IOA, 0, &data);
  4003e6:	9600      	str	r6, [sp, #0]
  4003e8:	462b      	mov	r3, r5
  4003ea:	2206      	movs	r2, #6
  4003ec:	4629      	mov	r1, r5
  4003ee:	4638      	mov	r0, r7
  4003f0:	4e9c      	ldr	r6, [pc, #624]	; (400664 <sd_mmc_check+0x2b4>)
  4003f2:	47b0      	blx	r6
	if (!driver_send_cmd(SDMMC_MCI_CMD0_GO_IDLE_STATE, 0)) {
  4003f4:	4629      	mov	r1, r5
  4003f6:	f44f 4080 	mov.w	r0, #16384	; 0x4000
  4003fa:	4b9b      	ldr	r3, [pc, #620]	; (400668 <sd_mmc_check+0x2b8>)
  4003fc:	4798      	blx	r3
  4003fe:	b930      	cbnz	r0, 40040e <sd_mmc_check+0x5e>
	sd_mmc_card->state = SD_MMC_CARD_STATE_UNUSABLE;
  400400:	4b96      	ldr	r3, [pc, #600]	; (40065c <sd_mmc_check+0x2ac>)
  400402:	681b      	ldr	r3, [r3, #0]
  400404:	2403      	movs	r4, #3
  400406:	739c      	strb	r4, [r3, #14]
	sd_mmc_deselect_slot();
  400408:	4b93      	ldr	r3, [pc, #588]	; (400658 <sd_mmc_check+0x2a8>)
  40040a:	4798      	blx	r3
	return SD_MMC_ERR_UNUSABLE;
  40040c:	e7da      	b.n	4003c4 <sd_mmc_check+0x14>
	if (!driver_send_cmd(SD_CMD8_SEND_IF_COND,
  40040e:	f44f 71d5 	mov.w	r1, #426	; 0x1aa
  400412:	f245 5008 	movw	r0, #21768	; 0x5508
  400416:	4b94      	ldr	r3, [pc, #592]	; (400668 <sd_mmc_check+0x2b8>)
  400418:	4798      	blx	r3
  40041a:	2800      	cmp	r0, #0
  40041c:	f040 8093 	bne.w	400546 <sd_mmc_check+0x196>
	*v2 = 0;
  400420:	f04f 0900 	mov.w	r9, #0
	if (!driver_send_cmd(SDIO_CMD5_SEND_OP_COND, 0)) {
  400424:	2100      	movs	r1, #0
  400426:	f244 5005 	movw	r0, #17669	; 0x4505
  40042a:	4b8f      	ldr	r3, [pc, #572]	; (400668 <sd_mmc_check+0x2b8>)
  40042c:	4798      	blx	r3
  40042e:	2800      	cmp	r0, #0
  400430:	f040 8097 	bne.w	400562 <sd_mmc_check+0x1b2>
	if (sd_mmc_card->type & CARD_TYPE_SD) {
  400434:	4b89      	ldr	r3, [pc, #548]	; (40065c <sd_mmc_check+0x2ac>)
  400436:	681b      	ldr	r3, [r3, #0]
  400438:	7bdb      	ldrb	r3, [r3, #15]
  40043a:	f013 0f01 	tst.w	r3, #1
  40043e:	f040 80b5 	bne.w	4005ac <sd_mmc_check+0x1fc>
	if (!driver_send_cmd(SD_CMD3_SEND_RELATIVE_ADDR, 0)) {
  400442:	2100      	movs	r1, #0
  400444:	f245 1003 	movw	r0, #20739	; 0x5103
  400448:	4b87      	ldr	r3, [pc, #540]	; (400668 <sd_mmc_check+0x2b8>)
  40044a:	4798      	blx	r3
  40044c:	2800      	cmp	r0, #0
  40044e:	d0d7      	beq.n	400400 <sd_mmc_check+0x50>
	sd_mmc_card->rca = (driver_get_response() >> 16) & 0xFFFF;
  400450:	4d82      	ldr	r5, [pc, #520]	; (40065c <sd_mmc_check+0x2ac>)
  400452:	682e      	ldr	r6, [r5, #0]
  400454:	4b85      	ldr	r3, [pc, #532]	; (40066c <sd_mmc_check+0x2bc>)
  400456:	4798      	blx	r3
  400458:	0c00      	lsrs	r0, r0, #16
  40045a:	81b0      	strh	r0, [r6, #12]
	if (sd_mmc_card->type & CARD_TYPE_SD) {
  40045c:	682b      	ldr	r3, [r5, #0]
  40045e:	7bdb      	ldrb	r3, [r3, #15]
  400460:	f013 0f01 	tst.w	r3, #1
  400464:	d034      	beq.n	4004d0 <sd_mmc_check+0x120>
		if (!sd_mmc_cmd9_mci()) {
  400466:	4b82      	ldr	r3, [pc, #520]	; (400670 <sd_mmc_check+0x2c0>)
  400468:	4798      	blx	r3
  40046a:	2800      	cmp	r0, #0
  40046c:	d0c8      	beq.n	400400 <sd_mmc_check+0x50>
	tran_speed = CSD_TRAN_SPEED(sd_mmc_card->csd);
  40046e:	682b      	ldr	r3, [r5, #0]
 */
static inline uint32_t SDMMC_UNSTUFF_BITS(uint8_t *reg, uint16_t reg_size,
		uint16_t pos, uint8_t size)
{
	uint32_t value;
	value = reg[((reg_size - pos + 7) / 8) - 1] >> (pos % 8);
  400470:	7d5a      	ldrb	r2, [r3, #21]
	mul = sd_trans_multipliers[(tran_speed >> 3) & 0xF];
  400472:	f3c2 00c3 	ubfx	r0, r2, #3, #4
	unit = sd_mmc_trans_units[tran_speed & 0x7];
  400476:	f002 0207 	and.w	r2, r2, #7
	sd_mmc_card->clock = unit * mul * 1000;
  40047a:	497e      	ldr	r1, [pc, #504]	; (400674 <sd_mmc_check+0x2c4>)
  40047c:	f851 1022 	ldr.w	r1, [r1, r2, lsl #2]
  400480:	f44f 727a 	mov.w	r2, #1000	; 0x3e8
  400484:	fb02 f201 	mul.w	r2, r2, r1
  400488:	497b      	ldr	r1, [pc, #492]	; (400678 <sd_mmc_check+0x2c8>)
  40048a:	f851 1020 	ldr.w	r1, [r1, r0, lsl #2]
  40048e:	fb02 f201 	mul.w	r2, r2, r1
  400492:	601a      	str	r2, [r3, #0]
	if (CSD_STRUCTURE_VERSION(sd_mmc_card->csd) >= SD_CSD_VER_2_0) {
  400494:	7c9a      	ldrb	r2, [r3, #18]
  400496:	0992      	lsrs	r2, r2, #6
  400498:	f040 820c 	bne.w	4008b4 <sd_mmc_check+0x504>
  40049c:	7e99      	ldrb	r1, [r3, #26]
	if (((pos % 8) + size) > 8) {
		value |= (uint32_t)reg[((reg_size - pos + 7) / 8) - 2] << (8 - (pos % 8));
  40049e:	7e58      	ldrb	r0, [r3, #25]
	}
	if (((pos % 8) + size) > 16) {
		value |= (uint32_t)reg[((reg_size - pos + 7) / 8) - 3] << (16 - (pos % 8));
  4004a0:	7e1a      	ldrb	r2, [r3, #24]
  4004a2:	0292      	lsls	r2, r2, #10
	}
	if (((pos % 8) + size) > 16) {
		value |= (uint32_t)reg[((reg_size - pos + 7) / 8) - 3] << (16 - (pos % 8));
  4004a4:	ea42 0280 	orr.w	r2, r2, r0, lsl #2
  4004a8:	ea42 12a1 	orr.w	r2, r2, r1, asr #6
	value = reg[((reg_size - pos + 7) / 8) - 1] >> (pos % 8);
  4004ac:	7f18      	ldrb	r0, [r3, #28]
		value |= (uint32_t)reg[((reg_size - pos + 7) / 8) - 2] << (8 - (pos % 8));
  4004ae:	7ed9      	ldrb	r1, [r3, #27]
  4004b0:	0049      	lsls	r1, r1, #1
  4004b2:	ea41 11e0 	orr.w	r1, r1, r0, asr #7
	}
	value &=  ((uint32_t)1 << size) - 1;
  4004b6:	f3c2 020b 	ubfx	r2, r2, #0, #12
		uint32_t blocknr = ((SD_CSD_1_0_C_SIZE(sd_mmc_card->csd) + 1) *
  4004ba:	3201      	adds	r2, #1
  4004bc:	f001 0107 	and.w	r1, r1, #7
				(1 << (SD_CSD_1_0_C_SIZE_MULT(sd_mmc_card->csd) + 2)));
  4004c0:	3102      	adds	r1, #2
		uint32_t blocknr = ((SD_CSD_1_0_C_SIZE(sd_mmc_card->csd) + 1) *
  4004c2:	408a      	lsls	r2, r1
  4004c4:	7dd9      	ldrb	r1, [r3, #23]
  4004c6:	f001 010f 	and.w	r1, r1, #15
		sd_mmc_card->capacity = blocknr *
  4004ca:	408a      	lsls	r2, r1
				/ 1024;
  4004cc:	0a92      	lsrs	r2, r2, #10
		sd_mmc_card->capacity = blocknr *
  4004ce:	605a      	str	r2, [r3, #4]
			(uint32_t)sd_mmc_card->rca << 16)) {
  4004d0:	4b62      	ldr	r3, [pc, #392]	; (40065c <sd_mmc_check+0x2ac>)
  4004d2:	681b      	ldr	r3, [r3, #0]
  4004d4:	8999      	ldrh	r1, [r3, #12]
	if (!driver_send_cmd(SDMMC_CMD7_SELECT_CARD_CMD,
  4004d6:	0409      	lsls	r1, r1, #16
  4004d8:	f243 1007 	movw	r0, #12551	; 0x3107
  4004dc:	4b62      	ldr	r3, [pc, #392]	; (400668 <sd_mmc_check+0x2b8>)
  4004de:	4798      	blx	r3
  4004e0:	2800      	cmp	r0, #0
  4004e2:	d08d      	beq.n	400400 <sd_mmc_check+0x50>
	if (sd_mmc_card->type & CARD_TYPE_SD) {
  4004e4:	4b5d      	ldr	r3, [pc, #372]	; (40065c <sd_mmc_check+0x2ac>)
  4004e6:	681b      	ldr	r3, [r3, #0]
  4004e8:	7bda      	ldrb	r2, [r3, #15]
  4004ea:	f012 0f01 	tst.w	r2, #1
  4004ee:	f040 81ee 	bne.w	4008ce <sd_mmc_check+0x51e>
	if (IS_SDIO()) {
  4004f2:	4b5a      	ldr	r3, [pc, #360]	; (40065c <sd_mmc_check+0x2ac>)
  4004f4:	681b      	ldr	r3, [r3, #0]
  4004f6:	7bdb      	ldrb	r3, [r3, #15]
  4004f8:	f013 0f04 	tst.w	r3, #4
  4004fc:	f000 829d 	beq.w	400a3a <sd_mmc_check+0x68a>
  400500:	2509      	movs	r5, #9
		sdio_cmd52(SDIO_CMD52_READ_FLAG, SDIO_CIA, addr_old, 0, &addr_cis[i]);
  400502:	2700      	movs	r7, #0
  400504:	4e57      	ldr	r6, [pc, #348]	; (400664 <sd_mmc_check+0x2b4>)
  400506:	f1a5 0309 	sub.w	r3, r5, #9
  40050a:	aa03      	add	r2, sp, #12
  40050c:	4413      	add	r3, r2
  40050e:	9300      	str	r3, [sp, #0]
  400510:	463b      	mov	r3, r7
  400512:	462a      	mov	r2, r5
  400514:	4639      	mov	r1, r7
  400516:	4638      	mov	r0, r7
  400518:	47b0      	blx	r6
		addr_old++;
  40051a:	3501      	adds	r5, #1
	for(i = 0; i < 4; i++) {
  40051c:	2d0d      	cmp	r5, #13
  40051e:	d1f2      	bne.n	400506 <sd_mmc_check+0x156>
	addr_old = addr_cis[0] + (addr_cis[1] << 8) + \
  400520:	f89d 300d 	ldrb.w	r3, [sp, #13]
  400524:	f89d 900c 	ldrb.w	r9, [sp, #12]
  400528:	eb09 2903 	add.w	r9, r9, r3, lsl #8
				(addr_cis[2] << 16) + (addr_cis[3] << 24);
  40052c:	f89d 300e 	ldrb.w	r3, [sp, #14]
	addr_old = addr_cis[0] + (addr_cis[1] << 8) + \
  400530:	eb09 4903 	add.w	r9, r9, r3, lsl #16
				(addr_cis[2] << 16) + (addr_cis[3] << 24);
  400534:	f89d 300f 	ldrb.w	r3, [sp, #15]
  400538:	eb09 6903 	add.w	r9, r9, r3, lsl #24
	addr_new = addr_old;
  40053c:	464e      	mov	r6, r9
			sdio_cmd52(SDIO_CMD52_READ_FLAG, SDIO_CIA, addr_new, 0, &buf[i]);
  40053e:	f04f 0800 	mov.w	r8, #0
  400542:	4f48      	ldr	r7, [pc, #288]	; (400664 <sd_mmc_check+0x2b4>)
  400544:	e23a      	b.n	4009bc <sd_mmc_check+0x60c>
	resp = driver_get_response();
  400546:	4b49      	ldr	r3, [pc, #292]	; (40066c <sd_mmc_check+0x2bc>)
  400548:	4798      	blx	r3
	if (resp == 0xFFFFFFFF) {
  40054a:	f1b0 3fff 	cmp.w	r0, #4294967295
  40054e:	f000 834a 	beq.w	400be6 <sd_mmc_check+0x836>
	if ((resp & (SD_CMD8_MASK_PATTERN | SD_CMD8_MASK_VOLTAGE))
  400552:	f3c0 000b 	ubfx	r0, r0, #0, #12
  400556:	f5b0 7fd5 	cmp.w	r0, #426	; 0x1aa
  40055a:	f47f af51 	bne.w	400400 <sd_mmc_check+0x50>
	*v2 = 1;
  40055e:	46b9      	mov	r9, r7
  400560:	e760      	b.n	400424 <sd_mmc_check+0x74>
	resp = driver_get_response();
  400562:	4b42      	ldr	r3, [pc, #264]	; (40066c <sd_mmc_check+0x2bc>)
  400564:	4798      	blx	r3
	if ((resp & OCR_SDIO_NF) == 0) {
  400566:	f010 4fe0 	tst.w	r0, #1879048192	; 0x70000000
  40056a:	f43f af63 	beq.w	400434 <sd_mmc_check+0x84>
  40056e:	f241 3589 	movw	r5, #5001	; 0x1389
		if (!driver_send_cmd(SDIO_CMD5_SEND_OP_COND,
  400572:	f244 5805 	movw	r8, #17669	; 0x4505
  400576:	4e3c      	ldr	r6, [pc, #240]	; (400668 <sd_mmc_check+0x2b8>)
		resp = driver_get_response();
  400578:	4f3c      	ldr	r7, [pc, #240]	; (40066c <sd_mmc_check+0x2bc>)
		if (!driver_send_cmd(SDIO_CMD5_SEND_OP_COND,
  40057a:	f400 11fc 	and.w	r1, r0, #2064384	; 0x1f8000
  40057e:	4640      	mov	r0, r8
  400580:	47b0      	blx	r6
  400582:	2800      	cmp	r0, #0
  400584:	f43f af3c 	beq.w	400400 <sd_mmc_check+0x50>
		resp = driver_get_response();
  400588:	47b8      	blx	r7
		if ((resp & OCR_POWER_UP_BUSY) == OCR_POWER_UP_BUSY) {
  40058a:	2800      	cmp	r0, #0
  40058c:	db02      	blt.n	400594 <sd_mmc_check+0x1e4>
		if (cmd5_retry-- == 0) {
  40058e:	3d01      	subs	r5, #1
  400590:	d1f3      	bne.n	40057a <sd_mmc_check+0x1ca>
  400592:	e735      	b.n	400400 <sd_mmc_check+0x50>
	if ((resp & OCR_SDIO_MP) > 0) {
  400594:	f010 6f00 	tst.w	r0, #134217728	; 0x8000000
  400598:	d104      	bne.n	4005a4 <sd_mmc_check+0x1f4>
		sd_mmc_card->type = CARD_TYPE_SDIO;
  40059a:	4b30      	ldr	r3, [pc, #192]	; (40065c <sd_mmc_check+0x2ac>)
  40059c:	681b      	ldr	r3, [r3, #0]
  40059e:	2204      	movs	r2, #4
  4005a0:	73da      	strb	r2, [r3, #15]
  4005a2:	e74e      	b.n	400442 <sd_mmc_check+0x92>
		sd_mmc_card->type = CARD_TYPE_SD_COMBO;
  4005a4:	4b2d      	ldr	r3, [pc, #180]	; (40065c <sd_mmc_check+0x2ac>)
  4005a6:	681b      	ldr	r3, [r3, #0]
  4005a8:	2205      	movs	r2, #5
  4005aa:	73da      	strb	r2, [r3, #15]
  4005ac:	f1b9 0f00 	cmp.w	r9, #0
  4005b0:	4f32      	ldr	r7, [pc, #200]	; (40067c <sd_mmc_check+0x2cc>)
  4005b2:	bf14      	ite	ne
  4005b4:	46b9      	movne	r9, r7
  4005b6:	f44f 19fc 	moveq.w	r9, #2064384	; 0x1f8000
	if ((resp & OCR_SDIO_NF) == 0) {
  4005ba:	f640 0535 	movw	r5, #2101	; 0x835
		if (!driver_send_cmd(SDMMC_CMD55_APP_CMD, 0)) {
  4005be:	f04f 0800 	mov.w	r8, #0
  4005c2:	4e29      	ldr	r6, [pc, #164]	; (400668 <sd_mmc_check+0x2b8>)
		resp = driver_get_response();
  4005c4:	4f29      	ldr	r7, [pc, #164]	; (40066c <sd_mmc_check+0x2bc>)
		if (!driver_send_cmd(SDMMC_CMD55_APP_CMD, 0)) {
  4005c6:	4641      	mov	r1, r8
  4005c8:	f241 1037 	movw	r0, #4407	; 0x1137
  4005cc:	47b0      	blx	r6
  4005ce:	b148      	cbz	r0, 4005e4 <sd_mmc_check+0x234>
		if (!driver_send_cmd(SD_MCI_ACMD41_SD_SEND_OP_COND, arg)) {
  4005d0:	4649      	mov	r1, r9
  4005d2:	f244 5029 	movw	r0, #17705	; 0x4529
  4005d6:	47b0      	blx	r6
  4005d8:	b120      	cbz	r0, 4005e4 <sd_mmc_check+0x234>
		resp = driver_get_response();
  4005da:	47b8      	blx	r7
		if (resp & OCR_POWER_UP_BUSY) {
  4005dc:	2800      	cmp	r0, #0
  4005de:	db20      	blt.n	400622 <sd_mmc_check+0x272>
		if (retry-- == 0) {
  4005e0:	3d01      	subs	r5, #1
  4005e2:	d1f0      	bne.n	4005c6 <sd_mmc_check+0x216>
			sd_mmc_card->type = CARD_TYPE_MMC;
  4005e4:	4b1d      	ldr	r3, [pc, #116]	; (40065c <sd_mmc_check+0x2ac>)
  4005e6:	681b      	ldr	r3, [r3, #0]
  4005e8:	2202      	movs	r2, #2
  4005ea:	73da      	strb	r2, [r3, #15]
	if (!driver_send_cmd(SDMMC_MCI_CMD0_GO_IDLE_STATE, 0)) {
  4005ec:	2100      	movs	r1, #0
  4005ee:	f44f 4080 	mov.w	r0, #16384	; 0x4000
  4005f2:	4b1d      	ldr	r3, [pc, #116]	; (400668 <sd_mmc_check+0x2b8>)
  4005f4:	4798      	blx	r3
  4005f6:	2800      	cmp	r0, #0
  4005f8:	f43f af02 	beq.w	400400 <sd_mmc_check+0x50>
  4005fc:	f241 0569 	movw	r5, #4201	; 0x1069
		if (!driver_send_cmd(MMC_MCI_CMD1_SEND_OP_COND,
  400600:	f8df 8078 	ldr.w	r8, [pc, #120]	; 40067c <sd_mmc_check+0x2cc>
  400604:	4e18      	ldr	r6, [pc, #96]	; (400668 <sd_mmc_check+0x2b8>)
		resp = driver_get_response();
  400606:	4f19      	ldr	r7, [pc, #100]	; (40066c <sd_mmc_check+0x2bc>)
		if (!driver_send_cmd(MMC_MCI_CMD1_SEND_OP_COND,
  400608:	4641      	mov	r1, r8
  40060a:	f244 5001 	movw	r0, #17665	; 0x4501
  40060e:	47b0      	blx	r6
  400610:	2800      	cmp	r0, #0
  400612:	f43f aef5 	beq.w	400400 <sd_mmc_check+0x50>
		resp = driver_get_response();
  400616:	47b8      	blx	r7
		if (resp & OCR_POWER_UP_BUSY) {
  400618:	2800      	cmp	r0, #0
  40061a:	db31      	blt.n	400680 <sd_mmc_check+0x2d0>
		if (retry-- == 0) {
  40061c:	3d01      	subs	r5, #1
  40061e:	d1f3      	bne.n	400608 <sd_mmc_check+0x258>
  400620:	e6ee      	b.n	400400 <sd_mmc_check+0x50>
			if ((resp & OCR_CCS) != 0) {
  400622:	f010 4f80 	tst.w	r0, #1073741824	; 0x40000000
  400626:	d005      	beq.n	400634 <sd_mmc_check+0x284>
				sd_mmc_card->type |= CARD_TYPE_HC;
  400628:	4b0c      	ldr	r3, [pc, #48]	; (40065c <sd_mmc_check+0x2ac>)
  40062a:	681a      	ldr	r2, [r3, #0]
  40062c:	7bd3      	ldrb	r3, [r2, #15]
  40062e:	f043 0308 	orr.w	r3, r3, #8
  400632:	73d3      	strb	r3, [r2, #15]
	if (sd_mmc_card->type & CARD_TYPE_SD) {
  400634:	4b09      	ldr	r3, [pc, #36]	; (40065c <sd_mmc_check+0x2ac>)
  400636:	681b      	ldr	r3, [r3, #0]
  400638:	7bdb      	ldrb	r3, [r3, #15]
  40063a:	f013 0f01 	tst.w	r3, #1
  40063e:	f43f af00 	beq.w	400442 <sd_mmc_check+0x92>
		if (!driver_send_cmd(SDMMC_CMD2_ALL_SEND_CID, 0)) {
  400642:	2100      	movs	r1, #0
  400644:	f645 3002 	movw	r0, #23298	; 0x5b02
  400648:	4b07      	ldr	r3, [pc, #28]	; (400668 <sd_mmc_check+0x2b8>)
  40064a:	4798      	blx	r3
  40064c:	2800      	cmp	r0, #0
  40064e:	f47f aef8 	bne.w	400442 <sd_mmc_check+0x92>
  400652:	e6d5      	b.n	400400 <sd_mmc_check+0x50>
  400654:	00400201 	.word	0x00400201
  400658:	00400369 	.word	0x00400369
  40065c:	20400a04 	.word	0x20400a04
  400660:	004018bf 	.word	0x004018bf
  400664:	004002fd 	.word	0x004002fd
  400668:	004018e1 	.word	0x004018e1
  40066c:	00401905 	.word	0x00401905
  400670:	00400335 	.word	0x00400335
  400674:	00409844 	.word	0x00409844
  400678:	00409860 	.word	0x00409860
  40067c:	401f8000 	.word	0x401f8000
			if ((resp & OCR_ACCESS_MODE_MASK)
  400680:	f000 40c0 	and.w	r0, r0, #1610612736	; 0x60000000
  400684:	f1b0 4f80 	cmp.w	r0, #1073741824	; 0x40000000
  400688:	d027      	beq.n	4006da <sd_mmc_check+0x32a>
	if (!driver_send_cmd(SDMMC_CMD2_ALL_SEND_CID, 0)) {
  40068a:	2100      	movs	r1, #0
  40068c:	f645 3002 	movw	r0, #23298	; 0x5b02
  400690:	4ba5      	ldr	r3, [pc, #660]	; (400928 <sd_mmc_check+0x578>)
  400692:	4798      	blx	r3
  400694:	2800      	cmp	r0, #0
  400696:	f43f aeb3 	beq.w	400400 <sd_mmc_check+0x50>
	sd_mmc_card->rca = 1;
  40069a:	4ba4      	ldr	r3, [pc, #656]	; (40092c <sd_mmc_check+0x57c>)
  40069c:	681b      	ldr	r3, [r3, #0]
  40069e:	2201      	movs	r2, #1
  4006a0:	819a      	strh	r2, [r3, #12]
	if (!driver_send_cmd(MMC_CMD3_SET_RELATIVE_ADDR,
  4006a2:	f44f 3180 	mov.w	r1, #65536	; 0x10000
  4006a6:	f241 1003 	movw	r0, #4355	; 0x1103
  4006aa:	4b9f      	ldr	r3, [pc, #636]	; (400928 <sd_mmc_check+0x578>)
  4006ac:	4798      	blx	r3
  4006ae:	2800      	cmp	r0, #0
  4006b0:	f43f aea6 	beq.w	400400 <sd_mmc_check+0x50>
	if (!sd_mmc_cmd9_mci()) {
  4006b4:	4b9e      	ldr	r3, [pc, #632]	; (400930 <sd_mmc_check+0x580>)
  4006b6:	4798      	blx	r3
  4006b8:	2800      	cmp	r0, #0
  4006ba:	f43f aea1 	beq.w	400400 <sd_mmc_check+0x50>
	switch (MMC_CSD_SPEC_VERS(sd_mmc_card->csd)) {
  4006be:	4b9b      	ldr	r3, [pc, #620]	; (40092c <sd_mmc_check+0x57c>)
  4006c0:	681a      	ldr	r2, [r3, #0]
	value = reg[((reg_size - pos + 7) / 8) - 1] >> (pos % 8);
  4006c2:	7c93      	ldrb	r3, [r2, #18]
	value &=  ((uint32_t)1 << size) - 1;
  4006c4:	f3c3 0383 	ubfx	r3, r3, #2, #4
  4006c8:	3b01      	subs	r3, #1
  4006ca:	2b03      	cmp	r3, #3
  4006cc:	d80c      	bhi.n	4006e8 <sd_mmc_check+0x338>
  4006ce:	e8df f013 	tbh	[pc, r3, lsl #1]
  4006d2:	00cd      	.short	0x00cd
  4006d4:	00d300d0 	.word	0x00d300d0
  4006d8:	00d6      	.short	0x00d6
				sd_mmc_card->type |= CARD_TYPE_HC;
  4006da:	4b94      	ldr	r3, [pc, #592]	; (40092c <sd_mmc_check+0x57c>)
  4006dc:	681a      	ldr	r2, [r3, #0]
  4006de:	7bd3      	ldrb	r3, [r2, #15]
  4006e0:	f043 0308 	orr.w	r3, r3, #8
  4006e4:	73d3      	strb	r3, [r2, #15]
  4006e6:	e7d0      	b.n	40068a <sd_mmc_check+0x2da>
		sd_mmc_card->version = CARD_VER_MMC_1_2;
  4006e8:	2312      	movs	r3, #18
  4006ea:	7413      	strb	r3, [r2, #16]
	value = reg[((reg_size - pos + 7) / 8) - 1] >> (pos % 8);
  4006ec:	7d53      	ldrb	r3, [r2, #21]
	mul = mmc_trans_multipliers[(tran_speed >> 3) & 0xF];
  4006ee:	f3c3 00c3 	ubfx	r0, r3, #3, #4
	unit = sd_mmc_trans_units[tran_speed & 0x7];
  4006f2:	f003 0307 	and.w	r3, r3, #7
	sd_mmc_card->clock = unit * mul * 1000;
  4006f6:	498f      	ldr	r1, [pc, #572]	; (400934 <sd_mmc_check+0x584>)
  4006f8:	f851 1023 	ldr.w	r1, [r1, r3, lsl #2]
  4006fc:	f44f 737a 	mov.w	r3, #1000	; 0x3e8
  400700:	fb03 f301 	mul.w	r3, r3, r1
  400704:	498c      	ldr	r1, [pc, #560]	; (400938 <sd_mmc_check+0x588>)
  400706:	f851 1020 	ldr.w	r1, [r1, r0, lsl #2]
  40070a:	fb03 f301 	mul.w	r3, r3, r1
  40070e:	6013      	str	r3, [r2, #0]
  400710:	7e91      	ldrb	r1, [r2, #26]
		value |= (uint32_t)reg[((reg_size - pos + 7) / 8) - 2] << (8 - (pos % 8));
  400712:	7e50      	ldrb	r0, [r2, #25]
		value |= (uint32_t)reg[((reg_size - pos + 7) / 8) - 3] << (16 - (pos % 8));
  400714:	7e13      	ldrb	r3, [r2, #24]
  400716:	029b      	lsls	r3, r3, #10
		value |= (uint32_t)reg[((reg_size - pos + 7) / 8) - 3] << (16 - (pos % 8));
  400718:	ea43 0380 	orr.w	r3, r3, r0, lsl #2
  40071c:	ea43 13a1 	orr.w	r3, r3, r1, asr #6
	value &=  ((uint32_t)1 << size) - 1;
  400720:	f3c3 030b 	ubfx	r3, r3, #0, #12
	if (MMC_CSD_C_SIZE(sd_mmc_card->csd) != 0xFFF) {
  400724:	f640 71ff 	movw	r1, #4095	; 0xfff
  400728:	428b      	cmp	r3, r1
  40072a:	d00f      	beq.n	40074c <sd_mmc_check+0x39c>
	value = reg[((reg_size - pos + 7) / 8) - 1] >> (pos % 8);
  40072c:	7f10      	ldrb	r0, [r2, #28]
		value |= (uint32_t)reg[((reg_size - pos + 7) / 8) - 2] << (8 - (pos % 8));
  40072e:	7ed1      	ldrb	r1, [r2, #27]
  400730:	0049      	lsls	r1, r1, #1
  400732:	ea41 11e0 	orr.w	r1, r1, r0, asr #7
		uint32_t blocknr = ((MMC_CSD_C_SIZE(sd_mmc_card->csd) + 1) *
  400736:	3301      	adds	r3, #1
	value &=  ((uint32_t)1 << size) - 1;
  400738:	f001 0107 	and.w	r1, r1, #7
			(1 << (MMC_CSD_C_SIZE_MULT(sd_mmc_card->csd) + 2)));
  40073c:	3102      	adds	r1, #2
		uint32_t blocknr = ((MMC_CSD_C_SIZE(sd_mmc_card->csd) + 1) *
  40073e:	408b      	lsls	r3, r1
  400740:	7dd1      	ldrb	r1, [r2, #23]
  400742:	f001 010f 	and.w	r1, r1, #15
		sd_mmc_card->capacity = blocknr *
  400746:	408b      	lsls	r3, r1
			(1 << MMC_CSD_READ_BL_LEN(sd_mmc_card->csd)) / 1024;
  400748:	0a9b      	lsrs	r3, r3, #10
		sd_mmc_card->capacity = blocknr *
  40074a:	6053      	str	r3, [r2, #4]
			(uint32_t)sd_mmc_card->rca << 16)) {
  40074c:	8991      	ldrh	r1, [r2, #12]
	if (!driver_send_cmd(SDMMC_CMD7_SELECT_CARD_CMD,
  40074e:	0409      	lsls	r1, r1, #16
  400750:	f243 1007 	movw	r0, #12551	; 0x3107
  400754:	4b74      	ldr	r3, [pc, #464]	; (400928 <sd_mmc_check+0x578>)
  400756:	4798      	blx	r3
  400758:	2800      	cmp	r0, #0
  40075a:	f43f ae51 	beq.w	400400 <sd_mmc_check+0x50>
	if (sd_mmc_card->version >= CARD_VER_MMC_4) {
  40075e:	4b73      	ldr	r3, [pc, #460]	; (40092c <sd_mmc_check+0x57c>)
  400760:	681b      	ldr	r3, [r3, #0]
  400762:	7c1b      	ldrb	r3, [r3, #16]
  400764:	2b3f      	cmp	r3, #63	; 0x3f
  400766:	f240 8097 	bls.w	400898 <sd_mmc_check+0x4e8>
	if (!driver_adtc_start(MMC_CMD8_SEND_EXT_CSD, 0,
  40076a:	2100      	movs	r1, #0
  40076c:	9100      	str	r1, [sp, #0]
  40076e:	2301      	movs	r3, #1
  400770:	f44f 7200 	mov.w	r2, #512	; 0x200
  400774:	4871      	ldr	r0, [pc, #452]	; (40093c <sd_mmc_check+0x58c>)
  400776:	4d72      	ldr	r5, [pc, #456]	; (400940 <sd_mmc_check+0x590>)
  400778:	47a8      	blx	r5
  40077a:	2800      	cmp	r0, #0
  40077c:	f43f ae40 	beq.w	400400 <sd_mmc_check+0x50>
  400780:	2500      	movs	r5, #0
		if (!driver_read_word(&ext_csd)) {
  400782:	4e70      	ldr	r6, [pc, #448]	; (400944 <sd_mmc_check+0x594>)
  400784:	a803      	add	r0, sp, #12
  400786:	47b0      	blx	r6
  400788:	2800      	cmp	r0, #0
  40078a:	f43f ae39 	beq.w	400400 <sd_mmc_check+0x50>
	for (i = 0; i < (EXT_CSD_CARD_TYPE_INDEX + 4) / 4; i++) {
  40078e:	3501      	adds	r5, #1
  400790:	b2ad      	uxth	r5, r5
  400792:	2d32      	cmp	r5, #50	; 0x32
  400794:	d1f6      	bne.n	400784 <sd_mmc_check+0x3d4>
			& MMC_CTYPE_52MHZ;
  400796:	9e03      	ldr	r6, [sp, #12]
  400798:	f006 0602 	and.w	r6, r6, #2
	if (MMC_CSD_C_SIZE(sd_mmc_card->csd) == 0xFFF) {
  40079c:	4b63      	ldr	r3, [pc, #396]	; (40092c <sd_mmc_check+0x57c>)
  40079e:	681b      	ldr	r3, [r3, #0]
	value = reg[((reg_size - pos + 7) / 8) - 1] >> (pos % 8);
  4007a0:	7e9a      	ldrb	r2, [r3, #26]
		value |= (uint32_t)reg[((reg_size - pos + 7) / 8) - 2] << (8 - (pos % 8));
  4007a2:	7e59      	ldrb	r1, [r3, #25]
		value |= (uint32_t)reg[((reg_size - pos + 7) / 8) - 3] << (16 - (pos % 8));
  4007a4:	7e1b      	ldrb	r3, [r3, #24]
  4007a6:	029b      	lsls	r3, r3, #10
		value |= (uint32_t)reg[((reg_size - pos + 7) / 8) - 3] << (16 - (pos % 8));
  4007a8:	ea43 0381 	orr.w	r3, r3, r1, lsl #2
  4007ac:	ea43 13a2 	orr.w	r3, r3, r2, asr #6
	value &=  ((uint32_t)1 << size) - 1;
  4007b0:	f3c3 030b 	ubfx	r3, r3, #0, #12
  4007b4:	f640 72ff 	movw	r2, #4095	; 0xfff
  4007b8:	4293      	cmp	r3, r2
  4007ba:	d10e      	bne.n	4007da <sd_mmc_check+0x42a>
			if (!driver_read_word(&sec_count)) {
  4007bc:	4f61      	ldr	r7, [pc, #388]	; (400944 <sd_mmc_check+0x594>)
  4007be:	a804      	add	r0, sp, #16
  4007c0:	47b8      	blx	r7
  4007c2:	2800      	cmp	r0, #0
  4007c4:	f43f ae1c 	beq.w	400400 <sd_mmc_check+0x50>
		for (; i <(EXT_CSD_SEC_COUNT_INDEX + 4) / 4; i++) {
  4007c8:	3501      	adds	r5, #1
  4007ca:	b2ad      	uxth	r5, r5
  4007cc:	2d35      	cmp	r5, #53	; 0x35
  4007ce:	d9f6      	bls.n	4007be <sd_mmc_check+0x40e>
		sd_mmc_card->capacity = sec_count / 2;
  4007d0:	4b56      	ldr	r3, [pc, #344]	; (40092c <sd_mmc_check+0x57c>)
  4007d2:	681a      	ldr	r2, [r3, #0]
  4007d4:	9b04      	ldr	r3, [sp, #16]
  4007d6:	085b      	lsrs	r3, r3, #1
  4007d8:	6053      	str	r3, [r2, #4]
		if (!driver_read_word(&sec_count)) {
  4007da:	4f5a      	ldr	r7, [pc, #360]	; (400944 <sd_mmc_check+0x594>)
	for (; i < EXT_CSD_BSIZE / 4; i++) {
  4007dc:	2d7f      	cmp	r5, #127	; 0x7f
  4007de:	d951      	bls.n	400884 <sd_mmc_check+0x4d4>
		if (4 <= driver_get_bus_width(sd_mmc_slot_sel)) {
  4007e0:	4b59      	ldr	r3, [pc, #356]	; (400948 <sd_mmc_check+0x598>)
  4007e2:	7818      	ldrb	r0, [r3, #0]
  4007e4:	4b59      	ldr	r3, [pc, #356]	; (40094c <sd_mmc_check+0x59c>)
  4007e6:	4798      	blx	r3
  4007e8:	2803      	cmp	r0, #3
  4007ea:	d91d      	bls.n	400828 <sd_mmc_check+0x478>
			if (!mmc_cmd6_set_bus_width(driver_get_bus_width(sd_mmc_slot_sel))) {
  4007ec:	4b56      	ldr	r3, [pc, #344]	; (400948 <sd_mmc_check+0x598>)
  4007ee:	7818      	ldrb	r0, [r3, #0]
  4007f0:	4b56      	ldr	r3, [pc, #344]	; (40094c <sd_mmc_check+0x59c>)
  4007f2:	4798      	blx	r3
  4007f4:	4605      	mov	r5, r0
	switch (bus_width) {
  4007f6:	2804      	cmp	r0, #4
  4007f8:	d04c      	beq.n	400894 <sd_mmc_check+0x4e4>
		arg = MMC_CMD6_ACCESS_SET_BITS
  4007fa:	4b55      	ldr	r3, [pc, #340]	; (400950 <sd_mmc_check+0x5a0>)
  4007fc:	4955      	ldr	r1, [pc, #340]	; (400954 <sd_mmc_check+0x5a4>)
  4007fe:	2808      	cmp	r0, #8
  400800:	bf18      	it	ne
  400802:	4619      	movne	r1, r3
	if (!driver_send_cmd(MMC_CMD6_SWITCH, arg)) {
  400804:	f243 1006 	movw	r0, #12550	; 0x3106
  400808:	4b47      	ldr	r3, [pc, #284]	; (400928 <sd_mmc_check+0x578>)
  40080a:	4798      	blx	r3
  40080c:	2800      	cmp	r0, #0
  40080e:	f43f adf7 	beq.w	400400 <sd_mmc_check+0x50>
	if (driver_get_response() & CARD_STATUS_SWITCH_ERROR) {
  400812:	4b51      	ldr	r3, [pc, #324]	; (400958 <sd_mmc_check+0x5a8>)
  400814:	4798      	blx	r3
  400816:	f010 0f80 	tst.w	r0, #128	; 0x80
  40081a:	f47f adf1 	bne.w	400400 <sd_mmc_check+0x50>
	sd_mmc_card->bus_width = bus_width;
  40081e:	4b43      	ldr	r3, [pc, #268]	; (40092c <sd_mmc_check+0x57c>)
  400820:	681b      	ldr	r3, [r3, #0]
  400822:	745d      	strb	r5, [r3, #17]
			sd_mmc_configure_slot();
  400824:	4b4d      	ldr	r3, [pc, #308]	; (40095c <sd_mmc_check+0x5ac>)
  400826:	4798      	blx	r3
		if (driver_is_high_speed_capable() && b_authorize_high_speed) {
  400828:	4b4d      	ldr	r3, [pc, #308]	; (400960 <sd_mmc_check+0x5b0>)
  40082a:	4798      	blx	r3
  40082c:	b1be      	cbz	r6, 40085e <sd_mmc_check+0x4ae>
  40082e:	b1b0      	cbz	r0, 40085e <sd_mmc_check+0x4ae>
	if (!driver_send_cmd(MMC_CMD6_SWITCH,
  400830:	494c      	ldr	r1, [pc, #304]	; (400964 <sd_mmc_check+0x5b4>)
  400832:	f243 1006 	movw	r0, #12550	; 0x3106
  400836:	4b3c      	ldr	r3, [pc, #240]	; (400928 <sd_mmc_check+0x578>)
  400838:	4798      	blx	r3
  40083a:	2800      	cmp	r0, #0
  40083c:	f43f ade0 	beq.w	400400 <sd_mmc_check+0x50>
	if (driver_get_response() & CARD_STATUS_SWITCH_ERROR) {
  400840:	4b45      	ldr	r3, [pc, #276]	; (400958 <sd_mmc_check+0x5a8>)
  400842:	4798      	blx	r3
  400844:	f010 0f80 	tst.w	r0, #128	; 0x80
  400848:	f47f adda 	bne.w	400400 <sd_mmc_check+0x50>
	sd_mmc_card->high_speed = 1;
  40084c:	4b37      	ldr	r3, [pc, #220]	; (40092c <sd_mmc_check+0x57c>)
  40084e:	681b      	ldr	r3, [r3, #0]
  400850:	2201      	movs	r2, #1
  400852:	f883 2022 	strb.w	r2, [r3, #34]	; 0x22
	sd_mmc_card->clock = 52000000lu;
  400856:	4a44      	ldr	r2, [pc, #272]	; (400968 <sd_mmc_check+0x5b8>)
  400858:	601a      	str	r2, [r3, #0]
			sd_mmc_configure_slot();
  40085a:	4b40      	ldr	r3, [pc, #256]	; (40095c <sd_mmc_check+0x5ac>)
  40085c:	4798      	blx	r3
		arg = MMC_CMD6_ACCESS_SET_BITS
  40085e:	250a      	movs	r5, #10
		if (driver_send_cmd(SDMMC_CMD16_SET_BLOCKLEN, SD_MMC_BLOCK_SIZE)) {
  400860:	f44f 7800 	mov.w	r8, #512	; 0x200
  400864:	f241 1710 	movw	r7, #4368	; 0x1110
  400868:	4e2f      	ldr	r6, [pc, #188]	; (400928 <sd_mmc_check+0x578>)
  40086a:	e01d      	b.n	4008a8 <sd_mmc_check+0x4f8>
		sd_mmc_card->version = CARD_VER_MMC_1_4;
  40086c:	2314      	movs	r3, #20
  40086e:	7413      	strb	r3, [r2, #16]
  400870:	e73c      	b.n	4006ec <sd_mmc_check+0x33c>
		sd_mmc_card->version = CARD_VER_MMC_2_2;
  400872:	2322      	movs	r3, #34	; 0x22
  400874:	7413      	strb	r3, [r2, #16]
  400876:	e739      	b.n	4006ec <sd_mmc_check+0x33c>
		sd_mmc_card->version = CARD_VER_MMC_3;
  400878:	2330      	movs	r3, #48	; 0x30
  40087a:	7413      	strb	r3, [r2, #16]
  40087c:	e736      	b.n	4006ec <sd_mmc_check+0x33c>
		sd_mmc_card->version = CARD_VER_MMC_4;
  40087e:	2340      	movs	r3, #64	; 0x40
  400880:	7413      	strb	r3, [r2, #16]
  400882:	e733      	b.n	4006ec <sd_mmc_check+0x33c>
		if (!driver_read_word(&sec_count)) {
  400884:	a804      	add	r0, sp, #16
  400886:	47b8      	blx	r7
  400888:	2800      	cmp	r0, #0
  40088a:	f43f adb9 	beq.w	400400 <sd_mmc_check+0x50>
	for (; i < EXT_CSD_BSIZE / 4; i++) {
  40088e:	3501      	adds	r5, #1
  400890:	b2ad      	uxth	r5, r5
  400892:	e7a3      	b.n	4007dc <sd_mmc_check+0x42c>
		arg = MMC_CMD6_ACCESS_SET_BITS
  400894:	4935      	ldr	r1, [pc, #212]	; (40096c <sd_mmc_check+0x5bc>)
  400896:	e7b5      	b.n	400804 <sd_mmc_check+0x454>
		sd_mmc_configure_slot();
  400898:	4b30      	ldr	r3, [pc, #192]	; (40095c <sd_mmc_check+0x5ac>)
  40089a:	4798      	blx	r3
  40089c:	e7df      	b.n	40085e <sd_mmc_check+0x4ae>
  40089e:	3d01      	subs	r5, #1
	while (retry--) {
  4008a0:	f015 05ff 	ands.w	r5, r5, #255	; 0xff
  4008a4:	f43f adac 	beq.w	400400 <sd_mmc_check+0x50>
		if (driver_send_cmd(SDMMC_CMD16_SET_BLOCKLEN, SD_MMC_BLOCK_SIZE)) {
  4008a8:	4641      	mov	r1, r8
  4008aa:	4638      	mov	r0, r7
  4008ac:	47b0      	blx	r6
  4008ae:	2800      	cmp	r0, #0
  4008b0:	d0f5      	beq.n	40089e <sd_mmc_check+0x4ee>
  4008b2:	e10e      	b.n	400ad2 <sd_mmc_check+0x722>
	value = reg[((reg_size - pos + 7) / 8) - 1] >> (pos % 8);
  4008b4:	7ed9      	ldrb	r1, [r3, #27]
		value |= (uint32_t)reg[((reg_size - pos + 7) / 8) - 2] << (8 - (pos % 8));
  4008b6:	7e98      	ldrb	r0, [r3, #26]
		value |= (uint32_t)reg[((reg_size - pos + 7) / 8) - 3] << (16 - (pos % 8));
  4008b8:	7e5a      	ldrb	r2, [r3, #25]
  4008ba:	0412      	lsls	r2, r2, #16
		value |= (uint32_t)reg[((reg_size - pos + 7) / 8) - 3] << (16 - (pos % 8));
  4008bc:	ea42 2200 	orr.w	r2, r2, r0, lsl #8
  4008c0:	430a      	orrs	r2, r1
	value &=  ((uint32_t)1 << size) - 1;
  4008c2:	f3c2 0215 	ubfx	r2, r2, #0, #22
				* 512;
  4008c6:	3201      	adds	r2, #1
  4008c8:	0252      	lsls	r2, r2, #9
		sd_mmc_card->capacity =
  4008ca:	605a      	str	r2, [r3, #4]
  4008cc:	e600      	b.n	4004d0 <sd_mmc_check+0x120>
	if (!driver_send_cmd(SDMMC_CMD55_APP_CMD, (uint32_t)sd_mmc_card->rca << 16)) {
  4008ce:	8999      	ldrh	r1, [r3, #12]
  4008d0:	0409      	lsls	r1, r1, #16
  4008d2:	f241 1037 	movw	r0, #4407	; 0x1137
  4008d6:	4b14      	ldr	r3, [pc, #80]	; (400928 <sd_mmc_check+0x578>)
  4008d8:	4798      	blx	r3
  4008da:	2800      	cmp	r0, #0
  4008dc:	f43f ad90 	beq.w	400400 <sd_mmc_check+0x50>
	if (!driver_adtc_start(SD_ACMD51_SEND_SCR, 0,
  4008e0:	2301      	movs	r3, #1
  4008e2:	9300      	str	r3, [sp, #0]
  4008e4:	2208      	movs	r2, #8
  4008e6:	2100      	movs	r1, #0
  4008e8:	4821      	ldr	r0, [pc, #132]	; (400970 <sd_mmc_check+0x5c0>)
  4008ea:	4d15      	ldr	r5, [pc, #84]	; (400940 <sd_mmc_check+0x590>)
  4008ec:	47a8      	blx	r5
  4008ee:	2800      	cmp	r0, #0
  4008f0:	f43f ad86 	beq.w	400400 <sd_mmc_check+0x50>
	if (!driver_start_read_blocks(scr, 1)) {
  4008f4:	2101      	movs	r1, #1
  4008f6:	a804      	add	r0, sp, #16
  4008f8:	4b1e      	ldr	r3, [pc, #120]	; (400974 <sd_mmc_check+0x5c4>)
  4008fa:	4798      	blx	r3
  4008fc:	2800      	cmp	r0, #0
  4008fe:	f43f ad7f 	beq.w	400400 <sd_mmc_check+0x50>
	if (!driver_wait_end_of_read_blocks()) {
  400902:	4b1d      	ldr	r3, [pc, #116]	; (400978 <sd_mmc_check+0x5c8>)
  400904:	4798      	blx	r3
  400906:	2800      	cmp	r0, #0
  400908:	f43f ad7a 	beq.w	400400 <sd_mmc_check+0x50>
	switch (SD_SCR_SD_SPEC(scr)) {
  40090c:	f89d 3010 	ldrb.w	r3, [sp, #16]
  400910:	f003 030f 	and.w	r3, r3, #15
  400914:	2b01      	cmp	r3, #1
  400916:	d036      	beq.n	400986 <sd_mmc_check+0x5d6>
  400918:	b383      	cbz	r3, 40097c <sd_mmc_check+0x5cc>
  40091a:	2b02      	cmp	r3, #2
  40091c:	d038      	beq.n	400990 <sd_mmc_check+0x5e0>
		sd_mmc_card->version = CARD_VER_SD_1_0;
  40091e:	4b03      	ldr	r3, [pc, #12]	; (40092c <sd_mmc_check+0x57c>)
  400920:	681b      	ldr	r3, [r3, #0]
  400922:	2210      	movs	r2, #16
  400924:	741a      	strb	r2, [r3, #16]
  400926:	e5e4      	b.n	4004f2 <sd_mmc_check+0x142>
  400928:	004018e1 	.word	0x004018e1
  40092c:	20400a04 	.word	0x20400a04
  400930:	00400335 	.word	0x00400335
  400934:	00409844 	.word	0x00409844
  400938:	00409804 	.word	0x00409804
  40093c:	00081108 	.word	0x00081108
  400940:	0040193d 	.word	0x0040193d
  400944:	00401a05 	.word	0x00401a05
  400948:	20400a0d 	.word	0x20400a0d
  40094c:	004017e9 	.word	0x004017e9
  400950:	01b70000 	.word	0x01b70000
  400954:	01b70200 	.word	0x01b70200
  400958:	00401905 	.word	0x00401905
  40095c:	004001d5 	.word	0x004001d5
  400960:	004017f3 	.word	0x004017f3
  400964:	03b90100 	.word	0x03b90100
  400968:	03197500 	.word	0x03197500
  40096c:	01b70100 	.word	0x01b70100
  400970:	00081133 	.word	0x00081133
  400974:	00401a79 	.word	0x00401a79
  400978:	00401b71 	.word	0x00401b71
		sd_mmc_card->version = CARD_VER_SD_1_0;
  40097c:	4b9b      	ldr	r3, [pc, #620]	; (400bec <sd_mmc_check+0x83c>)
  40097e:	681b      	ldr	r3, [r3, #0]
  400980:	2210      	movs	r2, #16
  400982:	741a      	strb	r2, [r3, #16]
  400984:	e5b5      	b.n	4004f2 <sd_mmc_check+0x142>
		sd_mmc_card->version = CARD_VER_SD_1_10;
  400986:	4b99      	ldr	r3, [pc, #612]	; (400bec <sd_mmc_check+0x83c>)
  400988:	681b      	ldr	r3, [r3, #0]
  40098a:	221a      	movs	r2, #26
  40098c:	741a      	strb	r2, [r3, #16]
  40098e:	e5b0      	b.n	4004f2 <sd_mmc_check+0x142>
		if (SD_SCR_SD_SPEC3(scr) == SD_SCR_SD_SPEC_3_00) {
  400990:	f89d 3012 	ldrb.w	r3, [sp, #18]
  400994:	09db      	lsrs	r3, r3, #7
			sd_mmc_card->version = CARD_VER_SD_3_0;
  400996:	4b95      	ldr	r3, [pc, #596]	; (400bec <sd_mmc_check+0x83c>)
  400998:	681b      	ldr	r3, [r3, #0]
  40099a:	bf14      	ite	ne
  40099c:	2230      	movne	r2, #48	; 0x30
			sd_mmc_card->version = CARD_VER_SD_2_0;
  40099e:	2220      	moveq	r2, #32
  4009a0:	741a      	strb	r2, [r3, #16]
  4009a2:	e5a6      	b.n	4004f2 <sd_mmc_check+0x142>
		if (buf[1] == 0) {
  4009a4:	f89d 3011 	ldrb.w	r3, [sp, #17]
  4009a8:	2b00      	cmp	r3, #0
  4009aa:	f43f ad29 	beq.w	400400 <sd_mmc_check+0x50>
		addr_new += buf[1]-1;
  4009ae:	3302      	adds	r3, #2
  4009b0:	441e      	add	r6, r3
		if (addr_new > (addr_old + 256)) {
  4009b2:	f509 7380 	add.w	r3, r9, #256	; 0x100
  4009b6:	429e      	cmp	r6, r3
  4009b8:	f63f ad22 	bhi.w	400400 <sd_mmc_check+0x50>
	addr_new = addr_old;
  4009bc:	2500      	movs	r5, #0
			sdio_cmd52(SDIO_CMD52_READ_FLAG, SDIO_CIA, addr_new, 0, &buf[i]);
  4009be:	ab04      	add	r3, sp, #16
  4009c0:	442b      	add	r3, r5
  4009c2:	9300      	str	r3, [sp, #0]
  4009c4:	4643      	mov	r3, r8
  4009c6:	1972      	adds	r2, r6, r5
  4009c8:	4641      	mov	r1, r8
  4009ca:	4640      	mov	r0, r8
  4009cc:	47b8      	blx	r7
  4009ce:	3501      	adds	r5, #1
		for(i=0; i<3; i++) {
  4009d0:	2d03      	cmp	r5, #3
  4009d2:	d1f4      	bne.n	4009be <sd_mmc_check+0x60e>
		if (buf[0] == SDIO_CISTPL_END) {
  4009d4:	f89d 3010 	ldrb.w	r3, [sp, #16]
  4009d8:	2bff      	cmp	r3, #255	; 0xff
  4009da:	f43f ad11 	beq.w	400400 <sd_mmc_check+0x50>
		if (buf[0] == SDIO_CISTPL_FUNCE && buf[2] == 0x00) {
  4009de:	2b22      	cmp	r3, #34	; 0x22
  4009e0:	d1e0      	bne.n	4009a4 <sd_mmc_check+0x5f4>
  4009e2:	f89d 3012 	ldrb.w	r3, [sp, #18]
  4009e6:	2b00      	cmp	r3, #0
  4009e8:	d1dc      	bne.n	4009a4 <sd_mmc_check+0x5f4>
  4009ea:	ad04      	add	r5, sp, #16
  4009ec:	f106 0906 	add.w	r9, r6, #6
		sdio_cmd52(SDIO_CMD52_READ_FLAG, SDIO_CIA, addr_new, 0, &buf[i]);
  4009f0:	f04f 0800 	mov.w	r8, #0
  4009f4:	4f7e      	ldr	r7, [pc, #504]	; (400bf0 <sd_mmc_check+0x840>)
  4009f6:	9500      	str	r5, [sp, #0]
  4009f8:	4643      	mov	r3, r8
  4009fa:	4632      	mov	r2, r6
  4009fc:	4641      	mov	r1, r8
  4009fe:	4640      	mov	r0, r8
  400a00:	47b8      	blx	r7
		addr_new++;
  400a02:	3601      	adds	r6, #1
  400a04:	3501      	adds	r5, #1
	for(i = 0; i < 6; i++) {
  400a06:	454e      	cmp	r6, r9
  400a08:	d1f5      	bne.n	4009f6 <sd_mmc_check+0x646>
	tplfe_max_tran_speed = buf[5];
  400a0a:	f89d 3015 	ldrb.w	r3, [sp, #21]
  400a0e:	2b32      	cmp	r3, #50	; 0x32
  400a10:	bf28      	it	cs
  400a12:	2332      	movcs	r3, #50	; 0x32
	sd_mmc_card->clock = unit * mul * 1000;
  400a14:	4a75      	ldr	r2, [pc, #468]	; (400bec <sd_mmc_check+0x83c>)
  400a16:	6812      	ldr	r2, [r2, #0]
	mul = sd_trans_multipliers[(tplfe_max_tran_speed >> 3) & 0xF];
  400a18:	f3c3 00c3 	ubfx	r0, r3, #3, #4
	unit = sd_mmc_trans_units[tplfe_max_tran_speed & 0x7];
  400a1c:	f003 0307 	and.w	r3, r3, #7
	sd_mmc_card->clock = unit * mul * 1000;
  400a20:	4974      	ldr	r1, [pc, #464]	; (400bf4 <sd_mmc_check+0x844>)
  400a22:	f851 1023 	ldr.w	r1, [r1, r3, lsl #2]
  400a26:	f44f 737a 	mov.w	r3, #1000	; 0x3e8
  400a2a:	fb03 f301 	mul.w	r3, r3, r1
  400a2e:	4972      	ldr	r1, [pc, #456]	; (400bf8 <sd_mmc_check+0x848>)
  400a30:	f851 1020 	ldr.w	r1, [r1, r0, lsl #2]
  400a34:	fb03 f301 	mul.w	r3, r3, r1
  400a38:	6013      	str	r3, [r2, #0]
	if ((4 <= driver_get_bus_width(sd_mmc_slot_sel))) {
  400a3a:	4b70      	ldr	r3, [pc, #448]	; (400bfc <sd_mmc_check+0x84c>)
  400a3c:	7818      	ldrb	r0, [r3, #0]
  400a3e:	4b70      	ldr	r3, [pc, #448]	; (400c00 <sd_mmc_check+0x850>)
  400a40:	4798      	blx	r3
  400a42:	2803      	cmp	r0, #3
  400a44:	d922      	bls.n	400a8c <sd_mmc_check+0x6dc>
		if (IS_SDIO()) {
  400a46:	4b69      	ldr	r3, [pc, #420]	; (400bec <sd_mmc_check+0x83c>)
  400a48:	681b      	ldr	r3, [r3, #0]
  400a4a:	7bdb      	ldrb	r3, [r3, #15]
  400a4c:	f013 0f04 	tst.w	r3, #4
  400a50:	d146      	bne.n	400ae0 <sd_mmc_check+0x730>
		if (sd_mmc_card->type & CARD_TYPE_SD) {
  400a52:	4b66      	ldr	r3, [pc, #408]	; (400bec <sd_mmc_check+0x83c>)
  400a54:	681b      	ldr	r3, [r3, #0]
  400a56:	7bda      	ldrb	r2, [r3, #15]
  400a58:	f012 0f01 	tst.w	r2, #1
  400a5c:	d014      	beq.n	400a88 <sd_mmc_check+0x6d8>
	if (!driver_send_cmd(SDMMC_CMD55_APP_CMD, (uint32_t)sd_mmc_card->rca << 16)) {
  400a5e:	8999      	ldrh	r1, [r3, #12]
  400a60:	0409      	lsls	r1, r1, #16
  400a62:	f241 1037 	movw	r0, #4407	; 0x1137
  400a66:	4b67      	ldr	r3, [pc, #412]	; (400c04 <sd_mmc_check+0x854>)
  400a68:	4798      	blx	r3
  400a6a:	2800      	cmp	r0, #0
  400a6c:	f43f acc8 	beq.w	400400 <sd_mmc_check+0x50>
	if (!driver_send_cmd(SD_ACMD6_SET_BUS_WIDTH, 0x2)) {
  400a70:	2102      	movs	r1, #2
  400a72:	f241 1006 	movw	r0, #4358	; 0x1106
  400a76:	4b63      	ldr	r3, [pc, #396]	; (400c04 <sd_mmc_check+0x854>)
  400a78:	4798      	blx	r3
  400a7a:	2800      	cmp	r0, #0
  400a7c:	f43f acc0 	beq.w	400400 <sd_mmc_check+0x50>
	sd_mmc_card->bus_width = 4;
  400a80:	4b5a      	ldr	r3, [pc, #360]	; (400bec <sd_mmc_check+0x83c>)
  400a82:	681b      	ldr	r3, [r3, #0]
  400a84:	2204      	movs	r2, #4
  400a86:	745a      	strb	r2, [r3, #17]
		sd_mmc_configure_slot();
  400a88:	4b5f      	ldr	r3, [pc, #380]	; (400c08 <sd_mmc_check+0x858>)
  400a8a:	4798      	blx	r3
	if (driver_is_high_speed_capable()) {
  400a8c:	4b5f      	ldr	r3, [pc, #380]	; (400c0c <sd_mmc_check+0x85c>)
  400a8e:	4798      	blx	r3
  400a90:	b180      	cbz	r0, 400ab4 <sd_mmc_check+0x704>
		if (IS_SDIO()) {
  400a92:	4b56      	ldr	r3, [pc, #344]	; (400bec <sd_mmc_check+0x83c>)
  400a94:	681b      	ldr	r3, [r3, #0]
  400a96:	7bdb      	ldrb	r3, [r3, #15]
  400a98:	f013 0f04 	tst.w	r3, #4
  400a9c:	d141      	bne.n	400b22 <sd_mmc_check+0x772>
		if (sd_mmc_card->type & CARD_TYPE_SD) {
  400a9e:	4b53      	ldr	r3, [pc, #332]	; (400bec <sd_mmc_check+0x83c>)
  400aa0:	681b      	ldr	r3, [r3, #0]
  400aa2:	7bda      	ldrb	r2, [r3, #15]
  400aa4:	f012 0f01 	tst.w	r2, #1
  400aa8:	d002      	beq.n	400ab0 <sd_mmc_check+0x700>
			if (sd_mmc_card->version > CARD_VER_SD_1_0) {
  400aaa:	7c1b      	ldrb	r3, [r3, #16]
  400aac:	2b10      	cmp	r3, #16
  400aae:	d85e      	bhi.n	400b6e <sd_mmc_check+0x7be>
		sd_mmc_configure_slot();
  400ab0:	4b55      	ldr	r3, [pc, #340]	; (400c08 <sd_mmc_check+0x858>)
  400ab2:	4798      	blx	r3
	if (sd_mmc_card->type & CARD_TYPE_SD) {
  400ab4:	4b4d      	ldr	r3, [pc, #308]	; (400bec <sd_mmc_check+0x83c>)
  400ab6:	681b      	ldr	r3, [r3, #0]
  400ab8:	7bdb      	ldrb	r3, [r3, #15]
  400aba:	f013 0f01 	tst.w	r3, #1
  400abe:	d008      	beq.n	400ad2 <sd_mmc_check+0x722>
		if (!driver_send_cmd(SDMMC_CMD16_SET_BLOCKLEN, SD_MMC_BLOCK_SIZE)) {
  400ac0:	f44f 7100 	mov.w	r1, #512	; 0x200
  400ac4:	f241 1010 	movw	r0, #4368	; 0x1110
  400ac8:	4b4e      	ldr	r3, [pc, #312]	; (400c04 <sd_mmc_check+0x854>)
  400aca:	4798      	blx	r3
	if (sd_mmc_is_spi()? sd_mmc_spi_card_init()
  400acc:	2800      	cmp	r0, #0
  400ace:	f43f ac97 	beq.w	400400 <sd_mmc_check+0x50>
		sd_mmc_card->state = SD_MMC_CARD_STATE_READY;
  400ad2:	4b46      	ldr	r3, [pc, #280]	; (400bec <sd_mmc_check+0x83c>)
  400ad4:	681b      	ldr	r3, [r3, #0]
  400ad6:	2200      	movs	r2, #0
  400ad8:	739a      	strb	r2, [r3, #14]
		sd_mmc_deselect_slot();
  400ada:	4b4d      	ldr	r3, [pc, #308]	; (400c10 <sd_mmc_check+0x860>)
  400adc:	4798      	blx	r3
		return SD_MMC_INIT_ONGOING;
  400ade:	e471      	b.n	4003c4 <sd_mmc_check+0x14>
	if (!sdio_cmd52(SDIO_CMD52_READ_FLAG, SDIO_CIA, SDIO_CCCR_CAP,
  400ae0:	ab04      	add	r3, sp, #16
  400ae2:	9300      	str	r3, [sp, #0]
  400ae4:	2300      	movs	r3, #0
  400ae6:	2208      	movs	r2, #8
  400ae8:	4619      	mov	r1, r3
  400aea:	4618      	mov	r0, r3
  400aec:	4d40      	ldr	r5, [pc, #256]	; (400bf0 <sd_mmc_check+0x840>)
  400aee:	47a8      	blx	r5
  400af0:	2800      	cmp	r0, #0
  400af2:	f43f ac85 	beq.w	400400 <sd_mmc_check+0x50>
	if ((u8_value & SDIO_CAP_4BLS) != SDIO_CAP_4BLS) {
  400af6:	f99d 3010 	ldrsb.w	r3, [sp, #16]
  400afa:	2b00      	cmp	r3, #0
  400afc:	daa9      	bge.n	400a52 <sd_mmc_check+0x6a2>
	u8_value = SDIO_BUSWIDTH_4B;
  400afe:	ab14      	add	r3, sp, #80	; 0x50
  400b00:	2202      	movs	r2, #2
  400b02:	f803 2d40 	strb.w	r2, [r3, #-64]!
	if (!sdio_cmd52(SDIO_CMD52_WRITE_FLAG, SDIO_CIA, SDIO_CCCR_BUS_CTRL,
  400b06:	9300      	str	r3, [sp, #0]
  400b08:	2301      	movs	r3, #1
  400b0a:	2207      	movs	r2, #7
  400b0c:	2100      	movs	r1, #0
  400b0e:	4618      	mov	r0, r3
  400b10:	47a8      	blx	r5
  400b12:	2800      	cmp	r0, #0
  400b14:	f43f ac74 	beq.w	400400 <sd_mmc_check+0x50>
	sd_mmc_card->bus_width = 4;
  400b18:	4b34      	ldr	r3, [pc, #208]	; (400bec <sd_mmc_check+0x83c>)
  400b1a:	681b      	ldr	r3, [r3, #0]
  400b1c:	2204      	movs	r2, #4
  400b1e:	745a      	strb	r2, [r3, #17]
  400b20:	e797      	b.n	400a52 <sd_mmc_check+0x6a2>
	if (!sdio_cmd52(SDIO_CMD52_READ_FLAG, SDIO_CIA, SDIO_CCCR_HS, 0, &u8_value)) {
  400b22:	ab04      	add	r3, sp, #16
  400b24:	9300      	str	r3, [sp, #0]
  400b26:	2300      	movs	r3, #0
  400b28:	2213      	movs	r2, #19
  400b2a:	4619      	mov	r1, r3
  400b2c:	4618      	mov	r0, r3
  400b2e:	4d30      	ldr	r5, [pc, #192]	; (400bf0 <sd_mmc_check+0x840>)
  400b30:	47a8      	blx	r5
  400b32:	2800      	cmp	r0, #0
  400b34:	f43f ac64 	beq.w	400400 <sd_mmc_check+0x50>
	if ((u8_value & SDIO_SHS) != SDIO_SHS) {
  400b38:	f89d 3010 	ldrb.w	r3, [sp, #16]
  400b3c:	f013 0f01 	tst.w	r3, #1
  400b40:	d0ad      	beq.n	400a9e <sd_mmc_check+0x6ee>
	u8_value = SDIO_EHS;
  400b42:	ab14      	add	r3, sp, #80	; 0x50
  400b44:	2202      	movs	r2, #2
  400b46:	f803 2d40 	strb.w	r2, [r3, #-64]!
	if (!sdio_cmd52(SDIO_CMD52_WRITE_FLAG, SDIO_CIA, SDIO_CCCR_HS,
  400b4a:	9300      	str	r3, [sp, #0]
  400b4c:	2301      	movs	r3, #1
  400b4e:	2213      	movs	r2, #19
  400b50:	2100      	movs	r1, #0
  400b52:	4618      	mov	r0, r3
  400b54:	47a8      	blx	r5
  400b56:	2800      	cmp	r0, #0
  400b58:	f43f ac52 	beq.w	400400 <sd_mmc_check+0x50>
	sd_mmc_card->high_speed = 1;
  400b5c:	4b23      	ldr	r3, [pc, #140]	; (400bec <sd_mmc_check+0x83c>)
  400b5e:	681b      	ldr	r3, [r3, #0]
  400b60:	2201      	movs	r2, #1
  400b62:	f883 2022 	strb.w	r2, [r3, #34]	; 0x22
	sd_mmc_card->clock *= 2;
  400b66:	681a      	ldr	r2, [r3, #0]
  400b68:	0052      	lsls	r2, r2, #1
  400b6a:	601a      	str	r2, [r3, #0]
  400b6c:	e797      	b.n	400a9e <sd_mmc_check+0x6ee>
	uint8_t switch_status[SD_SW_STATUS_BSIZE] = {0};
  400b6e:	2540      	movs	r5, #64	; 0x40
  400b70:	462a      	mov	r2, r5
  400b72:	2100      	movs	r1, #0
  400b74:	a804      	add	r0, sp, #16
  400b76:	4b27      	ldr	r3, [pc, #156]	; (400c14 <sd_mmc_check+0x864>)
  400b78:	4798      	blx	r3
	if (!driver_adtc_start(SD_CMD6_SWITCH_FUNC,
  400b7a:	2301      	movs	r3, #1
  400b7c:	9300      	str	r3, [sp, #0]
  400b7e:	462a      	mov	r2, r5
  400b80:	4925      	ldr	r1, [pc, #148]	; (400c18 <sd_mmc_check+0x868>)
  400b82:	4826      	ldr	r0, [pc, #152]	; (400c1c <sd_mmc_check+0x86c>)
  400b84:	4d26      	ldr	r5, [pc, #152]	; (400c20 <sd_mmc_check+0x870>)
  400b86:	47a8      	blx	r5
  400b88:	2800      	cmp	r0, #0
  400b8a:	f43f ac39 	beq.w	400400 <sd_mmc_check+0x50>
	if (!driver_start_read_blocks(switch_status, 1)) {
  400b8e:	2101      	movs	r1, #1
  400b90:	a804      	add	r0, sp, #16
  400b92:	4b24      	ldr	r3, [pc, #144]	; (400c24 <sd_mmc_check+0x874>)
  400b94:	4798      	blx	r3
  400b96:	2800      	cmp	r0, #0
  400b98:	f43f ac32 	beq.w	400400 <sd_mmc_check+0x50>
	if (!driver_wait_end_of_read_blocks()) {
  400b9c:	4b22      	ldr	r3, [pc, #136]	; (400c28 <sd_mmc_check+0x878>)
  400b9e:	4798      	blx	r3
  400ba0:	2800      	cmp	r0, #0
  400ba2:	f43f ac2d 	beq.w	400400 <sd_mmc_check+0x50>
	if (driver_get_response() & CARD_STATUS_SWITCH_ERROR) {
  400ba6:	4b21      	ldr	r3, [pc, #132]	; (400c2c <sd_mmc_check+0x87c>)
  400ba8:	4798      	blx	r3
  400baa:	f010 0f80 	tst.w	r0, #128	; 0x80
  400bae:	f47f ac27 	bne.w	400400 <sd_mmc_check+0x50>
	if (SD_SW_STATUS_FUN_GRP1_RC(switch_status)
  400bb2:	f89d 3020 	ldrb.w	r3, [sp, #32]
  400bb6:	f003 030f 	and.w	r3, r3, #15
  400bba:	2b0f      	cmp	r3, #15
  400bbc:	f43f af78 	beq.w	400ab0 <sd_mmc_check+0x700>
	value = reg[((reg_size - pos + 7) / 8) - 1] >> (pos % 8);
  400bc0:	f89d 302d 	ldrb.w	r3, [sp, #45]	; 0x2d
		value |= (uint32_t)reg[((reg_size - pos + 7) / 8) - 2] << (8 - (pos % 8));
  400bc4:	f89d 202c 	ldrb.w	r2, [sp, #44]	; 0x2c
	if (SD_SW_STATUS_FUN_GRP1_BUSY(switch_status)) {
  400bc8:	ea53 2302 	orrs.w	r3, r3, r2, lsl #8
  400bcc:	f47f ac18 	bne.w	400400 <sd_mmc_check+0x50>
	driver_send_clock();
  400bd0:	4b17      	ldr	r3, [pc, #92]	; (400c30 <sd_mmc_check+0x880>)
  400bd2:	4798      	blx	r3
	sd_mmc_card->high_speed = 1;
  400bd4:	4b05      	ldr	r3, [pc, #20]	; (400bec <sd_mmc_check+0x83c>)
  400bd6:	681b      	ldr	r3, [r3, #0]
  400bd8:	2201      	movs	r2, #1
  400bda:	f883 2022 	strb.w	r2, [r3, #34]	; 0x22
	sd_mmc_card->clock *= 2;
  400bde:	681a      	ldr	r2, [r3, #0]
  400be0:	0052      	lsls	r2, r2, #1
  400be2:	601a      	str	r2, [r3, #0]
  400be4:	e764      	b.n	400ab0 <sd_mmc_check+0x700>
	*v2 = 0;
  400be6:	f04f 0900 	mov.w	r9, #0
  400bea:	e41b      	b.n	400424 <sd_mmc_check+0x74>
  400bec:	20400a04 	.word	0x20400a04
  400bf0:	004002fd 	.word	0x004002fd
  400bf4:	00409844 	.word	0x00409844
  400bf8:	00409860 	.word	0x00409860
  400bfc:	20400a0d 	.word	0x20400a0d
  400c00:	004017e9 	.word	0x004017e9
  400c04:	004018e1 	.word	0x004018e1
  400c08:	004001d5 	.word	0x004001d5
  400c0c:	004017f3 	.word	0x004017f3
  400c10:	00400369 	.word	0x00400369
  400c14:	00406a11 	.word	0x00406a11
  400c18:	80ffff01 	.word	0x80ffff01
  400c1c:	00081106 	.word	0x00081106
  400c20:	0040193d 	.word	0x0040193d
  400c24:	00401a79 	.word	0x00401a79
  400c28:	00401b71 	.word	0x00401b71
  400c2c:	00401905 	.word	0x00401905
  400c30:	004018bf 	.word	0x004018bf

00400c34 <sd_mmc_get_type>:

card_type_t sd_mmc_get_type(uint8_t slot)
{
  400c34:	b508      	push	{r3, lr}
	if (SD_MMC_OK != sd_mmc_select_slot(slot)) {
  400c36:	4b05      	ldr	r3, [pc, #20]	; (400c4c <sd_mmc_get_type+0x18>)
  400c38:	4798      	blx	r3
  400c3a:	b108      	cbz	r0, 400c40 <sd_mmc_get_type+0xc>
		return CARD_TYPE_UNKNOWN;
  400c3c:	2000      	movs	r0, #0
	}
	sd_mmc_deselect_slot();
	return sd_mmc_card->type;
}
  400c3e:	bd08      	pop	{r3, pc}
	sd_mmc_deselect_slot();
  400c40:	4b03      	ldr	r3, [pc, #12]	; (400c50 <sd_mmc_get_type+0x1c>)
  400c42:	4798      	blx	r3
	return sd_mmc_card->type;
  400c44:	4b03      	ldr	r3, [pc, #12]	; (400c54 <sd_mmc_get_type+0x20>)
  400c46:	681b      	ldr	r3, [r3, #0]
  400c48:	7bd8      	ldrb	r0, [r3, #15]
  400c4a:	bd08      	pop	{r3, pc}
  400c4c:	00400201 	.word	0x00400201
  400c50:	00400369 	.word	0x00400369
  400c54:	20400a04 	.word	0x20400a04

00400c58 <sd_mmc_get_capacity>:
	sd_mmc_deselect_slot();
	return sd_mmc_card->version;
}

uint32_t sd_mmc_get_capacity(uint8_t slot)
{
  400c58:	b508      	push	{r3, lr}
	if (SD_MMC_OK != sd_mmc_select_slot(slot)) {
  400c5a:	4b05      	ldr	r3, [pc, #20]	; (400c70 <sd_mmc_get_capacity+0x18>)
  400c5c:	4798      	blx	r3
  400c5e:	b108      	cbz	r0, 400c64 <sd_mmc_get_capacity+0xc>
		return 0;
  400c60:	2000      	movs	r0, #0
	}
	sd_mmc_deselect_slot();
	return sd_mmc_card->capacity;
}
  400c62:	bd08      	pop	{r3, pc}
	sd_mmc_deselect_slot();
  400c64:	4b03      	ldr	r3, [pc, #12]	; (400c74 <sd_mmc_get_capacity+0x1c>)
  400c66:	4798      	blx	r3
	return sd_mmc_card->capacity;
  400c68:	4b03      	ldr	r3, [pc, #12]	; (400c78 <sd_mmc_get_capacity+0x20>)
  400c6a:	681b      	ldr	r3, [r3, #0]
  400c6c:	6858      	ldr	r0, [r3, #4]
  400c6e:	bd08      	pop	{r3, pc}
  400c70:	00400201 	.word	0x00400201
  400c74:	00400369 	.word	0x00400369
  400c78:	20400a04 	.word	0x20400a04

00400c7c <sd_mmc_is_write_protected>:
			== SD_MMC_0_WP_DETECT_VALUE) {
		return true;
	}
#endif
	return false;
}
  400c7c:	2000      	movs	r0, #0
  400c7e:	4770      	bx	lr

00400c80 <sd_mmc_init_read_blocks>:

sd_mmc_err_t sd_mmc_init_read_blocks(uint8_t slot, uint32_t start,
		uint16_t nb_block)
{
  400c80:	e92d 47f0 	stmdb	sp!, {r4, r5, r6, r7, r8, r9, sl, lr}
  400c84:	b082      	sub	sp, #8
  400c86:	468a      	mov	sl, r1
  400c88:	4691      	mov	r9, r2
	sd_mmc_err_t sd_mmc_err;
	uint32_t cmd, arg, resp;

	sd_mmc_err = sd_mmc_select_slot(slot);
  400c8a:	4b26      	ldr	r3, [pc, #152]	; (400d24 <sd_mmc_init_read_blocks+0xa4>)
  400c8c:	4798      	blx	r3
	if (sd_mmc_err != SD_MMC_OK) {
  400c8e:	4680      	mov	r8, r0
  400c90:	b118      	cbz	r0, 400c9a <sd_mmc_init_read_blocks+0x1a>
		}
	}
	sd_mmc_nb_block_remaining = nb_block;
	sd_mmc_nb_block_to_tranfer = nb_block;
	return SD_MMC_OK;
}
  400c92:	4640      	mov	r0, r8
  400c94:	b002      	add	sp, #8
  400c96:	e8bd 87f0 	ldmia.w	sp!, {r4, r5, r6, r7, r8, r9, sl, pc}
  400c9a:	4c23      	ldr	r4, [pc, #140]	; (400d28 <sd_mmc_init_read_blocks+0xa8>)
					(uint32_t)sd_mmc_card->rca << 16)) {
  400c9c:	4e23      	ldr	r6, [pc, #140]	; (400d2c <sd_mmc_init_read_blocks+0xac>)
			if (!driver_send_cmd(SDMMC_MCI_CMD13_SEND_STATUS,
  400c9e:	4d24      	ldr	r5, [pc, #144]	; (400d30 <sd_mmc_init_read_blocks+0xb0>)
			if (driver_get_response() & CARD_STATUS_READY_FOR_DATA) {
  400ca0:	4f24      	ldr	r7, [pc, #144]	; (400d34 <sd_mmc_init_read_blocks+0xb4>)
					(uint32_t)sd_mmc_card->rca << 16)) {
  400ca2:	6833      	ldr	r3, [r6, #0]
  400ca4:	8999      	ldrh	r1, [r3, #12]
			if (!driver_send_cmd(SDMMC_MCI_CMD13_SEND_STATUS,
  400ca6:	0409      	lsls	r1, r1, #16
  400ca8:	f241 100d 	movw	r0, #4365	; 0x110d
  400cac:	47a8      	blx	r5
  400cae:	b128      	cbz	r0, 400cbc <sd_mmc_init_read_blocks+0x3c>
			if (driver_get_response() & CARD_STATUS_READY_FOR_DATA) {
  400cb0:	47b8      	blx	r7
  400cb2:	f410 7f80 	tst.w	r0, #256	; 0x100
  400cb6:	d117      	bne.n	400ce8 <sd_mmc_init_read_blocks+0x68>
		if (nec_timeout-- == 0) {
  400cb8:	3c01      	subs	r4, #1
  400cba:	d1f2      	bne.n	400ca2 <sd_mmc_init_read_blocks+0x22>
		sd_mmc_deselect_slot();
  400cbc:	4b1e      	ldr	r3, [pc, #120]	; (400d38 <sd_mmc_init_read_blocks+0xb8>)
  400cbe:	4798      	blx	r3
		return SD_MMC_ERR_COMM;
  400cc0:	f04f 0805 	mov.w	r8, #5
  400cc4:	e7e5      	b.n	400c92 <sd_mmc_init_read_blocks+0x12>
		resp = driver_get_response();
  400cc6:	4b1b      	ldr	r3, [pc, #108]	; (400d34 <sd_mmc_init_read_blocks+0xb4>)
  400cc8:	4798      	blx	r3
		if (resp & CARD_STATUS_ERR_RD_WR) {
  400cca:	4b1c      	ldr	r3, [pc, #112]	; (400d3c <sd_mmc_init_read_blocks+0xbc>)
  400ccc:	4003      	ands	r3, r0
  400cce:	b933      	cbnz	r3, 400cde <sd_mmc_init_read_blocks+0x5e>
	sd_mmc_nb_block_remaining = nb_block;
  400cd0:	4b1b      	ldr	r3, [pc, #108]	; (400d40 <sd_mmc_init_read_blocks+0xc0>)
  400cd2:	f8a3 9000 	strh.w	r9, [r3]
	sd_mmc_nb_block_to_tranfer = nb_block;
  400cd6:	4b1b      	ldr	r3, [pc, #108]	; (400d44 <sd_mmc_init_read_blocks+0xc4>)
  400cd8:	f8a3 9000 	strh.w	r9, [r3]
	return SD_MMC_OK;
  400cdc:	e7d9      	b.n	400c92 <sd_mmc_init_read_blocks+0x12>
			sd_mmc_deselect_slot();
  400cde:	4b16      	ldr	r3, [pc, #88]	; (400d38 <sd_mmc_init_read_blocks+0xb8>)
  400ce0:	4798      	blx	r3
			return SD_MMC_ERR_COMM;
  400ce2:	f04f 0805 	mov.w	r8, #5
  400ce6:	e7d4      	b.n	400c92 <sd_mmc_init_read_blocks+0x12>
		cmd = SDMMC_CMD17_READ_SINGLE_BLOCK;
  400ce8:	4b17      	ldr	r3, [pc, #92]	; (400d48 <sd_mmc_init_read_blocks+0xc8>)
  400cea:	4818      	ldr	r0, [pc, #96]	; (400d4c <sd_mmc_init_read_blocks+0xcc>)
  400cec:	f1b9 0f01 	cmp.w	r9, #1
  400cf0:	bf98      	it	ls
  400cf2:	4618      	movls	r0, r3
	if (sd_mmc_card->type & CARD_TYPE_HC) {
  400cf4:	4b0d      	ldr	r3, [pc, #52]	; (400d2c <sd_mmc_init_read_blocks+0xac>)
  400cf6:	681b      	ldr	r3, [r3, #0]
  400cf8:	7bdb      	ldrb	r3, [r3, #15]
  400cfa:	f013 0f08 	tst.w	r3, #8
  400cfe:	d101      	bne.n	400d04 <sd_mmc_init_read_blocks+0x84>
		arg = (start * SD_MMC_BLOCK_SIZE);
  400d00:	ea4f 2a4a 	mov.w	sl, sl, lsl #9
	if (!driver_adtc_start(cmd, arg, SD_MMC_BLOCK_SIZE, nb_block, true)) {
  400d04:	2301      	movs	r3, #1
  400d06:	9300      	str	r3, [sp, #0]
  400d08:	464b      	mov	r3, r9
  400d0a:	f44f 7200 	mov.w	r2, #512	; 0x200
  400d0e:	4651      	mov	r1, sl
  400d10:	4c0f      	ldr	r4, [pc, #60]	; (400d50 <sd_mmc_init_read_blocks+0xd0>)
  400d12:	47a0      	blx	r4
  400d14:	2800      	cmp	r0, #0
  400d16:	d1d6      	bne.n	400cc6 <sd_mmc_init_read_blocks+0x46>
		sd_mmc_deselect_slot();
  400d18:	4b07      	ldr	r3, [pc, #28]	; (400d38 <sd_mmc_init_read_blocks+0xb8>)
  400d1a:	4798      	blx	r3
		return SD_MMC_ERR_COMM;
  400d1c:	f04f 0805 	mov.w	r8, #5
  400d20:	e7b7      	b.n	400c92 <sd_mmc_init_read_blocks+0x12>
  400d22:	bf00      	nop
  400d24:	00400201 	.word	0x00400201
  400d28:	00030d41 	.word	0x00030d41
  400d2c:	20400a04 	.word	0x20400a04
  400d30:	004018e1 	.word	0x004018e1
  400d34:	00401905 	.word	0x00401905
  400d38:	00400369 	.word	0x00400369
  400d3c:	e4580000 	.word	0xe4580000
  400d40:	20400a08 	.word	0x20400a08
  400d44:	20400a0a 	.word	0x20400a0a
  400d48:	00081111 	.word	0x00081111
  400d4c:	00101112 	.word	0x00101112
  400d50:	0040193d 	.word	0x0040193d

00400d54 <sd_mmc_start_read_blocks>:

sd_mmc_err_t sd_mmc_start_read_blocks(void *dest, uint16_t nb_block)
{
  400d54:	b510      	push	{r4, lr}
  400d56:	460c      	mov	r4, r1
	Assert(sd_mmc_nb_block_remaining >= nb_block);

	if (!driver_start_read_blocks(dest, nb_block)) {
  400d58:	4b06      	ldr	r3, [pc, #24]	; (400d74 <sd_mmc_start_read_blocks+0x20>)
  400d5a:	4798      	blx	r3
  400d5c:	b920      	cbnz	r0, 400d68 <sd_mmc_start_read_blocks+0x14>
		sd_mmc_nb_block_remaining = 0;
  400d5e:	2200      	movs	r2, #0
  400d60:	4b05      	ldr	r3, [pc, #20]	; (400d78 <sd_mmc_start_read_blocks+0x24>)
  400d62:	801a      	strh	r2, [r3, #0]
		return SD_MMC_ERR_COMM;
  400d64:	2005      	movs	r0, #5
  400d66:	bd10      	pop	{r4, pc}
	}
	sd_mmc_nb_block_remaining -= nb_block;
  400d68:	4a03      	ldr	r2, [pc, #12]	; (400d78 <sd_mmc_start_read_blocks+0x24>)
  400d6a:	8813      	ldrh	r3, [r2, #0]
  400d6c:	1b1c      	subs	r4, r3, r4
  400d6e:	8014      	strh	r4, [r2, #0]
	return SD_MMC_OK;
  400d70:	2000      	movs	r0, #0
}
  400d72:	bd10      	pop	{r4, pc}
  400d74:	00401a79 	.word	0x00401a79
  400d78:	20400a08 	.word	0x20400a08

00400d7c <sd_mmc_wait_end_of_read_blocks>:

sd_mmc_err_t sd_mmc_wait_end_of_read_blocks(bool abort)
{
  400d7c:	b510      	push	{r4, lr}
  400d7e:	4604      	mov	r4, r0
	if (!driver_wait_end_of_read_blocks()) {
  400d80:	4b13      	ldr	r3, [pc, #76]	; (400dd0 <sd_mmc_wait_end_of_read_blocks+0x54>)
  400d82:	4798      	blx	r3
  400d84:	b908      	cbnz	r0, 400d8a <sd_mmc_wait_end_of_read_blocks+0xe>
		return SD_MMC_ERR_COMM;
  400d86:	2005      	movs	r0, #5
  400d88:	bd10      	pop	{r4, pc}
	}
	if (abort) {
  400d8a:	b184      	cbz	r4, 400dae <sd_mmc_wait_end_of_read_blocks+0x32>
		sd_mmc_nb_block_remaining = 0;
  400d8c:	2200      	movs	r2, #0
  400d8e:	4b11      	ldr	r3, [pc, #68]	; (400dd4 <sd_mmc_wait_end_of_read_blocks+0x58>)
  400d90:	801a      	strh	r2, [r3, #0]
	} else if (sd_mmc_nb_block_remaining) {
		return SD_MMC_OK;
	}

	// All blocks are transfered then stop read operation
	if (sd_mmc_nb_block_to_tranfer == 1) {
  400d92:	4b11      	ldr	r3, [pc, #68]	; (400dd8 <sd_mmc_wait_end_of_read_blocks+0x5c>)
  400d94:	881b      	ldrh	r3, [r3, #0]
  400d96:	2b01      	cmp	r3, #1
  400d98:	d00f      	beq.n	400dba <sd_mmc_wait_end_of_read_blocks+0x3e>
		return SD_MMC_OK;
	}
	// WORKAROUND for no compliance card (Atmel Internal ref. !MMC7 !SD19):
	// The errors on this command must be ignored
	// and one retry can be necessary in SPI mode for no compliance card.
	if (!driver_adtc_stop(SDMMC_CMD12_STOP_TRANSMISSION, 0)) {
  400d9a:	2100      	movs	r1, #0
  400d9c:	f243 100c 	movw	r0, #12556	; 0x310c
  400da0:	4b0e      	ldr	r3, [pc, #56]	; (400ddc <sd_mmc_wait_end_of_read_blocks+0x60>)
  400da2:	4798      	blx	r3
  400da4:	b168      	cbz	r0, 400dc2 <sd_mmc_wait_end_of_read_blocks+0x46>
		driver_adtc_stop(SDMMC_CMD12_STOP_TRANSMISSION, 0);
	}
	sd_mmc_deselect_slot();
  400da6:	4b0e      	ldr	r3, [pc, #56]	; (400de0 <sd_mmc_wait_end_of_read_blocks+0x64>)
  400da8:	4798      	blx	r3
	return SD_MMC_OK;
  400daa:	2000      	movs	r0, #0
  400dac:	bd10      	pop	{r4, pc}
	} else if (sd_mmc_nb_block_remaining) {
  400dae:	4b09      	ldr	r3, [pc, #36]	; (400dd4 <sd_mmc_wait_end_of_read_blocks+0x58>)
  400db0:	881b      	ldrh	r3, [r3, #0]
  400db2:	2b00      	cmp	r3, #0
  400db4:	d0ed      	beq.n	400d92 <sd_mmc_wait_end_of_read_blocks+0x16>
		return SD_MMC_OK;
  400db6:	2000      	movs	r0, #0
}
  400db8:	bd10      	pop	{r4, pc}
		sd_mmc_deselect_slot();
  400dba:	4b09      	ldr	r3, [pc, #36]	; (400de0 <sd_mmc_wait_end_of_read_blocks+0x64>)
  400dbc:	4798      	blx	r3
		return SD_MMC_OK;
  400dbe:	2000      	movs	r0, #0
  400dc0:	bd10      	pop	{r4, pc}
		driver_adtc_stop(SDMMC_CMD12_STOP_TRANSMISSION, 0);
  400dc2:	2100      	movs	r1, #0
  400dc4:	f243 100c 	movw	r0, #12556	; 0x310c
  400dc8:	4b04      	ldr	r3, [pc, #16]	; (400ddc <sd_mmc_wait_end_of_read_blocks+0x60>)
  400dca:	4798      	blx	r3
  400dcc:	e7eb      	b.n	400da6 <sd_mmc_wait_end_of_read_blocks+0x2a>
  400dce:	bf00      	nop
  400dd0:	00401b71 	.word	0x00401b71
  400dd4:	20400a08 	.word	0x20400a08
  400dd8:	20400a0a 	.word	0x20400a0a
  400ddc:	004018e1 	.word	0x004018e1
  400de0:	00400369 	.word	0x00400369

00400de4 <sd_mmc_init_write_blocks>:

sd_mmc_err_t sd_mmc_init_write_blocks(uint8_t slot, uint32_t start,
		uint16_t nb_block)
{
  400de4:	b570      	push	{r4, r5, r6, lr}
  400de6:	b082      	sub	sp, #8
  400de8:	460e      	mov	r6, r1
  400dea:	4615      	mov	r5, r2
	sd_mmc_err_t sd_mmc_err;
	uint32_t cmd, arg, resp;

	sd_mmc_err = sd_mmc_select_slot(slot);
  400dec:	4b16      	ldr	r3, [pc, #88]	; (400e48 <sd_mmc_init_write_blocks+0x64>)
  400dee:	4798      	blx	r3
	if (sd_mmc_err != SD_MMC_OK) {
  400df0:	4604      	mov	r4, r0
  400df2:	b9b8      	cbnz	r0, 400e24 <sd_mmc_init_write_blocks+0x40>
	}

	if (nb_block > 1) {
		cmd = SDMMC_CMD25_WRITE_MULTIPLE_BLOCK;
	} else {
		cmd = SDMMC_CMD24_WRITE_BLOCK;
  400df4:	4b15      	ldr	r3, [pc, #84]	; (400e4c <sd_mmc_init_write_blocks+0x68>)
  400df6:	4816      	ldr	r0, [pc, #88]	; (400e50 <sd_mmc_init_write_blocks+0x6c>)
  400df8:	2d01      	cmp	r5, #1
  400dfa:	bf98      	it	ls
  400dfc:	4618      	movls	r0, r3
	}
	/*
	 * SDSC Card (CCS=0) uses byte unit address,
	 * SDHC and SDXC Cards (CCS=1) use block unit address (512 Bytes unit).
	 */
	if (sd_mmc_card->type & CARD_TYPE_HC) {
  400dfe:	4b15      	ldr	r3, [pc, #84]	; (400e54 <sd_mmc_init_write_blocks+0x70>)
  400e00:	681b      	ldr	r3, [r3, #0]
  400e02:	7bdb      	ldrb	r3, [r3, #15]
  400e04:	f013 0f08 	tst.w	r3, #8
		arg = start;
	} else {
		arg = (start * SD_MMC_BLOCK_SIZE);
  400e08:	bf08      	it	eq
  400e0a:	0276      	lsleq	r6, r6, #9
	}
	if (!driver_adtc_start(cmd, arg, SD_MMC_BLOCK_SIZE, nb_block, true)) {
  400e0c:	2301      	movs	r3, #1
  400e0e:	9300      	str	r3, [sp, #0]
  400e10:	462b      	mov	r3, r5
  400e12:	f44f 7200 	mov.w	r2, #512	; 0x200
  400e16:	4631      	mov	r1, r6
  400e18:	4e0f      	ldr	r6, [pc, #60]	; (400e58 <sd_mmc_init_write_blocks+0x74>)
  400e1a:	47b0      	blx	r6
  400e1c:	b928      	cbnz	r0, 400e2a <sd_mmc_init_write_blocks+0x46>
		sd_mmc_deselect_slot();
  400e1e:	4b0f      	ldr	r3, [pc, #60]	; (400e5c <sd_mmc_init_write_blocks+0x78>)
  400e20:	4798      	blx	r3
		return SD_MMC_ERR_COMM;
  400e22:	2405      	movs	r4, #5
		}
	}
	sd_mmc_nb_block_remaining = nb_block;
	sd_mmc_nb_block_to_tranfer = nb_block;
	return SD_MMC_OK;
}
  400e24:	4620      	mov	r0, r4
  400e26:	b002      	add	sp, #8
  400e28:	bd70      	pop	{r4, r5, r6, pc}
		resp = driver_get_response();
  400e2a:	4b0d      	ldr	r3, [pc, #52]	; (400e60 <sd_mmc_init_write_blocks+0x7c>)
  400e2c:	4798      	blx	r3
		if (resp & CARD_STATUS_ERR_RD_WR) {
  400e2e:	4b0d      	ldr	r3, [pc, #52]	; (400e64 <sd_mmc_init_write_blocks+0x80>)
  400e30:	4003      	ands	r3, r0
  400e32:	b923      	cbnz	r3, 400e3e <sd_mmc_init_write_blocks+0x5a>
	sd_mmc_nb_block_remaining = nb_block;
  400e34:	4b0c      	ldr	r3, [pc, #48]	; (400e68 <sd_mmc_init_write_blocks+0x84>)
  400e36:	801d      	strh	r5, [r3, #0]
	sd_mmc_nb_block_to_tranfer = nb_block;
  400e38:	4b0c      	ldr	r3, [pc, #48]	; (400e6c <sd_mmc_init_write_blocks+0x88>)
  400e3a:	801d      	strh	r5, [r3, #0]
	return SD_MMC_OK;
  400e3c:	e7f2      	b.n	400e24 <sd_mmc_init_write_blocks+0x40>
			sd_mmc_deselect_slot();
  400e3e:	4b07      	ldr	r3, [pc, #28]	; (400e5c <sd_mmc_init_write_blocks+0x78>)
  400e40:	4798      	blx	r3
			return SD_MMC_ERR_COMM;
  400e42:	2405      	movs	r4, #5
  400e44:	e7ee      	b.n	400e24 <sd_mmc_init_write_blocks+0x40>
  400e46:	bf00      	nop
  400e48:	00400201 	.word	0x00400201
  400e4c:	00089118 	.word	0x00089118
  400e50:	00109119 	.word	0x00109119
  400e54:	20400a04 	.word	0x20400a04
  400e58:	0040193d 	.word	0x0040193d
  400e5c:	00400369 	.word	0x00400369
  400e60:	00401905 	.word	0x00401905
  400e64:	e4580000 	.word	0xe4580000
  400e68:	20400a08 	.word	0x20400a08
  400e6c:	20400a0a 	.word	0x20400a0a

00400e70 <sd_mmc_start_write_blocks>:

sd_mmc_err_t sd_mmc_start_write_blocks(const void *src, uint16_t nb_block)
{
  400e70:	b510      	push	{r4, lr}
  400e72:	460c      	mov	r4, r1
	Assert(sd_mmc_nb_block_remaining >= nb_block);
	if (!driver_start_write_blocks(src, nb_block)) {
  400e74:	4b06      	ldr	r3, [pc, #24]	; (400e90 <sd_mmc_start_write_blocks+0x20>)
  400e76:	4798      	blx	r3
  400e78:	b920      	cbnz	r0, 400e84 <sd_mmc_start_write_blocks+0x14>
		sd_mmc_nb_block_remaining = 0;
  400e7a:	2200      	movs	r2, #0
  400e7c:	4b05      	ldr	r3, [pc, #20]	; (400e94 <sd_mmc_start_write_blocks+0x24>)
  400e7e:	801a      	strh	r2, [r3, #0]
		return SD_MMC_ERR_COMM;
  400e80:	2005      	movs	r0, #5
  400e82:	bd10      	pop	{r4, pc}
	}
	sd_mmc_nb_block_remaining -= nb_block;
  400e84:	4a03      	ldr	r2, [pc, #12]	; (400e94 <sd_mmc_start_write_blocks+0x24>)
  400e86:	8813      	ldrh	r3, [r2, #0]
  400e88:	1b1c      	subs	r4, r3, r4
  400e8a:	8014      	strh	r4, [r2, #0]
	return SD_MMC_OK;
  400e8c:	2000      	movs	r0, #0
}
  400e8e:	bd10      	pop	{r4, pc}
  400e90:	00401bd5 	.word	0x00401bd5
  400e94:	20400a08 	.word	0x20400a08

00400e98 <sd_mmc_wait_end_of_write_blocks>:

sd_mmc_err_t sd_mmc_wait_end_of_write_blocks(bool abort)
{
  400e98:	b510      	push	{r4, lr}
  400e9a:	4604      	mov	r4, r0
	if (!driver_wait_end_of_write_blocks()) {
  400e9c:	4b12      	ldr	r3, [pc, #72]	; (400ee8 <sd_mmc_wait_end_of_write_blocks+0x50>)
  400e9e:	4798      	blx	r3
  400ea0:	b908      	cbnz	r0, 400ea6 <sd_mmc_wait_end_of_write_blocks+0xe>
		return SD_MMC_ERR_COMM;
  400ea2:	2005      	movs	r0, #5
  400ea4:	bd10      	pop	{r4, pc}
	}
	if (abort) {
  400ea6:	b184      	cbz	r4, 400eca <sd_mmc_wait_end_of_write_blocks+0x32>
		sd_mmc_nb_block_remaining = 0;
  400ea8:	2200      	movs	r2, #0
  400eaa:	4b10      	ldr	r3, [pc, #64]	; (400eec <sd_mmc_wait_end_of_write_blocks+0x54>)
  400eac:	801a      	strh	r2, [r3, #0]
	} else if (sd_mmc_nb_block_remaining) {
		return SD_MMC_OK;
	}

	// All blocks are transfered then stop write operation
	if (sd_mmc_nb_block_to_tranfer == 1) {
  400eae:	4b10      	ldr	r3, [pc, #64]	; (400ef0 <sd_mmc_wait_end_of_write_blocks+0x58>)
  400eb0:	881b      	ldrh	r3, [r3, #0]
  400eb2:	2b01      	cmp	r3, #1
  400eb4:	d00f      	beq.n	400ed6 <sd_mmc_wait_end_of_write_blocks+0x3e>
	}

	if (sd_mmc_is_mci()) {
		// Note: SPI multiblock writes terminate using a special
		// token, not a STOP_TRANSMISSION request.
		if (!driver_adtc_stop(SDMMC_CMD12_STOP_TRANSMISSION, 0)) {
  400eb6:	2100      	movs	r1, #0
  400eb8:	f243 100c 	movw	r0, #12556	; 0x310c
  400ebc:	4b0d      	ldr	r3, [pc, #52]	; (400ef4 <sd_mmc_wait_end_of_write_blocks+0x5c>)
  400ebe:	4798      	blx	r3
  400ec0:	b968      	cbnz	r0, 400ede <sd_mmc_wait_end_of_write_blocks+0x46>
			sd_mmc_deselect_slot();
  400ec2:	4b0d      	ldr	r3, [pc, #52]	; (400ef8 <sd_mmc_wait_end_of_write_blocks+0x60>)
  400ec4:	4798      	blx	r3
			return SD_MMC_ERR_COMM;
  400ec6:	2005      	movs	r0, #5
  400ec8:	bd10      	pop	{r4, pc}
	} else if (sd_mmc_nb_block_remaining) {
  400eca:	4b08      	ldr	r3, [pc, #32]	; (400eec <sd_mmc_wait_end_of_write_blocks+0x54>)
  400ecc:	881b      	ldrh	r3, [r3, #0]
  400ece:	2b00      	cmp	r3, #0
  400ed0:	d0ed      	beq.n	400eae <sd_mmc_wait_end_of_write_blocks+0x16>
		return SD_MMC_OK;
  400ed2:	2000      	movs	r0, #0
		}
	}
	sd_mmc_deselect_slot();
	return SD_MMC_OK;
}
  400ed4:	bd10      	pop	{r4, pc}
		sd_mmc_deselect_slot();
  400ed6:	4b08      	ldr	r3, [pc, #32]	; (400ef8 <sd_mmc_wait_end_of_write_blocks+0x60>)
  400ed8:	4798      	blx	r3
		return SD_MMC_OK;
  400eda:	2000      	movs	r0, #0
  400edc:	bd10      	pop	{r4, pc}
	sd_mmc_deselect_slot();
  400ede:	4b06      	ldr	r3, [pc, #24]	; (400ef8 <sd_mmc_wait_end_of_write_blocks+0x60>)
  400ee0:	4798      	blx	r3
	return SD_MMC_OK;
  400ee2:	2000      	movs	r0, #0
  400ee4:	bd10      	pop	{r4, pc}
  400ee6:	bf00      	nop
  400ee8:	00401ccd 	.word	0x00401ccd
  400eec:	20400a08 	.word	0x20400a08
  400ef0:	20400a0a 	.word	0x20400a0a
  400ef4:	004018e1 	.word	0x004018e1
  400ef8:	00400369 	.word	0x00400369

00400efc <sd_mmc_test_unit_ready>:
 */

static bool sd_mmc_ejected[2] = {false, false};

Ctrl_status sd_mmc_test_unit_ready(uint8_t slot)
{
  400efc:	b510      	push	{r4, lr}
  400efe:	4604      	mov	r4, r0
	switch (sd_mmc_check(slot))
  400f00:	4b0f      	ldr	r3, [pc, #60]	; (400f40 <sd_mmc_test_unit_ready+0x44>)
  400f02:	4798      	blx	r3
  400f04:	2801      	cmp	r0, #1
  400f06:	d018      	beq.n	400f3a <sd_mmc_test_unit_ready+0x3e>
  400f08:	b118      	cbz	r0, 400f12 <sd_mmc_test_unit_ready+0x16>
  400f0a:	2802      	cmp	r0, #2
  400f0c:	d010      	beq.n	400f30 <sd_mmc_test_unit_ready+0x34>
	case SD_MMC_ERR_NO_CARD:
		sd_mmc_ejected[slot] = false;
		return CTRL_NO_PRESENT;

	default:
		return CTRL_FAIL;
  400f0e:	2001      	movs	r0, #1
  400f10:	bd10      	pop	{r4, pc}
		if (sd_mmc_ejected[slot]) {
  400f12:	4b0c      	ldr	r3, [pc, #48]	; (400f44 <sd_mmc_test_unit_ready+0x48>)
  400f14:	5d1b      	ldrb	r3, [r3, r4]
  400f16:	b10b      	cbz	r3, 400f1c <sd_mmc_test_unit_ready+0x20>
			return CTRL_NO_PRESENT;
  400f18:	2002      	movs	r0, #2
	}
}
  400f1a:	bd10      	pop	{r4, pc}
		if (sd_mmc_get_type(slot) & (CARD_TYPE_SD | CARD_TYPE_MMC)) {
  400f1c:	4620      	mov	r0, r4
  400f1e:	4b0a      	ldr	r3, [pc, #40]	; (400f48 <sd_mmc_test_unit_ready+0x4c>)
  400f20:	4798      	blx	r3
  400f22:	f000 0003 	and.w	r0, r0, #3
		return CTRL_NO_PRESENT;
  400f26:	2800      	cmp	r0, #0
  400f28:	bf14      	ite	ne
  400f2a:	2000      	movne	r0, #0
  400f2c:	2002      	moveq	r0, #2
  400f2e:	bd10      	pop	{r4, pc}
		sd_mmc_ejected[slot] = false;
  400f30:	2200      	movs	r2, #0
  400f32:	4b04      	ldr	r3, [pc, #16]	; (400f44 <sd_mmc_test_unit_ready+0x48>)
  400f34:	551a      	strb	r2, [r3, r4]
		return CTRL_NO_PRESENT;
  400f36:	2002      	movs	r0, #2
  400f38:	bd10      	pop	{r4, pc}
		return CTRL_BUSY;
  400f3a:	2003      	movs	r0, #3
  400f3c:	bd10      	pop	{r4, pc}
  400f3e:	bf00      	nop
  400f40:	004003b1 	.word	0x004003b1
  400f44:	20400a10 	.word	0x20400a10
  400f48:	00400c35 	.word	0x00400c35

00400f4c <sd_mmc_test_unit_ready_0>:

Ctrl_status sd_mmc_test_unit_ready_0(void)
{
  400f4c:	b508      	push	{r3, lr}
	return sd_mmc_test_unit_ready(0);
  400f4e:	2000      	movs	r0, #0
  400f50:	4b01      	ldr	r3, [pc, #4]	; (400f58 <sd_mmc_test_unit_ready_0+0xc>)
  400f52:	4798      	blx	r3
}
  400f54:	bd08      	pop	{r3, pc}
  400f56:	bf00      	nop
  400f58:	00400efd 	.word	0x00400efd

00400f5c <sd_mmc_read_capacity>:
{
	return sd_mmc_test_unit_ready(1);
}

Ctrl_status sd_mmc_read_capacity(uint8_t slot, uint32_t *nb_sector)
{
  400f5c:	b538      	push	{r3, r4, r5, lr}
  400f5e:	4604      	mov	r4, r0
  400f60:	460d      	mov	r5, r1
	// Return last sector address (-1)
	*nb_sector = (sd_mmc_get_capacity(slot) * 2) - 1;
  400f62:	4b04      	ldr	r3, [pc, #16]	; (400f74 <sd_mmc_read_capacity+0x18>)
  400f64:	4798      	blx	r3
  400f66:	0040      	lsls	r0, r0, #1
  400f68:	3801      	subs	r0, #1
  400f6a:	6028      	str	r0, [r5, #0]
	return sd_mmc_test_unit_ready(slot);
  400f6c:	4620      	mov	r0, r4
  400f6e:	4b02      	ldr	r3, [pc, #8]	; (400f78 <sd_mmc_read_capacity+0x1c>)
  400f70:	4798      	blx	r3
}
  400f72:	bd38      	pop	{r3, r4, r5, pc}
  400f74:	00400c59 	.word	0x00400c59
  400f78:	00400efd 	.word	0x00400efd

00400f7c <sd_mmc_read_capacity_0>:

Ctrl_status sd_mmc_read_capacity_0(uint32_t *nb_sector)
{
  400f7c:	b508      	push	{r3, lr}
	return sd_mmc_read_capacity(0, nb_sector);
  400f7e:	4601      	mov	r1, r0
  400f80:	2000      	movs	r0, #0
  400f82:	4b01      	ldr	r3, [pc, #4]	; (400f88 <sd_mmc_read_capacity_0+0xc>)
  400f84:	4798      	blx	r3
}
  400f86:	bd08      	pop	{r3, pc}
  400f88:	00400f5d 	.word	0x00400f5d

00400f8c <sd_mmc_wr_protect_0>:
{
	return sd_mmc_is_write_protected(slot);
}

bool sd_mmc_wr_protect_0(void)
{
  400f8c:	b508      	push	{r3, lr}
	return sd_mmc_is_write_protected(slot);
  400f8e:	2000      	movs	r0, #0
  400f90:	4b01      	ldr	r3, [pc, #4]	; (400f98 <sd_mmc_wr_protect_0+0xc>)
  400f92:	4798      	blx	r3
	return sd_mmc_wr_protect(0);
}
  400f94:	bd08      	pop	{r3, pc}
  400f96:	bf00      	nop
  400f98:	00400c7d 	.word	0x00400c7d

00400f9c <sd_mmc_mem_2_ram>:
/**
 * \name MEM <-> RAM Interface
 * @{
 */
Ctrl_status sd_mmc_mem_2_ram(uint8_t slot, uint32_t addr, void *ram)
{
  400f9c:	b510      	push	{r4, lr}
  400f9e:	4614      	mov	r4, r2
	switch (sd_mmc_init_read_blocks(slot, addr, 1)) {
  400fa0:	2201      	movs	r2, #1
  400fa2:	4b0a      	ldr	r3, [pc, #40]	; (400fcc <sd_mmc_mem_2_ram+0x30>)
  400fa4:	4798      	blx	r3
  400fa6:	b120      	cbz	r0, 400fb2 <sd_mmc_mem_2_ram+0x16>
	case SD_MMC_OK:
		break;
	case SD_MMC_ERR_NO_CARD:
		return CTRL_NO_PRESENT;
	default:
		return CTRL_FAIL;
  400fa8:	2802      	cmp	r0, #2
  400faa:	bf0c      	ite	eq
  400fac:	2002      	moveq	r0, #2
  400fae:	2001      	movne	r0, #1
  400fb0:	bd10      	pop	{r4, pc}
	}
	if (SD_MMC_OK != sd_mmc_start_read_blocks(ram, 1)) {
  400fb2:	2101      	movs	r1, #1
  400fb4:	4620      	mov	r0, r4
  400fb6:	4b06      	ldr	r3, [pc, #24]	; (400fd0 <sd_mmc_mem_2_ram+0x34>)
  400fb8:	4798      	blx	r3
  400fba:	b108      	cbz	r0, 400fc0 <sd_mmc_mem_2_ram+0x24>
		return CTRL_FAIL;
  400fbc:	2001      	movs	r0, #1
	}
	if (SD_MMC_OK != sd_mmc_wait_end_of_read_blocks(false)) {
		return CTRL_FAIL;
	}
	return CTRL_GOOD;
}
  400fbe:	bd10      	pop	{r4, pc}
	if (SD_MMC_OK != sd_mmc_wait_end_of_read_blocks(false)) {
  400fc0:	4b04      	ldr	r3, [pc, #16]	; (400fd4 <sd_mmc_mem_2_ram+0x38>)
  400fc2:	4798      	blx	r3
		return CTRL_NO_PRESENT;
  400fc4:	3000      	adds	r0, #0
  400fc6:	bf18      	it	ne
  400fc8:	2001      	movne	r0, #1
  400fca:	bd10      	pop	{r4, pc}
  400fcc:	00400c81 	.word	0x00400c81
  400fd0:	00400d55 	.word	0x00400d55
  400fd4:	00400d7d 	.word	0x00400d7d

00400fd8 <sd_mmc_mem_2_ram_0>:

Ctrl_status sd_mmc_mem_2_ram_0(uint32_t addr, void *ram)
{
  400fd8:	b508      	push	{r3, lr}
	return sd_mmc_mem_2_ram(0, addr, ram);
  400fda:	460a      	mov	r2, r1
  400fdc:	4601      	mov	r1, r0
  400fde:	2000      	movs	r0, #0
  400fe0:	4b01      	ldr	r3, [pc, #4]	; (400fe8 <sd_mmc_mem_2_ram_0+0x10>)
  400fe2:	4798      	blx	r3
}
  400fe4:	bd08      	pop	{r3, pc}
  400fe6:	bf00      	nop
  400fe8:	00400f9d 	.word	0x00400f9d

00400fec <sd_mmc_ram_2_mem>:
{
	return sd_mmc_mem_2_ram(1, addr, ram);
}

Ctrl_status sd_mmc_ram_2_mem(uint8_t slot, uint32_t addr, const void *ram)
{
  400fec:	b510      	push	{r4, lr}
  400fee:	4614      	mov	r4, r2
	switch (sd_mmc_init_write_blocks(slot, addr, 1)) {
  400ff0:	2201      	movs	r2, #1
  400ff2:	4b0a      	ldr	r3, [pc, #40]	; (40101c <sd_mmc_ram_2_mem+0x30>)
  400ff4:	4798      	blx	r3
  400ff6:	b120      	cbz	r0, 401002 <sd_mmc_ram_2_mem+0x16>
	case SD_MMC_OK:
		break;
	case SD_MMC_ERR_NO_CARD:
		return CTRL_NO_PRESENT;
	default:
		return CTRL_FAIL;
  400ff8:	2802      	cmp	r0, #2
  400ffa:	bf0c      	ite	eq
  400ffc:	2002      	moveq	r0, #2
  400ffe:	2001      	movne	r0, #1
  401000:	bd10      	pop	{r4, pc}
	}
	if (SD_MMC_OK != sd_mmc_start_write_blocks(ram, 1)) {
  401002:	2101      	movs	r1, #1
  401004:	4620      	mov	r0, r4
  401006:	4b06      	ldr	r3, [pc, #24]	; (401020 <sd_mmc_ram_2_mem+0x34>)
  401008:	4798      	blx	r3
  40100a:	b108      	cbz	r0, 401010 <sd_mmc_ram_2_mem+0x24>
		return CTRL_FAIL;
  40100c:	2001      	movs	r0, #1
	}
	if (SD_MMC_OK != sd_mmc_wait_end_of_write_blocks(false)) {
		return CTRL_FAIL;
	}
	return CTRL_GOOD;
}
  40100e:	bd10      	pop	{r4, pc}
	if (SD_MMC_OK != sd_mmc_wait_end_of_write_blocks(false)) {
  401010:	4b04      	ldr	r3, [pc, #16]	; (401024 <sd_mmc_ram_2_mem+0x38>)
  401012:	4798      	blx	r3
		return CTRL_NO_PRESENT;
  401014:	3000      	adds	r0, #0
  401016:	bf18      	it	ne
  401018:	2001      	movne	r0, #1
  40101a:	bd10      	pop	{r4, pc}
  40101c:	00400de5 	.word	0x00400de5
  401020:	00400e71 	.word	0x00400e71
  401024:	00400e99 	.word	0x00400e99

00401028 <sd_mmc_ram_2_mem_0>:

Ctrl_status sd_mmc_ram_2_mem_0(uint32_t addr, const void *ram)
{
  401028:	b508      	push	{r3, lr}
	return sd_mmc_ram_2_mem(0, addr, ram);
  40102a:	460a      	mov	r2, r1
  40102c:	4601      	mov	r1, r0
  40102e:	2000      	movs	r0, #0
  401030:	4b01      	ldr	r3, [pc, #4]	; (401038 <sd_mmc_ram_2_mem_0+0x10>)
  401032:	4798      	blx	r3
}
  401034:	bd08      	pop	{r3, pc}
  401036:	bf00      	nop
  401038:	00400fed 	.word	0x00400fed

0040103c <sysclk_init>:
	pmc_disable_udpck();
}
#endif // CONFIG_USBCLK_SOURCE

void sysclk_init(void)
{
  40103c:	b510      	push	{r4, lr}
	struct pll_config pllcfg;

	/* Set flash wait state to max in case the below clock switching. */
	system_init_flash(CHIP_FREQ_CPU_MAX);
  40103e:	4810      	ldr	r0, [pc, #64]	; (401080 <sysclk_init+0x44>)
  401040:	4b10      	ldr	r3, [pc, #64]	; (401084 <sysclk_init+0x48>)
  401042:	4798      	blx	r3
		pmc_switch_mainck_to_fastrc(CKGR_MOR_MOSCRCF_12_MHz);
		break;


	case OSC_MAINCK_XTAL:
		pmc_switch_mainck_to_xtal(PMC_OSC_XTAL,
  401044:	213e      	movs	r1, #62	; 0x3e
  401046:	2000      	movs	r0, #0
  401048:	4b0f      	ldr	r3, [pc, #60]	; (401088 <sysclk_init+0x4c>)
  40104a:	4798      	blx	r3
	case OSC_MAINCK_4M_RC:
	case OSC_MAINCK_8M_RC:
	case OSC_MAINCK_12M_RC:
	case OSC_MAINCK_XTAL:
	case OSC_MAINCK_BYPASS:
		return pmc_osc_is_ready_mainck();
  40104c:	4c0f      	ldr	r4, [pc, #60]	; (40108c <sysclk_init+0x50>)
  40104e:	47a0      	blx	r4
 *
 * \param id A number identifying the oscillator to wait for.
 */
static inline void osc_wait_ready(uint8_t id)
{
	while (!osc_is_ready(id)) {
  401050:	2800      	cmp	r0, #0
  401052:	d0fc      	beq.n	40104e <sysclk_init+0x12>
static inline void pll_enable(const struct pll_config *p_cfg, uint32_t ul_pll_id)
{
	Assert(ul_pll_id < NR_PLLS);

	if (ul_pll_id == PLLA_ID) {
		pmc_disable_pllack(); // Always stop PLL first!
  401054:	4b0e      	ldr	r3, [pc, #56]	; (401090 <sysclk_init+0x54>)
  401056:	4798      	blx	r3
		PMC->CKGR_PLLAR = CKGR_PLLAR_ONE | p_cfg->ctrl;
  401058:	4a0e      	ldr	r2, [pc, #56]	; (401094 <sysclk_init+0x58>)
  40105a:	4b0f      	ldr	r3, [pc, #60]	; (401098 <sysclk_init+0x5c>)
  40105c:	629a      	str	r2, [r3, #40]	; 0x28
static inline uint32_t pll_is_locked(uint32_t ul_pll_id)
{
	Assert(ul_pll_id < NR_PLLS);

	if (ul_pll_id == PLLA_ID) {
	return pmc_is_locked_pllack();
  40105e:	4c0f      	ldr	r4, [pc, #60]	; (40109c <sysclk_init+0x60>)
  401060:	47a0      	blx	r4
 */
static inline int pll_wait_for_lock(unsigned int pll_id)
{
	Assert(pll_id < NR_PLLS);

	while (!pll_is_locked(pll_id)) {
  401062:	2800      	cmp	r0, #0
  401064:	d0fc      	beq.n	401060 <sysclk_init+0x24>
	else if (CONFIG_SYSCLK_SOURCE == SYSCLK_SRC_PLLACK) {
		pll_enable_source(CONFIG_PLL0_SOURCE);
		pll_config_defaults(&pllcfg, 0);
		pll_enable(&pllcfg, 0);
		pll_wait_for_lock(0);
		pmc_mck_set_division(CONFIG_SYSCLK_DIV);
  401066:	2002      	movs	r0, #2
  401068:	4b0d      	ldr	r3, [pc, #52]	; (4010a0 <sysclk_init+0x64>)
  40106a:	4798      	blx	r3
		pmc_switch_mck_to_pllack(CONFIG_SYSCLK_PRES);
  40106c:	2000      	movs	r0, #0
  40106e:	4b0d      	ldr	r3, [pc, #52]	; (4010a4 <sysclk_init+0x68>)
  401070:	4798      	blx	r3
		pll_wait_for_lock(1);
		pmc_mck_set_division(CONFIG_SYSCLK_DIV);
		pmc_switch_mck_to_upllck(CONFIG_SYSCLK_PRES);
	}
	/* Update the SystemFrequency variable */
	SystemCoreClockUpdate();
  401072:	4b0d      	ldr	r3, [pc, #52]	; (4010a8 <sysclk_init+0x6c>)
  401074:	4798      	blx	r3

	/* Set a flash wait state depending on the new cpu frequency */
	system_init_flash(sysclk_get_cpu_hz());
  401076:	480d      	ldr	r0, [pc, #52]	; (4010ac <sysclk_init+0x70>)
  401078:	4b02      	ldr	r3, [pc, #8]	; (401084 <sysclk_init+0x48>)
  40107a:	4798      	blx	r3
  40107c:	bd10      	pop	{r4, pc}
  40107e:	bf00      	nop
  401080:	07270e00 	.word	0x07270e00
  401084:	004023b9 	.word	0x004023b9
  401088:	00402035 	.word	0x00402035
  40108c:	00402089 	.word	0x00402089
  401090:	00402099 	.word	0x00402099
  401094:	20183f01 	.word	0x20183f01
  401098:	400e0600 	.word	0x400e0600
  40109c:	004020a9 	.word	0x004020a9
  4010a0:	00401f99 	.word	0x00401f99
  4010a4:	00401fd1 	.word	0x00401fd1
  4010a8:	004022ad 	.word	0x004022ad
  4010ac:	11e1a300 	.word	0x11e1a300

004010b0 <mem_test_unit_ready>:

  if (!Ctrl_access_lock()) return CTRL_FAIL;

  status =
#if MAX_LUN
         (lun < MAX_LUN) ? lun_desc[lun].test_unit_ready() :
  4010b0:	b108      	cbz	r0, 4010b6 <mem_test_unit_ready+0x6>
  4010b2:	2001      	movs	r0, #1
  4010b4:	4770      	bx	lr
{
  4010b6:	b508      	push	{r3, lr}
         (lun < MAX_LUN) ? lun_desc[lun].test_unit_ready() :
  4010b8:	4b01      	ldr	r3, [pc, #4]	; (4010c0 <mem_test_unit_ready+0x10>)
  4010ba:	4798      	blx	r3
  4010bc:	bd08      	pop	{r3, pc}
  4010be:	bf00      	nop
  4010c0:	00400f4d 	.word	0x00400f4d

004010c4 <mem_read_capacity>:

  if (!Ctrl_access_lock()) return CTRL_FAIL;

  status =
#if MAX_LUN
         (lun < MAX_LUN) ? lun_desc[lun].read_capacity(u32_nb_sector) :
  4010c4:	b108      	cbz	r0, 4010ca <mem_read_capacity+0x6>
  4010c6:	2001      	movs	r0, #1
  4010c8:	4770      	bx	lr
{
  4010ca:	b508      	push	{r3, lr}
  4010cc:	4608      	mov	r0, r1
         (lun < MAX_LUN) ? lun_desc[lun].read_capacity(u32_nb_sector) :
  4010ce:	4b01      	ldr	r3, [pc, #4]	; (4010d4 <mem_read_capacity+0x10>)
  4010d0:	4798      	blx	r3
  4010d2:	bd08      	pop	{r3, pc}
  4010d4:	00400f7d 	.word	0x00400f7d

004010d8 <mem_sector_size>:
#endif

  Ctrl_access_unlock();

  return sector_size;
}
  4010d8:	fab0 f080 	clz	r0, r0
  4010dc:	0940      	lsrs	r0, r0, #5
  4010de:	4770      	bx	lr

004010e0 <mem_wr_protect>:

  if (!Ctrl_access_lock()) return true;

  wr_protect =
#if MAX_LUN
             (lun < MAX_LUN) ? lun_desc[lun].wr_protect() :
  4010e0:	b108      	cbz	r0, 4010e6 <mem_wr_protect+0x6>
  4010e2:	2001      	movs	r0, #1
  4010e4:	4770      	bx	lr
{
  4010e6:	b508      	push	{r3, lr}
             (lun < MAX_LUN) ? lun_desc[lun].wr_protect() :
  4010e8:	4b01      	ldr	r3, [pc, #4]	; (4010f0 <mem_wr_protect+0x10>)
  4010ea:	4798      	blx	r3
  4010ec:	bd08      	pop	{r3, pc}
  4010ee:	bf00      	nop
  4010f0:	00400f8d 	.word	0x00400f8d

004010f4 <memory_2_ram>:
  if (!Ctrl_access_lock()) return CTRL_FAIL;

  memory_start_read_action(1);
  status =
#if MAX_LUN
           (lun < MAX_LUN) ? lun_desc[lun].mem_2_ram(addr, ram) :
  4010f4:	b108      	cbz	r0, 4010fa <memory_2_ram+0x6>
  4010f6:	2001      	movs	r0, #1
  4010f8:	4770      	bx	lr
{
  4010fa:	b508      	push	{r3, lr}
  4010fc:	4608      	mov	r0, r1
           (lun < MAX_LUN) ? lun_desc[lun].mem_2_ram(addr, ram) :
  4010fe:	4611      	mov	r1, r2
  401100:	4b01      	ldr	r3, [pc, #4]	; (401108 <memory_2_ram+0x14>)
  401102:	4798      	blx	r3
  401104:	bd08      	pop	{r3, pc}
  401106:	bf00      	nop
  401108:	00400fd9 	.word	0x00400fd9

0040110c <ram_2_memory>:
  if (!Ctrl_access_lock()) return CTRL_FAIL;

  memory_start_write_action(1);
  status =
#if MAX_LUN
           (lun < MAX_LUN) ? lun_desc[lun].ram_2_mem(addr, ram) :
  40110c:	b108      	cbz	r0, 401112 <ram_2_memory+0x6>
  40110e:	2001      	movs	r0, #1
  401110:	4770      	bx	lr
{
  401112:	b508      	push	{r3, lr}
  401114:	4608      	mov	r0, r1
           (lun < MAX_LUN) ? lun_desc[lun].ram_2_mem(addr, ram) :
  401116:	4611      	mov	r1, r2
  401118:	4b01      	ldr	r3, [pc, #4]	; (401120 <ram_2_memory+0x14>)
  40111a:	4798      	blx	r3
  40111c:	bd08      	pop	{r3, pc}
  40111e:	bf00      	nop
  401120:	00401029 	.word	0x00401029

00401124 <board_init>:
	__ISB();
}
#endif

void board_init(void)
{
  401124:	b5f8      	push	{r3, r4, r5, r6, r7, lr}
#ifndef CONF_BOARD_KEEP_WATCHDOG_AT_INIT
	/* Disable the watchdog */
	WDT->WDT_MR = WDT_MR_WDDIS;
  401126:	f44f 4200 	mov.w	r2, #32768	; 0x8000
  40112a:	4ba9      	ldr	r3, [pc, #676]	; (4013d0 <board_init+0x2ac>)
  40112c:	605a      	str	r2, [r3, #4]
    This function acts as a special kind of Data Memory Barrier.
    It completes when all explicit memory accesses before this instruction complete.
 */
__attribute__( ( always_inline ) ) __STATIC_INLINE void __DSB(void)
{
  __ASM volatile ("dsb");
  40112e:	f3bf 8f4f 	dsb	sy
  __ASM volatile ("isb");
  401132:	f3bf 8f6f 	isb	sy
__STATIC_INLINE void SCB_EnableICache(void)
{
  #if (__ICACHE_PRESENT == 1)
    __DSB();
    __ISB();
    SCB->ICIALLU = 0;                       // invalidate I-Cache
  401136:	4ba7      	ldr	r3, [pc, #668]	; (4013d4 <board_init+0x2b0>)
  401138:	2200      	movs	r2, #0
  40113a:	f8c3 2250 	str.w	r2, [r3, #592]	; 0x250
    SCB->CCR |=  SCB_CCR_IC_Msk;            // enable I-Cache
  40113e:	695a      	ldr	r2, [r3, #20]
  401140:	f442 3200 	orr.w	r2, r2, #131072	; 0x20000
  401144:	615a      	str	r2, [r3, #20]
  __ASM volatile ("dsb");
  401146:	f3bf 8f4f 	dsb	sy
  __ASM volatile ("isb");
  40114a:	f3bf 8f6f 	isb	sy
{
  #if (__DCACHE_PRESENT == 1)
    uint32_t ccsidr, sshift, wshift, sw;
    uint32_t sets, ways;

    ccsidr  = SCB->CCSIDR;
  40114e:	f8d3 7080 	ldr.w	r7, [r3, #128]	; 0x80
    sets    = CCSIDR_SETS(ccsidr);
  401152:	f3c7 364e 	ubfx	r6, r7, #13, #15
    sshift  = CCSIDR_LSSHIFT(ccsidr) + 4;
  401156:	f007 0007 	and.w	r0, r7, #7
  40115a:	3004      	adds	r0, #4
    ways    = CCSIDR_WAYS(ccsidr);
  40115c:	f3c7 07c9 	ubfx	r7, r7, #3, #10
 */
__attribute__( ( always_inline ) ) __STATIC_INLINE uint8_t __CLZ(uint32_t value)
{
  uint32_t result;

  __ASM volatile ("clz %0, %1" : "=r" (result) : "r" (value) );
  401160:	fab7 fe87 	clz	lr, r7
    wshift  = __CLZ(ways) & 0x1f;
  401164:	f00e 0e1f 	and.w	lr, lr, #31
  __ASM volatile ("dsb");
  401168:	f3bf 8f4f 	dsb	sy
  40116c:	f04f 34ff 	mov.w	r4, #4294967295
  401170:	fa04 fc00 	lsl.w	ip, r4, r0
  401174:	fa06 f000 	lsl.w	r0, r6, r0
  401178:	fa04 f40e 	lsl.w	r4, r4, lr
  40117c:	fa07 fe0e 	lsl.w	lr, r7, lr

    do {                                    // invalidate D-Cache
         int32_t tmpways = ways;
         do {
              sw = ((tmpways << wshift) | (sets << sshift));
              SCB->DCISW = sw;
  401180:	461d      	mov	r5, r3
         int32_t tmpways = ways;
  401182:	463a      	mov	r2, r7
  401184:	4673      	mov	r3, lr
              sw = ((tmpways << wshift) | (sets << sshift));
  401186:	ea40 0103 	orr.w	r1, r0, r3
              SCB->DCISW = sw;
  40118a:	f8c5 1260 	str.w	r1, [r5, #608]	; 0x260
            } while(tmpways--);
  40118e:	3a01      	subs	r2, #1
  401190:	4423      	add	r3, r4
  401192:	f1b2 3fff 	cmp.w	r2, #4294967295
  401196:	d1f6      	bne.n	401186 <board_init+0x62>
        } while(sets--);
  401198:	3e01      	subs	r6, #1
  40119a:	4460      	add	r0, ip
  40119c:	f1b6 3fff 	cmp.w	r6, #4294967295
  4011a0:	d1ef      	bne.n	401182 <board_init+0x5e>
  4011a2:	f3bf 8f4f 	dsb	sy
    __DSB();

    SCB->CCR |=  SCB_CCR_DC_Msk;            // enable D-Cache
  4011a6:	4b8b      	ldr	r3, [pc, #556]	; (4013d4 <board_init+0x2b0>)
  4011a8:	695a      	ldr	r2, [r3, #20]
  4011aa:	f442 3280 	orr.w	r2, r2, #65536	; 0x10000
  4011ae:	615a      	str	r2, [r3, #20]
  4011b0:	f3bf 8f4f 	dsb	sy
  __ASM volatile ("isb");
  4011b4:	f3bf 8f6f 	isb	sy
		*dst++ = *src++;
	}
#endif
#else
	/* TCM Configuration */
	EFC->EEFC_FCR = (EEFC_FCR_FKEY_PASSWD | EEFC_FCR_FCMD_CGPB 
  4011b8:	4a87      	ldr	r2, [pc, #540]	; (4013d8 <board_init+0x2b4>)
  4011ba:	4988      	ldr	r1, [pc, #544]	; (4013dc <board_init+0x2b8>)
  4011bc:	6051      	str	r1, [r2, #4]
					| EEFC_FCR_FARG(8));
	EFC->EEFC_FCR = (EEFC_FCR_FKEY_PASSWD | EEFC_FCR_FCMD_CGPB 
  4011be:	f5a1 7180 	sub.w	r1, r1, #256	; 0x100
  4011c2:	6051      	str	r1, [r2, #4]
  __ASM volatile ("dsb");
  4011c4:	f3bf 8f4f 	dsb	sy
  __ASM volatile ("isb");
  4011c8:	f3bf 8f6f 	isb	sy
	SCB->ITCMCR &= ~(uint32_t)(1UL);
  4011cc:	f8d3 2290 	ldr.w	r2, [r3, #656]	; 0x290
  4011d0:	f022 0201 	bic.w	r2, r2, #1
  4011d4:	f8c3 2290 	str.w	r2, [r3, #656]	; 0x290
	SCB->DTCMCR &= ~(uint32_t)SCB_DTCMCR_EN_Msk;
  4011d8:	f8d3 2294 	ldr.w	r2, [r3, #660]	; 0x294
  4011dc:	f022 0201 	bic.w	r2, r2, #1
  4011e0:	f8c3 2294 	str.w	r2, [r3, #660]	; 0x294
  __ASM volatile ("dsb");
  4011e4:	f3bf 8f4f 	dsb	sy
  __ASM volatile ("isb");
  4011e8:	f3bf 8f6f 	isb	sy
 *
 * \param ul_id Id (number) of the peripheral clock.
 */
static inline void sysclk_enable_peripheral_clock(uint32_t ul_id)
{
	pmc_enable_periph_clk(ul_id);
  4011ec:	200a      	movs	r0, #10
  4011ee:	4c7c      	ldr	r4, [pc, #496]	; (4013e0 <board_init+0x2bc>)
  4011f0:	47a0      	blx	r4
  4011f2:	200b      	movs	r0, #11
  4011f4:	47a0      	blx	r4
  4011f6:	200c      	movs	r0, #12
  4011f8:	47a0      	blx	r4
  4011fa:	2010      	movs	r0, #16
  4011fc:	47a0      	blx	r4
  4011fe:	2011      	movs	r0, #17
  401200:	47a0      	blx	r4
		base->PIO_OER = arch_ioport_pin_to_mask(pin);
  401202:	4a78      	ldr	r2, [pc, #480]	; (4013e4 <board_init+0x2c0>)
  401204:	f44f 7380 	mov.w	r3, #256	; 0x100
  401208:	6113      	str	r3, [r2, #16]
	base->PIO_OWER = arch_ioport_pin_to_mask(pin);
  40120a:	f8c2 30a0 	str.w	r3, [r2, #160]	; 0xa0
		base->PIO_SODR = arch_ioport_pin_to_mask(pin);
  40120e:	6313      	str	r3, [r2, #48]	; 0x30
		base->PIO_ODR = arch_ioport_pin_to_mask(pin);
  401210:	4b75      	ldr	r3, [pc, #468]	; (4013e8 <board_init+0x2c4>)
  401212:	f44f 6100 	mov.w	r1, #2048	; 0x800
  401216:	6159      	str	r1, [r3, #20]
	base->PIO_OWER = arch_ioport_pin_to_mask(pin);
  401218:	f8c3 10a0 	str.w	r1, [r3, #160]	; 0xa0
		base->PIO_PUER = mask;
  40121c:	6659      	str	r1, [r3, #100]	; 0x64
		base->PIO_PPDDR = mask;
  40121e:	f8c3 1090 	str.w	r1, [r3, #144]	; 0x90
		base->PIO_MDDR = mask;
  401222:	6559      	str	r1, [r3, #84]	; 0x54
		base->PIO_IFER = mask;
  401224:	6219      	str	r1, [r3, #32]
		base->PIO_IFSCER = mask;
  401226:	f8c3 1084 	str.w	r1, [r3, #132]	; 0x84
		base->PIO_ABCDSR[0] &= ~mask;
  40122a:	6f18      	ldr	r0, [r3, #112]	; 0x70
  40122c:	f420 6000 	bic.w	r0, r0, #2048	; 0x800
  401230:	6718      	str	r0, [r3, #112]	; 0x70
		base->PIO_ABCDSR[1] &= ~mask;
  401232:	6f58      	ldr	r0, [r3, #116]	; 0x74
  401234:	f420 6000 	bic.w	r0, r0, #2048	; 0x800
  401238:	6758      	str	r0, [r3, #116]	; 0x74
	case IOPORT_SENSE_FALLING:
		base->PIO_ESR = mask;
		base->PIO_FELLSR = mask;
		break;
	case IOPORT_SENSE_RISING:
		base->PIO_ESR = mask;
  40123a:	f8c3 10c0 	str.w	r1, [r3, #192]	; 0xc0
		base->PIO_REHLSR = mask;
  40123e:	f8c3 10d4 	str.w	r1, [r3, #212]	; 0xd4
		break;
	default:
		base->PIO_AIMDR = mask;
		return;
	}
	base->PIO_AIMER = mask;
  401242:	f8c3 10b0 	str.w	r1, [r3, #176]	; 0xb0
		base->PIO_PUDR = mask;
  401246:	f44f 1100 	mov.w	r1, #2097152	; 0x200000
  40124a:	6619      	str	r1, [r3, #96]	; 0x60
		base->PIO_PPDDR = mask;
  40124c:	f8c3 1090 	str.w	r1, [r3, #144]	; 0x90
		base->PIO_MDDR = mask;
  401250:	6559      	str	r1, [r3, #84]	; 0x54
		base->PIO_IFDR = mask;
  401252:	6259      	str	r1, [r3, #36]	; 0x24
		base->PIO_IFSCDR = mask;
  401254:	f8c3 1080 	str.w	r1, [r3, #128]	; 0x80
		base->PIO_ABCDSR[0] &= ~mask;
  401258:	6f18      	ldr	r0, [r3, #112]	; 0x70
  40125a:	f420 1000 	bic.w	r0, r0, #2097152	; 0x200000
  40125e:	6718      	str	r0, [r3, #112]	; 0x70
		base->PIO_ABCDSR[1] &= ~mask;
  401260:	6f58      	ldr	r0, [r3, #116]	; 0x74
  401262:	f420 1000 	bic.w	r0, r0, #2097152	; 0x200000
  401266:	6758      	str	r0, [r3, #116]	; 0x74
	arch_ioport_port_to_base(port)->PIO_PDR = mask;
  401268:	6059      	str	r1, [r3, #4]
			GPIO_PUSH_BUTTON_1_SENSE);

#ifdef CONF_BOARD_UART_CONSOLE
	/* Configure UART pins */
	ioport_set_pin_peripheral_mode(USART1_RXD_GPIO, USART1_RXD_FLAGS);
	MATRIX->CCFG_SYSIO |= CCFG_SYSIO_SYSIO4;
  40126a:	4860      	ldr	r0, [pc, #384]	; (4013ec <board_init+0x2c8>)
  40126c:	f8d0 1114 	ldr.w	r1, [r0, #276]	; 0x114
  401270:	f041 0110 	orr.w	r1, r1, #16
  401274:	f8c0 1114 	str.w	r1, [r0, #276]	; 0x114
		base->PIO_PUDR = mask;
  401278:	f500 20b2 	add.w	r0, r0, #364544	; 0x59000
  40127c:	2110      	movs	r1, #16
  40127e:	6601      	str	r1, [r0, #96]	; 0x60
		base->PIO_PPDDR = mask;
  401280:	f8c0 1090 	str.w	r1, [r0, #144]	; 0x90
		base->PIO_MDDR = mask;
  401284:	6541      	str	r1, [r0, #84]	; 0x54
		base->PIO_IFDR = mask;
  401286:	6241      	str	r1, [r0, #36]	; 0x24
		base->PIO_IFSCDR = mask;
  401288:	f8c0 1080 	str.w	r1, [r0, #128]	; 0x80
		base->PIO_ABCDSR[0] |= mask;
  40128c:	6f04      	ldr	r4, [r0, #112]	; 0x70
  40128e:	430c      	orrs	r4, r1
  401290:	6704      	str	r4, [r0, #112]	; 0x70
		base->PIO_ABCDSR[1] |= mask;
  401292:	6f44      	ldr	r4, [r0, #116]	; 0x74
  401294:	430c      	orrs	r4, r1
  401296:	6744      	str	r4, [r0, #116]	; 0x74
	arch_ioport_port_to_base(port)->PIO_PDR = mask;
  401298:	6041      	str	r1, [r0, #4]
		base->PIO_PUDR = mask;
  40129a:	2008      	movs	r0, #8
  40129c:	6618      	str	r0, [r3, #96]	; 0x60
		base->PIO_PPDDR = mask;
  40129e:	f8c3 0090 	str.w	r0, [r3, #144]	; 0x90
		base->PIO_MDDR = mask;
  4012a2:	6558      	str	r0, [r3, #84]	; 0x54
		base->PIO_IFDR = mask;
  4012a4:	6258      	str	r0, [r3, #36]	; 0x24
		base->PIO_IFSCDR = mask;
  4012a6:	f8c3 0080 	str.w	r0, [r3, #128]	; 0x80
		base->PIO_ABCDSR[0] &= ~mask;
  4012aa:	6f1c      	ldr	r4, [r3, #112]	; 0x70
  4012ac:	f024 0408 	bic.w	r4, r4, #8
  4012b0:	671c      	str	r4, [r3, #112]	; 0x70
		base->PIO_ABCDSR[1] &= ~mask;
  4012b2:	6f5c      	ldr	r4, [r3, #116]	; 0x74
  4012b4:	f024 0408 	bic.w	r4, r4, #8
  4012b8:	675c      	str	r4, [r3, #116]	; 0x74
	arch_ioport_port_to_base(port)->PIO_PDR = mask;
  4012ba:	6058      	str	r0, [r3, #4]
		base->PIO_PUDR = mask;
  4012bc:	6619      	str	r1, [r3, #96]	; 0x60
		base->PIO_PPDDR = mask;
  4012be:	f8c3 1090 	str.w	r1, [r3, #144]	; 0x90
		base->PIO_MDDR = mask;
  4012c2:	6559      	str	r1, [r3, #84]	; 0x54
		base->PIO_IFDR = mask;
  4012c4:	6259      	str	r1, [r3, #36]	; 0x24
		base->PIO_IFSCDR = mask;
  4012c6:	f8c3 1080 	str.w	r1, [r3, #128]	; 0x80
		base->PIO_ABCDSR[0] &= ~mask;
  4012ca:	6f18      	ldr	r0, [r3, #112]	; 0x70
  4012cc:	f020 0010 	bic.w	r0, r0, #16
  4012d0:	6718      	str	r0, [r3, #112]	; 0x70
		base->PIO_ABCDSR[1] &= ~mask;
  4012d2:	6f58      	ldr	r0, [r3, #116]	; 0x74
  4012d4:	f020 0010 	bic.w	r0, r0, #16
  4012d8:	6758      	str	r0, [r3, #116]	; 0x74
	arch_ioport_port_to_base(port)->PIO_PDR = mask;
  4012da:	6059      	str	r1, [r3, #4]
		base->PIO_PUDR = mask;
  4012dc:	f04f 5180 	mov.w	r1, #268435456	; 0x10000000
  4012e0:	6619      	str	r1, [r3, #96]	; 0x60
		base->PIO_PPDDR = mask;
  4012e2:	f8c3 1090 	str.w	r1, [r3, #144]	; 0x90
		base->PIO_MDDR = mask;
  4012e6:	6559      	str	r1, [r3, #84]	; 0x54
		base->PIO_IFDR = mask;
  4012e8:	6259      	str	r1, [r3, #36]	; 0x24
		base->PIO_IFSCDR = mask;
  4012ea:	f8c3 1080 	str.w	r1, [r3, #128]	; 0x80
		base->PIO_ABCDSR[0] &= ~mask;
  4012ee:	6f18      	ldr	r0, [r3, #112]	; 0x70
  4012f0:	f020 5080 	bic.w	r0, r0, #268435456	; 0x10000000
  4012f4:	6718      	str	r0, [r3, #112]	; 0x70
		base->PIO_ABCDSR[1] |= mask;
  4012f6:	6f58      	ldr	r0, [r3, #116]	; 0x74
  4012f8:	4308      	orrs	r0, r1
  4012fa:	6758      	str	r0, [r3, #116]	; 0x74
	arch_ioport_port_to_base(port)->PIO_PDR = mask;
  4012fc:	6059      	str	r1, [r3, #4]
		base->PIO_PUDR = mask;
  4012fe:	f04f 7100 	mov.w	r1, #33554432	; 0x2000000
  401302:	6619      	str	r1, [r3, #96]	; 0x60
		base->PIO_PPDDR = mask;
  401304:	f8c3 1090 	str.w	r1, [r3, #144]	; 0x90
		base->PIO_MDDR = mask;
  401308:	6559      	str	r1, [r3, #84]	; 0x54
		base->PIO_IFDR = mask;
  40130a:	6259      	str	r1, [r3, #36]	; 0x24
		base->PIO_IFSCDR = mask;
  40130c:	f8c3 1080 	str.w	r1, [r3, #128]	; 0x80
		base->PIO_ABCDSR[0] |= mask;
  401310:	6f18      	ldr	r0, [r3, #112]	; 0x70
  401312:	4308      	orrs	r0, r1
  401314:	6718      	str	r0, [r3, #112]	; 0x70
		base->PIO_ABCDSR[1] |= mask;
  401316:	6f58      	ldr	r0, [r3, #116]	; 0x74
  401318:	4308      	orrs	r0, r1
  40131a:	6758      	str	r0, [r3, #116]	; 0x74
	arch_ioport_port_to_base(port)->PIO_PDR = mask;
  40131c:	6059      	str	r1, [r3, #4]
		base->PIO_PUDR = mask;
  40131e:	f04f 4180 	mov.w	r1, #1073741824	; 0x40000000
  401322:	6619      	str	r1, [r3, #96]	; 0x60
		base->PIO_PPDDR = mask;
  401324:	f8c3 1090 	str.w	r1, [r3, #144]	; 0x90
		base->PIO_MDDR = mask;
  401328:	6559      	str	r1, [r3, #84]	; 0x54
		base->PIO_IFDR = mask;
  40132a:	6259      	str	r1, [r3, #36]	; 0x24
		base->PIO_IFSCDR = mask;
  40132c:	f8c3 1080 	str.w	r1, [r3, #128]	; 0x80
		base->PIO_ABCDSR[0] &= ~mask;
  401330:	6f18      	ldr	r0, [r3, #112]	; 0x70
  401332:	f020 4080 	bic.w	r0, r0, #1073741824	; 0x40000000
  401336:	6718      	str	r0, [r3, #112]	; 0x70
		base->PIO_ABCDSR[1] |= mask;
  401338:	6f58      	ldr	r0, [r3, #116]	; 0x74
  40133a:	4308      	orrs	r0, r1
  40133c:	6758      	str	r0, [r3, #116]	; 0x74
	arch_ioport_port_to_base(port)->PIO_PDR = mask;
  40133e:	6059      	str	r1, [r3, #4]
		base->PIO_PUDR = mask;
  401340:	f04f 4100 	mov.w	r1, #2147483648	; 0x80000000
  401344:	6619      	str	r1, [r3, #96]	; 0x60
		base->PIO_PPDDR = mask;
  401346:	f8c3 1090 	str.w	r1, [r3, #144]	; 0x90
		base->PIO_MDDR = mask;
  40134a:	6559      	str	r1, [r3, #84]	; 0x54
		base->PIO_IFDR = mask;
  40134c:	6259      	str	r1, [r3, #36]	; 0x24
		base->PIO_IFSCDR = mask;
  40134e:	f8c3 1080 	str.w	r1, [r3, #128]	; 0x80
		base->PIO_ABCDSR[0] &= ~mask;
  401352:	6f18      	ldr	r0, [r3, #112]	; 0x70
  401354:	f020 4000 	bic.w	r0, r0, #2147483648	; 0x80000000
  401358:	6718      	str	r0, [r3, #112]	; 0x70
		base->PIO_ABCDSR[1] |= mask;
  40135a:	6f58      	ldr	r0, [r3, #116]	; 0x74
  40135c:	4308      	orrs	r0, r1
  40135e:	6758      	str	r0, [r3, #116]	; 0x74
	arch_ioport_port_to_base(port)->PIO_PDR = mask;
  401360:	6059      	str	r1, [r3, #4]
		base->PIO_PUDR = mask;
  401362:	f04f 6180 	mov.w	r1, #67108864	; 0x4000000
  401366:	6619      	str	r1, [r3, #96]	; 0x60
		base->PIO_PPDDR = mask;
  401368:	f8c3 1090 	str.w	r1, [r3, #144]	; 0x90
		base->PIO_MDDR = mask;
  40136c:	6559      	str	r1, [r3, #84]	; 0x54
		base->PIO_IFDR = mask;
  40136e:	6259      	str	r1, [r3, #36]	; 0x24
		base->PIO_IFSCDR = mask;
  401370:	f8c3 1080 	str.w	r1, [r3, #128]	; 0x80
		base->PIO_ABCDSR[0] &= ~mask;
  401374:	6f18      	ldr	r0, [r3, #112]	; 0x70
  401376:	f020 6080 	bic.w	r0, r0, #67108864	; 0x4000000
  40137a:	6718      	str	r0, [r3, #112]	; 0x70
		base->PIO_ABCDSR[1] |= mask;
  40137c:	6f58      	ldr	r0, [r3, #116]	; 0x74
  40137e:	4308      	orrs	r0, r1
  401380:	6758      	str	r0, [r3, #116]	; 0x74
	arch_ioport_port_to_base(port)->PIO_PDR = mask;
  401382:	6059      	str	r1, [r3, #4]
		base->PIO_PUDR = mask;
  401384:	f04f 6100 	mov.w	r1, #134217728	; 0x8000000
  401388:	6619      	str	r1, [r3, #96]	; 0x60
		base->PIO_PPDDR = mask;
  40138a:	f8c3 1090 	str.w	r1, [r3, #144]	; 0x90
		base->PIO_MDDR = mask;
  40138e:	6559      	str	r1, [r3, #84]	; 0x54
		base->PIO_IFDR = mask;
  401390:	6259      	str	r1, [r3, #36]	; 0x24
		base->PIO_IFSCDR = mask;
  401392:	f8c3 1080 	str.w	r1, [r3, #128]	; 0x80
		base->PIO_ABCDSR[0] &= ~mask;
  401396:	6f18      	ldr	r0, [r3, #112]	; 0x70
  401398:	f020 6000 	bic.w	r0, r0, #134217728	; 0x8000000
  40139c:	6718      	str	r0, [r3, #112]	; 0x70
		base->PIO_ABCDSR[1] |= mask;
  40139e:	6f58      	ldr	r0, [r3, #116]	; 0x74
  4013a0:	4308      	orrs	r0, r1
  4013a2:	6758      	str	r0, [r3, #116]	; 0x74
	arch_ioport_port_to_base(port)->PIO_PDR = mask;
  4013a4:	6059      	str	r1, [r3, #4]
		base->PIO_ODR = arch_ioport_pin_to_mask(pin);
  4013a6:	f44f 3380 	mov.w	r3, #65536	; 0x10000
  4013aa:	6153      	str	r3, [r2, #20]
	base->PIO_OWER = arch_ioport_pin_to_mask(pin);
  4013ac:	f8c2 30a0 	str.w	r3, [r2, #160]	; 0xa0
		base->PIO_PUER = mask;
  4013b0:	6653      	str	r3, [r2, #100]	; 0x64
		base->PIO_PPDDR = mask;
  4013b2:	f8c2 3090 	str.w	r3, [r2, #144]	; 0x90
		base->PIO_MDDR = mask;
  4013b6:	6553      	str	r3, [r2, #84]	; 0x54
		base->PIO_IFDR = mask;
  4013b8:	6253      	str	r3, [r2, #36]	; 0x24
		base->PIO_IFSCDR = mask;
  4013ba:	f8c2 3080 	str.w	r3, [r2, #128]	; 0x80
		base->PIO_ABCDSR[0] &= ~mask;
  4013be:	6f13      	ldr	r3, [r2, #112]	; 0x70
  4013c0:	f423 3380 	bic.w	r3, r3, #65536	; 0x10000
  4013c4:	6713      	str	r3, [r2, #112]	; 0x70
		base->PIO_ABCDSR[1] &= ~mask;
  4013c6:	6f53      	ldr	r3, [r2, #116]	; 0x74
  4013c8:	f423 3380 	bic.w	r3, r3, #65536	; 0x10000
  4013cc:	6753      	str	r3, [r2, #116]	; 0x74
  4013ce:	bdf8      	pop	{r3, r4, r5, r6, r7, pc}
  4013d0:	400e1850 	.word	0x400e1850
  4013d4:	e000ed00 	.word	0xe000ed00
  4013d8:	400e0c00 	.word	0x400e0c00
  4013dc:	5a00080c 	.word	0x5a00080c
  4013e0:	004020b9 	.word	0x004020b9
  4013e4:	400e1200 	.word	0x400e1200
  4013e8:	400e0e00 	.word	0x400e0e00
  4013ec:	40088000 	.word	0x40088000

004013f0 <afec_process_callback>:
 * \brief Call the callback function if the corresponding interrupt is asserted
 *
 * \param afec  Base address of the AFEC.
 */
static void afec_process_callback(Afec *const afec)
{
  4013f0:	b570      	push	{r4, r5, r6, lr}
  4013f2:	b082      	sub	sp, #8
 *
 * \return The interrupt status value.
 */
static inline uint32_t afec_get_interrupt_status(Afec *const afec)
{
	return afec->AFEC_ISR;
  4013f4:	6b02      	ldr	r2, [r0, #48]	; 0x30
 *
 * \return The interrupt mask value.
 */
static inline uint32_t afec_get_interrupt_mask(Afec *const afec)
{
	return afec->AFEC_IMR;
  4013f6:	6ac3      	ldr	r3, [r0, #44]	; 0x2c
	volatile uint32_t status;
	uint32_t cnt, inst_num;

	status = afec_get_interrupt_status(afec) & afec_get_interrupt_mask(afec);
  4013f8:	4013      	ands	r3, r2
  4013fa:	9301      	str	r3, [sp, #4]
	inst_num = afec_find_inst_num(afec);

	for (cnt = 0; cnt < _AFEC_NUM_OF_INTERRUPT_SOURCE; cnt++) {
  4013fc:	2400      	movs	r4, #0
	if (afec_callback_pointer[inst_num][source]) {
  4013fe:	4e1c      	ldr	r6, [pc, #112]	; (401470 <afec_process_callback+0x80>)
  401400:	4d1c      	ldr	r5, [pc, #112]	; (401474 <afec_process_callback+0x84>)
  401402:	42a8      	cmp	r0, r5
  401404:	bf14      	ite	ne
  401406:	2000      	movne	r0, #0
  401408:	2001      	moveq	r0, #1
  40140a:	0105      	lsls	r5, r0, #4
  40140c:	e00b      	b.n	401426 <afec_process_callback+0x36>
		#elif defined __SAM4E8E__  || defined __SAM4E16E__ || SAMV71 || SAMV70 || SAMS70 || SAME70
			if (status & (1 << cnt)) {
				afec_interrupt(inst_num, (enum afec_interrupt_source)cnt);
			}
		#endif
		} else if (cnt < AFEC_INTERRUPT_TEMP_CHANGE) {
  40140e:	2c0e      	cmp	r4, #14
  401410:	d81e      	bhi.n	401450 <afec_process_callback+0x60>
			if (status & (1 << (cnt + AFEC_INTERRUPT_GAP1))) {
  401412:	9a01      	ldr	r2, [sp, #4]
  401414:	f104 010c 	add.w	r1, r4, #12
  401418:	2301      	movs	r3, #1
  40141a:	408b      	lsls	r3, r1
  40141c:	4213      	tst	r3, r2
  40141e:	d110      	bne.n	401442 <afec_process_callback+0x52>
	for (cnt = 0; cnt < _AFEC_NUM_OF_INTERRUPT_SOURCE; cnt++) {
  401420:	3401      	adds	r4, #1
  401422:	2c10      	cmp	r4, #16
  401424:	d022      	beq.n	40146c <afec_process_callback+0x7c>
		if (cnt < AFEC_INTERRUPT_DATA_READY) {
  401426:	2c0b      	cmp	r4, #11
  401428:	d8f1      	bhi.n	40140e <afec_process_callback+0x1e>
			if (status & (1 << cnt)) {
  40142a:	9a01      	ldr	r2, [sp, #4]
  40142c:	2301      	movs	r3, #1
  40142e:	40a3      	lsls	r3, r4
  401430:	4213      	tst	r3, r2
  401432:	d0f5      	beq.n	401420 <afec_process_callback+0x30>
	if (afec_callback_pointer[inst_num][source]) {
  401434:	192b      	adds	r3, r5, r4
  401436:	f856 3023 	ldr.w	r3, [r6, r3, lsl #2]
  40143a:	2b00      	cmp	r3, #0
  40143c:	d0f0      	beq.n	401420 <afec_process_callback+0x30>
		afec_callback_pointer[inst_num][source]();
  40143e:	4798      	blx	r3
  401440:	e7ee      	b.n	401420 <afec_process_callback+0x30>
	if (afec_callback_pointer[inst_num][source]) {
  401442:	192b      	adds	r3, r5, r4
  401444:	f856 3023 	ldr.w	r3, [r6, r3, lsl #2]
  401448:	2b00      	cmp	r3, #0
  40144a:	d0e9      	beq.n	401420 <afec_process_callback+0x30>
		afec_callback_pointer[inst_num][source]();
  40144c:	4798      	blx	r3
  40144e:	e7e7      	b.n	401420 <afec_process_callback+0x30>
				afec_interrupt(inst_num, (enum afec_interrupt_source)cnt);
			}
		} else {
			if (status & (1 << (cnt + AFEC_INTERRUPT_GAP1 + AFEC_INTERRUPT_GAP2))) {
  401450:	9a01      	ldr	r2, [sp, #4]
  401452:	f104 010f 	add.w	r1, r4, #15
  401456:	2301      	movs	r3, #1
  401458:	408b      	lsls	r3, r1
  40145a:	4213      	tst	r3, r2
  40145c:	d0e0      	beq.n	401420 <afec_process_callback+0x30>
	if (afec_callback_pointer[inst_num][source]) {
  40145e:	192b      	adds	r3, r5, r4
  401460:	f856 3023 	ldr.w	r3, [r6, r3, lsl #2]
  401464:	2b00      	cmp	r3, #0
  401466:	d0db      	beq.n	401420 <afec_process_callback+0x30>
		afec_callback_pointer[inst_num][source]();
  401468:	4798      	blx	r3
  40146a:	e7d9      	b.n	401420 <afec_process_callback+0x30>
				afec_interrupt(inst_num, (enum afec_interrupt_source)cnt);
			}
		}
	}
}
  40146c:	b002      	add	sp, #8
  40146e:	bd70      	pop	{r4, r5, r6, pc}
  401470:	2040c43c 	.word	0x2040c43c
  401474:	40064000 	.word	0x40064000

00401478 <afec_ch_set_config>:
{
  401478:	b430      	push	{r4, r5}
	reg = afec->AFEC_DIFFR;
  40147a:	6e04      	ldr	r4, [r0, #96]	; 0x60
	reg &= ~(0x1u << channel);
  40147c:	2301      	movs	r3, #1
  40147e:	408b      	lsls	r3, r1
  401480:	ea24 0403 	bic.w	r4, r4, r3
	reg |= (config->diff) ? (0x1u << channel) : 0;
  401484:	7815      	ldrb	r5, [r2, #0]
  401486:	2d00      	cmp	r5, #0
  401488:	bf08      	it	eq
  40148a:	2300      	moveq	r3, #0
  40148c:	4323      	orrs	r3, r4
	afec->AFEC_DIFFR = reg;
  40148e:	6603      	str	r3, [r0, #96]	; 0x60
	reg = afec->AFEC_CGR;
  401490:	6d44      	ldr	r4, [r0, #84]	; 0x54
	reg &= ~(0x03u << (2 * channel));
  401492:	004b      	lsls	r3, r1, #1
  401494:	2103      	movs	r1, #3
  401496:	4099      	lsls	r1, r3
  401498:	ea24 0401 	bic.w	r4, r4, r1
	reg |= (config->gain) << (2 * channel);
  40149c:	7851      	ldrb	r1, [r2, #1]
  40149e:	4099      	lsls	r1, r3
  4014a0:	4321      	orrs	r1, r4
	afec->AFEC_CGR = reg;
  4014a2:	6541      	str	r1, [r0, #84]	; 0x54
}
  4014a4:	bc30      	pop	{r4, r5}
  4014a6:	4770      	bx	lr

004014a8 <afec_temp_sensor_set_config>:
	reg = ((config->rctc) ? AFEC_TEMPMR_RTCT : 0) | (config->mode);
  4014a8:	784b      	ldrb	r3, [r1, #1]
  4014aa:	780a      	ldrb	r2, [r1, #0]
  4014ac:	4313      	orrs	r3, r2
	afec->AFEC_TEMPMR = reg;
  4014ae:	6703      	str	r3, [r0, #112]	; 0x70
			AFEC_TEMPCWR_THIGHTHRES(config->high_threshold);
  4014b0:	888a      	ldrh	r2, [r1, #4]
	afec->AFEC_TEMPCWR = AFEC_TEMPCWR_TLOWTHRES(config->low_threshold) |
  4014b2:	884b      	ldrh	r3, [r1, #2]
  4014b4:	ea43 4302 	orr.w	r3, r3, r2, lsl #16
  4014b8:	6743      	str	r3, [r0, #116]	; 0x74
  4014ba:	4770      	bx	lr

004014bc <afec_get_config_defaults>:
	cfg->resolution = AFEC_12_BITS;
  4014bc:	2200      	movs	r2, #0
  4014be:	6002      	str	r2, [r0, #0]
	cfg->mck = sysclk_get_cpu_hz();
  4014c0:	4b08      	ldr	r3, [pc, #32]	; (4014e4 <afec_get_config_defaults+0x28>)
  4014c2:	6043      	str	r3, [r0, #4]
		cfg->afec_clock = 6000000UL;
  4014c4:	4b08      	ldr	r3, [pc, #32]	; (4014e8 <afec_get_config_defaults+0x2c>)
  4014c6:	6083      	str	r3, [r0, #8]
		cfg->startup_time = AFEC_STARTUP_TIME_4;
  4014c8:	f44f 2380 	mov.w	r3, #262144	; 0x40000
  4014cc:	60c3      	str	r3, [r0, #12]
		cfg->tracktim = 2;
  4014ce:	2302      	movs	r3, #2
  4014d0:	7403      	strb	r3, [r0, #16]
		cfg->transfer = 1;
  4014d2:	2301      	movs	r3, #1
  4014d4:	7443      	strb	r3, [r0, #17]
		cfg->anach = true;
  4014d6:	7483      	strb	r3, [r0, #18]
		cfg->useq = false;
  4014d8:	74c2      	strb	r2, [r0, #19]
		cfg->tag = true;
  4014da:	7503      	strb	r3, [r0, #20]
		cfg->stm = true;
  4014dc:	7543      	strb	r3, [r0, #21]
		cfg->ibctl = 1;
  4014de:	7583      	strb	r3, [r0, #22]
  4014e0:	4770      	bx	lr
  4014e2:	bf00      	nop
  4014e4:	11e1a300 	.word	0x11e1a300
  4014e8:	005b8d80 	.word	0x005b8d80

004014ec <afec_ch_get_config_defaults>:
	cfg->diff = false;
  4014ec:	2300      	movs	r3, #0
  4014ee:	7003      	strb	r3, [r0, #0]
   	cfg->gain = AFEC_GAINVALUE_1;
  4014f0:	2301      	movs	r3, #1
  4014f2:	7043      	strb	r3, [r0, #1]
  4014f4:	4770      	bx	lr

004014f6 <afec_temp_sensor_get_config_defaults>:
	cfg->rctc = false;
  4014f6:	2300      	movs	r3, #0
  4014f8:	7003      	strb	r3, [r0, #0]
	cfg->mode= AFEC_TEMP_CMP_MODE_2;
  4014fa:	2320      	movs	r3, #32
  4014fc:	7043      	strb	r3, [r0, #1]
	cfg->low_threshold= 0xFF;
  4014fe:	23ff      	movs	r3, #255	; 0xff
  401500:	8043      	strh	r3, [r0, #2]
	cfg->high_threshold= 0xFFF;
  401502:	f640 73ff 	movw	r3, #4095	; 0xfff
  401506:	8083      	strh	r3, [r0, #4]
  401508:	4770      	bx	lr
	...

0040150c <afec_init>:
	return afec->AFEC_ISR;
  40150c:	6b02      	ldr	r2, [r0, #48]	; 0x30
	if ((afec_get_interrupt_status(afec) & AFEC_ISR_DRDY) == AFEC_ISR_DRDY) {
  40150e:	f012 7280 	ands.w	r2, r2, #16777216	; 0x1000000
  401512:	d001      	beq.n	401518 <afec_init+0xc>
		return STATUS_ERR_BUSY;
  401514:	2019      	movs	r0, #25
  401516:	4770      	bx	lr
{
  401518:	b410      	push	{r4}
	afec->AFEC_CR = AFEC_CR_SWRST;
  40151a:	2301      	movs	r3, #1
  40151c:	6003      	str	r3, [r0, #0]
	reg = (config->useq ? AFEC_MR_USEQ_REG_ORDER : 0) |
  40151e:	7ccb      	ldrb	r3, [r1, #19]
  401520:	2b00      	cmp	r3, #0
  401522:	bf18      	it	ne
  401524:	f04f 4200 	movne.w	r2, #2147483648	; 0x80000000
			AFEC_MR_PRESCAL((config->mck / config->afec_clock )- 1) |
  401528:	684b      	ldr	r3, [r1, #4]
  40152a:	688c      	ldr	r4, [r1, #8]
  40152c:	fbb3 f3f4 	udiv	r3, r3, r4
  401530:	3b01      	subs	r3, #1
  401532:	021b      	lsls	r3, r3, #8
  401534:	b29b      	uxth	r3, r3
	reg = (config->useq ? AFEC_MR_USEQ_REG_ORDER : 0) |
  401536:	68cc      	ldr	r4, [r1, #12]
  401538:	f444 0400 	orr.w	r4, r4, #8388608	; 0x800000
  40153c:	4323      	orrs	r3, r4
			AFEC_MR_TRACKTIM(config->tracktim) |
  40153e:	7c0c      	ldrb	r4, [r1, #16]
  401540:	0624      	lsls	r4, r4, #24
  401542:	f004 6470 	and.w	r4, r4, #251658240	; 0xf000000
	reg = (config->useq ? AFEC_MR_USEQ_REG_ORDER : 0) |
  401546:	4323      	orrs	r3, r4
			AFEC_MR_TRANSFER(config->transfer) |
  401548:	7c4c      	ldrb	r4, [r1, #17]
  40154a:	0724      	lsls	r4, r4, #28
  40154c:	f004 5440 	and.w	r4, r4, #805306368	; 0x30000000
	reg = (config->useq ? AFEC_MR_USEQ_REG_ORDER : 0) |
  401550:	4323      	orrs	r3, r4
  401552:	4313      	orrs	r3, r2
	afec->AFEC_MR = reg;
  401554:	6043      	str	r3, [r0, #4]
	afec->AFEC_EMR = (config->tag ? AFEC_EMR_TAG : 0) |
  401556:	7d0b      	ldrb	r3, [r1, #20]
  401558:	2b00      	cmp	r3, #0
  40155a:	bf14      	ite	ne
  40155c:	f04f 7380 	movne.w	r3, #16777216	; 0x1000000
  401560:	2300      	moveq	r3, #0
  401562:	680a      	ldr	r2, [r1, #0]
  401564:	4313      	orrs	r3, r2
			(config->stm ? AFEC_EMR_STM : 0);
  401566:	7d4a      	ldrb	r2, [r1, #21]
  401568:	2a00      	cmp	r2, #0
  40156a:	bf14      	ite	ne
  40156c:	f04f 7200 	movne.w	r2, #33554432	; 0x2000000
  401570:	2200      	moveq	r2, #0
			(config->resolution) |
  401572:	4313      	orrs	r3, r2
	afec->AFEC_EMR = (config->tag ? AFEC_EMR_TAG : 0) |
  401574:	6083      	str	r3, [r0, #8]
	afec->AFEC_ACR = AFEC_ACR_IBCTL(config->ibctl) | AFEC_ACR_PGA0EN | AFEC_ACR_PGA1EN;
  401576:	7d8b      	ldrb	r3, [r1, #22]
  401578:	021b      	lsls	r3, r3, #8
  40157a:	f403 7340 	and.w	r3, r3, #768	; 0x300
  40157e:	f043 030c 	orr.w	r3, r3, #12
  401582:	f8c0 3094 	str.w	r3, [r0, #148]	; 0x94
	if(afec == AFEC0) {
  401586:	4b0f      	ldr	r3, [pc, #60]	; (4015c4 <afec_init+0xb8>)
  401588:	4298      	cmp	r0, r3
  40158a:	d006      	beq.n	40159a <afec_init+0x8e>
	if(afec == AFEC1) {
  40158c:	4b0e      	ldr	r3, [pc, #56]	; (4015c8 <afec_init+0xbc>)
  40158e:	4298      	cmp	r0, r3
  401590:	d00d      	beq.n	4015ae <afec_init+0xa2>
	return STATUS_OK;
  401592:	2000      	movs	r0, #0
}
  401594:	f85d 4b04 	ldr.w	r4, [sp], #4
  401598:	4770      	bx	lr
  40159a:	4b0c      	ldr	r3, [pc, #48]	; (4015cc <afec_init+0xc0>)
  40159c:	f103 0140 	add.w	r1, r3, #64	; 0x40
			afec_callback_pointer[0][i] = 0;
  4015a0:	2200      	movs	r2, #0
  4015a2:	f843 2f04 	str.w	r2, [r3, #4]!
		for (i = 0; i < _AFEC_NUM_OF_INTERRUPT_SOURCE; i++){
  4015a6:	428b      	cmp	r3, r1
  4015a8:	d1fb      	bne.n	4015a2 <afec_init+0x96>
	return STATUS_OK;
  4015aa:	2000      	movs	r0, #0
  4015ac:	e7f2      	b.n	401594 <afec_init+0x88>
  4015ae:	4b08      	ldr	r3, [pc, #32]	; (4015d0 <afec_init+0xc4>)
  4015b0:	f103 0140 	add.w	r1, r3, #64	; 0x40
			afec_callback_pointer[1][i] = 0;
  4015b4:	2200      	movs	r2, #0
  4015b6:	f843 2b04 	str.w	r2, [r3], #4
		for (i = 0; i < _AFEC_NUM_OF_INTERRUPT_SOURCE; i++){
  4015ba:	428b      	cmp	r3, r1
  4015bc:	d1fb      	bne.n	4015b6 <afec_init+0xaa>
	return STATUS_OK;
  4015be:	2000      	movs	r0, #0
  4015c0:	e7e8      	b.n	401594 <afec_init+0x88>
  4015c2:	bf00      	nop
  4015c4:	4003c000 	.word	0x4003c000
  4015c8:	40064000 	.word	0x40064000
  4015cc:	2040c438 	.word	0x2040c438
  4015d0:	2040c47c 	.word	0x2040c47c

004015d4 <afec_enable_interrupt>:
	if (interrupt_source == AFEC_INTERRUPT_ALL) {
  4015d4:	4b0c      	ldr	r3, [pc, #48]	; (401608 <afec_enable_interrupt+0x34>)
  4015d6:	4299      	cmp	r1, r3
  4015d8:	d007      	beq.n	4015ea <afec_enable_interrupt+0x16>
	if (interrupt_source < AFEC_INTERRUPT_DATA_READY) {
  4015da:	290b      	cmp	r1, #11
  4015dc:	d80b      	bhi.n	4015f6 <afec_enable_interrupt+0x22>
		if (interrupt_source == AFEC_INTERRUPT_EOC_11) {
  4015de:	d006      	beq.n	4015ee <afec_enable_interrupt+0x1a>
			afec->AFEC_IER = 1 << interrupt_source;
  4015e0:	2301      	movs	r3, #1
  4015e2:	fa03 f101 	lsl.w	r1, r3, r1
  4015e6:	6241      	str	r1, [r0, #36]	; 0x24
  4015e8:	4770      	bx	lr
		afec->AFEC_IER = AFEC_INTERRUPT_ALL;
  4015ea:	6243      	str	r3, [r0, #36]	; 0x24
		return;
  4015ec:	4770      	bx	lr
			afec->AFEC_IER = 1 << AFEC_TEMP_INT_SOURCE_NUM;
  4015ee:	f44f 6300 	mov.w	r3, #2048	; 0x800
  4015f2:	6243      	str	r3, [r0, #36]	; 0x24
  4015f4:	4770      	bx	lr
	} else if (interrupt_source < AFEC_INTERRUPT_TEMP_CHANGE) {
  4015f6:	290e      	cmp	r1, #14
		afec->AFEC_IER = 1 << (interrupt_source + AFEC_INTERRUPT_GAP1);
  4015f8:	bf94      	ite	ls
  4015fa:	310c      	addls	r1, #12
				+ AFEC_INTERRUPT_GAP2);
  4015fc:	310f      	addhi	r1, #15
		afec->AFEC_IER = 1 << (interrupt_source + AFEC_INTERRUPT_GAP1
  4015fe:	2301      	movs	r3, #1
  401600:	fa03 f101 	lsl.w	r1, r3, r1
  401604:	6241      	str	r1, [r0, #36]	; 0x24
  401606:	4770      	bx	lr
  401608:	47000fff 	.word	0x47000fff

0040160c <afec_set_callback>:
{
  40160c:	b538      	push	{r3, r4, r5, lr}
	if (afec == AFEC1) {
  40160e:	4c11      	ldr	r4, [pc, #68]	; (401654 <afec_set_callback+0x48>)
  401610:	42a0      	cmp	r0, r4
	afec_callback_pointer[i][source] = callback;
  401612:	bf0c      	ite	eq
  401614:	2410      	moveq	r4, #16
  401616:	2400      	movne	r4, #0
  401618:	440c      	add	r4, r1
  40161a:	4d0f      	ldr	r5, [pc, #60]	; (401658 <afec_set_callback+0x4c>)
  40161c:	f845 2024 	str.w	r2, [r5, r4, lsl #2]
	if (!i) {
  401620:	d10a      	bne.n	401638 <afec_set_callback+0x2c>
  NVIC->ICPR[((uint32_t)(IRQn) >> 5)] = (1 << ((uint32_t)(IRQn) & 0x1F)); /* Clear pending interrupt */
  401622:	4a0e      	ldr	r2, [pc, #56]	; (40165c <afec_set_callback+0x50>)
  401624:	f44f 7480 	mov.w	r4, #256	; 0x100
  401628:	f8c2 4184 	str.w	r4, [r2, #388]	; 0x184
    NVIC->IP[(uint32_t)(IRQn)]            = ((priority << (8 - __NVIC_PRIO_BITS)) & 0xff); } /* set Priority for device specific Interrupts  */
  40162c:	015b      	lsls	r3, r3, #5
  40162e:	b2db      	uxtb	r3, r3
  401630:	f882 3328 	strb.w	r3, [r2, #808]	; 0x328
  NVIC->ISER[(uint32_t)((int32_t)IRQn) >> 5] = (uint32_t)(1 << ((uint32_t)((int32_t)IRQn) & (uint32_t)0x1F)); /* enable interrupt */
  401634:	6054      	str	r4, [r2, #4]
  401636:	e009      	b.n	40164c <afec_set_callback+0x40>
  NVIC->ICPR[((uint32_t)(IRQn) >> 5)] = (1 << ((uint32_t)(IRQn) & 0x1F)); /* Clear pending interrupt */
  401638:	4a08      	ldr	r2, [pc, #32]	; (40165c <afec_set_callback+0x50>)
  40163a:	f04f 5400 	mov.w	r4, #536870912	; 0x20000000
  40163e:	f8c2 4180 	str.w	r4, [r2, #384]	; 0x180
    NVIC->IP[(uint32_t)(IRQn)]            = ((priority << (8 - __NVIC_PRIO_BITS)) & 0xff); } /* set Priority for device specific Interrupts  */
  401642:	015b      	lsls	r3, r3, #5
  401644:	b2db      	uxtb	r3, r3
  401646:	f882 331d 	strb.w	r3, [r2, #797]	; 0x31d
  NVIC->ISER[(uint32_t)((int32_t)IRQn) >> 5] = (uint32_t)(1 << ((uint32_t)((int32_t)IRQn) & (uint32_t)0x1F)); /* enable interrupt */
  40164a:	6014      	str	r4, [r2, #0]
	afec_enable_interrupt(afec, source);
  40164c:	4b04      	ldr	r3, [pc, #16]	; (401660 <afec_set_callback+0x54>)
  40164e:	4798      	blx	r3
  401650:	bd38      	pop	{r3, r4, r5, pc}
  401652:	bf00      	nop
  401654:	40064000 	.word	0x40064000
  401658:	2040c43c 	.word	0x2040c43c
  40165c:	e000e100 	.word	0xe000e100
  401660:	004015d5 	.word	0x004015d5

00401664 <AFEC0_Handler>:

/**
 * \brief Interrupt handler for AFEC0.
 */
void AFEC0_Handler(void)
{
  401664:	b508      	push	{r3, lr}
	afec_process_callback(AFEC0);
  401666:	4802      	ldr	r0, [pc, #8]	; (401670 <AFEC0_Handler+0xc>)
  401668:	4b02      	ldr	r3, [pc, #8]	; (401674 <AFEC0_Handler+0x10>)
  40166a:	4798      	blx	r3
  40166c:	bd08      	pop	{r3, pc}
  40166e:	bf00      	nop
  401670:	4003c000 	.word	0x4003c000
  401674:	004013f1 	.word	0x004013f1

00401678 <AFEC1_Handler>:

/**
 * \brief Interrupt handler for AFEC1.
 */
void AFEC1_Handler(void)
{
  401678:	b508      	push	{r3, lr}
	afec_process_callback(AFEC1);
  40167a:	4802      	ldr	r0, [pc, #8]	; (401684 <AFEC1_Handler+0xc>)
  40167c:	4b02      	ldr	r3, [pc, #8]	; (401688 <AFEC1_Handler+0x10>)
  40167e:	4798      	blx	r3
  401680:	bd08      	pop	{r3, pc}
  401682:	bf00      	nop
  401684:	40064000 	.word	0x40064000
  401688:	004013f1 	.word	0x004013f1

0040168c <afec_enable>:
 * \brief Enable AFEC Module.
 *
 * \param afec  Base address of the AFEC
 */
void afec_enable(Afec *const afec)
{
  40168c:	b500      	push	{lr}
  40168e:	b083      	sub	sp, #12
	Assert(afec);
	uint32_t pid;

	pid = afec_find_pid(afec);
	/* Enable peripheral clock. */
	pmc_enable_periph_clk(pid);
  401690:	4b13      	ldr	r3, [pc, #76]	; (4016e0 <afec_enable+0x54>)
  401692:	4298      	cmp	r0, r3
  401694:	bf0c      	ite	eq
  401696:	2028      	moveq	r0, #40	; 0x28
  401698:	201d      	movne	r0, #29
  40169a:	4b12      	ldr	r3, [pc, #72]	; (4016e4 <afec_enable+0x58>)
  40169c:	4798      	blx	r3
static inline void sleepmgr_lock_mode(enum sleepmgr_mode mode)
{
#ifdef CONFIG_SLEEPMGR_ENABLE
	irqflags_t flags;

	if(sleepmgr_locks[mode] >= 0xff) {
  40169e:	4b12      	ldr	r3, [pc, #72]	; (4016e8 <afec_enable+0x5c>)
  4016a0:	789b      	ldrb	r3, [r3, #2]
  4016a2:	2bff      	cmp	r3, #255	; 0xff
  4016a4:	d01a      	beq.n	4016dc <afec_enable+0x50>
 */
__attribute__( ( always_inline ) ) __STATIC_INLINE uint32_t __get_PRIMASK(void)
{
  uint32_t result;

  __ASM volatile ("MRS %0, primask" : "=r" (result) );
  4016a6:	f3ef 8310 	mrs	r3, PRIMASK
static volatile uint32_t cpu_irq_critical_section_counter;
static volatile bool     cpu_irq_prev_interrupt_state;

static inline irqflags_t cpu_irq_save(void)
{
	volatile irqflags_t flags = cpu_irq_is_enabled();
  4016aa:	fab3 f383 	clz	r3, r3
  4016ae:	095b      	lsrs	r3, r3, #5
  4016b0:	9301      	str	r3, [sp, #4]
  __ASM volatile ("cpsid i" : : : "memory");
  4016b2:	b672      	cpsid	i
  __ASM volatile ("dmb");
  4016b4:	f3bf 8f5f 	dmb	sy
	cpu_irq_disable();
  4016b8:	2200      	movs	r2, #0
  4016ba:	4b0c      	ldr	r3, [pc, #48]	; (4016ec <afec_enable+0x60>)
  4016bc:	701a      	strb	r2, [r3, #0]
	return flags;
  4016be:	9901      	ldr	r1, [sp, #4]
	}

	// Enter a critical section
	flags = cpu_irq_save();

	++sleepmgr_locks[mode];
  4016c0:	4a09      	ldr	r2, [pc, #36]	; (4016e8 <afec_enable+0x5c>)
  4016c2:	7893      	ldrb	r3, [r2, #2]
  4016c4:	3301      	adds	r3, #1
  4016c6:	7093      	strb	r3, [r2, #2]
	return (flags);
}

static inline void cpu_irq_restore(irqflags_t flags)
{
	if (cpu_irq_is_enabled_flags(flags))
  4016c8:	b129      	cbz	r1, 4016d6 <afec_enable+0x4a>
		cpu_irq_enable();
  4016ca:	2201      	movs	r2, #1
  4016cc:	4b07      	ldr	r3, [pc, #28]	; (4016ec <afec_enable+0x60>)
  4016ce:	701a      	strb	r2, [r3, #0]
  4016d0:	f3bf 8f5f 	dmb	sy
  __ASM volatile ("cpsie i" : : : "memory");
  4016d4:	b662      	cpsie	i
	sleepmgr_lock_mode(SLEEPMGR_SLEEP_WFI);
}
  4016d6:	b003      	add	sp, #12
  4016d8:	f85d fb04 	ldr.w	pc, [sp], #4
  4016dc:	e7fe      	b.n	4016dc <afec_enable+0x50>
  4016de:	bf00      	nop
  4016e0:	40064000 	.word	0x40064000
  4016e4:	004020b9 	.word	0x004020b9
  4016e8:	2040c434 	.word	0x2040c434
  4016ec:	20400030 	.word	0x20400030

004016f0 <hsmci_reset>:

/**
 * \brief Reset the HSMCI interface
 */
static void hsmci_reset(void)
{
  4016f0:	b470      	push	{r4, r5, r6}
	uint32_t mr = HSMCI->HSMCI_MR;
  4016f2:	f04f 4380 	mov.w	r3, #1073741824	; 0x40000000
  4016f6:	685d      	ldr	r5, [r3, #4]
	uint32_t dtor = HSMCI->HSMCI_DTOR;
  4016f8:	689c      	ldr	r4, [r3, #8]
	uint32_t sdcr = HSMCI->HSMCI_SDCR;
  4016fa:	68d8      	ldr	r0, [r3, #12]
	uint32_t cstor = HSMCI->HSMCI_CSTOR;
  4016fc:	69d9      	ldr	r1, [r3, #28]
	uint32_t cfg = HSMCI->HSMCI_CFG;
  4016fe:	6d5a      	ldr	r2, [r3, #84]	; 0x54
	HSMCI->HSMCI_CR = HSMCI_CR_SWRST;
  401700:	2680      	movs	r6, #128	; 0x80
  401702:	601e      	str	r6, [r3, #0]
	HSMCI->HSMCI_MR = mr;
  401704:	605d      	str	r5, [r3, #4]
	HSMCI->HSMCI_DTOR = dtor;
  401706:	609c      	str	r4, [r3, #8]
	HSMCI->HSMCI_SDCR = sdcr;
  401708:	60d8      	str	r0, [r3, #12]
	HSMCI->HSMCI_CSTOR = cstor;
  40170a:	61d9      	str	r1, [r3, #28]
	HSMCI->HSMCI_CFG = cfg;
  40170c:	655a      	str	r2, [r3, #84]	; 0x54
#ifdef HSMCI_SR_DMADONE
	HSMCI->HSMCI_DMA = 0;
#endif
#if (SAMV70 || SAMV71 || SAME70 || SAMS70)
#ifdef HSMCI_DMA_DMAEN
	HSMCI->HSMCI_DMA = 0;
  40170e:	2200      	movs	r2, #0
  401710:	651a      	str	r2, [r3, #80]	; 0x50
#endif
#endif
	// Enable the HSMCI
	HSMCI->HSMCI_CR = HSMCI_CR_PWSEN | HSMCI_CR_MCIEN;
  401712:	2205      	movs	r2, #5
  401714:	601a      	str	r2, [r3, #0]
}
  401716:	bc70      	pop	{r4, r5, r6}
  401718:	4770      	bx	lr
	...

0040171c <hsmci_send_cmd_execute>:
 *
 * \return true if success, otherwise false
 */
static bool hsmci_send_cmd_execute(uint32_t cmdr, sdmmc_cmd_def_t cmd,
		uint32_t arg)
{
  40171c:	b508      	push	{r3, lr}
	uint32_t sr;

	cmdr |= HSMCI_CMDR_CMDNB(cmd) | HSMCI_CMDR_SPCMD_STD;
  40171e:	f001 033f 	and.w	r3, r1, #63	; 0x3f
  401722:	4318      	orrs	r0, r3
	if (cmd & SDMMC_RESP_PRESENT) {
  401724:	f411 7f80 	tst.w	r1, #256	; 0x100
  401728:	d004      	beq.n	401734 <hsmci_send_cmd_execute+0x18>
		cmdr |= HSMCI_CMDR_MAXLAT;
		if (cmd & SDMMC_RESP_136) {
  40172a:	f411 6f00 	tst.w	r1, #2048	; 0x800
  40172e:	d00e      	beq.n	40174e <hsmci_send_cmd_execute+0x32>
			cmdr |= HSMCI_CMDR_RSPTYP_136_BIT;
  401730:	f440 5084 	orr.w	r0, r0, #4224	; 0x1080
			cmdr |= HSMCI_CMDR_RSPTYP_R1B;
		} else {
			cmdr |= HSMCI_CMDR_RSPTYP_48_BIT;
		}
	}
	if (cmd & SDMMC_CMD_OPENDRAIN) {
  401734:	f411 4f80 	tst.w	r1, #16384	; 0x4000
		cmdr |= HSMCI_CMDR_OPDCMD_OPENDRAIN;
  401738:	bf18      	it	ne
  40173a:	f440 6000 	orrne.w	r0, r0, #2048	; 0x800
	}

	// Write argument
	HSMCI->HSMCI_ARGR = arg;
  40173e:	f04f 4380 	mov.w	r3, #1073741824	; 0x40000000
  401742:	611a      	str	r2, [r3, #16]
	// Write and start command
	HSMCI->HSMCI_CMDR = cmdr;
  401744:	6158      	str	r0, [r3, #20]

	// Wait end of command
	do {
		sr = HSMCI->HSMCI_SR;
  401746:	4618      	mov	r0, r3
		if (cmd & SDMMC_RESP_CRC) {
  401748:	f401 5280 	and.w	r2, r1, #4096	; 0x1000
  40174c:	e00d      	b.n	40176a <hsmci_send_cmd_execute+0x4e>
		} else if (cmd & SDMMC_RESP_BUSY) {
  40174e:	f411 5f00 	tst.w	r1, #8192	; 0x2000
			cmdr |= HSMCI_CMDR_RSPTYP_R1B;
  401752:	bf14      	ite	ne
  401754:	f440 5086 	orrne.w	r0, r0, #4288	; 0x10c0
			cmdr |= HSMCI_CMDR_RSPTYP_48_BIT;
  401758:	f440 5082 	orreq.w	r0, r0, #4160	; 0x1040
  40175c:	e7ea      	b.n	401734 <hsmci_send_cmd_execute+0x18>
						__func__, cmd, sr);
				hsmci_reset();
				return false;
			}
		} else {
			if (sr & (HSMCI_SR_CSTOE | HSMCI_SR_RTOE
  40175e:	f413 0f1b 	tst.w	r3, #10158080	; 0x9b0000
  401762:	d10c      	bne.n	40177e <hsmci_send_cmd_execute+0x62>
						__func__, cmd, sr);
				hsmci_reset();
				return false;
			}
		}
	} while (!(sr & HSMCI_SR_CMDRDY));
  401764:	f013 0f01 	tst.w	r3, #1
  401768:	d10d      	bne.n	401786 <hsmci_send_cmd_execute+0x6a>
		sr = HSMCI->HSMCI_SR;
  40176a:	6c03      	ldr	r3, [r0, #64]	; 0x40
		if (cmd & SDMMC_RESP_CRC) {
  40176c:	2a00      	cmp	r2, #0
  40176e:	d0f6      	beq.n	40175e <hsmci_send_cmd_execute+0x42>
			if (sr & (HSMCI_SR_CSTOE | HSMCI_SR_RTOE
  401770:	f413 0f1f 	tst.w	r3, #10420224	; 0x9f0000
  401774:	d0f6      	beq.n	401764 <hsmci_send_cmd_execute+0x48>
				hsmci_reset();
  401776:	4b10      	ldr	r3, [pc, #64]	; (4017b8 <hsmci_send_cmd_execute+0x9c>)
  401778:	4798      	blx	r3
				return false;
  40177a:	2000      	movs	r0, #0
  40177c:	bd08      	pop	{r3, pc}
				hsmci_reset();
  40177e:	4b0e      	ldr	r3, [pc, #56]	; (4017b8 <hsmci_send_cmd_execute+0x9c>)
  401780:	4798      	blx	r3
				return false;
  401782:	2000      	movs	r0, #0
  401784:	bd08      	pop	{r3, pc}

	if (cmd & SDMMC_RESP_BUSY) {
  401786:	f411 5f00 	tst.w	r1, #8192	; 0x2000
  40178a:	d103      	bne.n	401794 <hsmci_send_cmd_execute+0x78>
		if (!hsmci_wait_busy()) {
			return false;
		}
	}
	return true;
  40178c:	2001      	movs	r0, #1
  40178e:	bd08      	pop	{r3, pc}
	return true;
  401790:	2001      	movs	r0, #1
  401792:	bd08      	pop	{r3, pc}
		sr = HSMCI->HSMCI_SR;
  401794:	f04f 4380 	mov.w	r3, #1073741824	; 0x40000000
  401798:	6c1b      	ldr	r3, [r3, #64]	; 0x40
  40179a:	f04f 32ff 	mov.w	r2, #4294967295
  40179e:	f04f 4180 	mov.w	r1, #1073741824	; 0x40000000
	} while (!((sr & HSMCI_SR_NOTBUSY) && ((sr & HSMCI_SR_DTIP) == 0)));
  4017a2:	f003 0330 	and.w	r3, r3, #48	; 0x30
  4017a6:	2b20      	cmp	r3, #32
  4017a8:	d0f2      	beq.n	401790 <hsmci_send_cmd_execute+0x74>
		sr = HSMCI->HSMCI_SR;
  4017aa:	6c0b      	ldr	r3, [r1, #64]	; 0x40
		if (busy_wait-- == 0) {
  4017ac:	3a01      	subs	r2, #1
  4017ae:	d1f8      	bne.n	4017a2 <hsmci_send_cmd_execute+0x86>
			hsmci_reset();
  4017b0:	4b01      	ldr	r3, [pc, #4]	; (4017b8 <hsmci_send_cmd_execute+0x9c>)
  4017b2:	4798      	blx	r3
			return false;
  4017b4:	2000      	movs	r0, #0
  4017b6:	bd08      	pop	{r3, pc}
  4017b8:	004016f1 	.word	0x004016f1

004017bc <hsmci_init>:

//-------------------------------------------------------------------
//--------------------- PUBLIC FUNCTIONS ----------------------------

void hsmci_init(void)
{
  4017bc:	b510      	push	{r4, lr}
	pmc_enable_periph_clk(ID_HSMCI);
  4017be:	2012      	movs	r0, #18
  4017c0:	4c08      	ldr	r4, [pc, #32]	; (4017e4 <hsmci_init+0x28>)
  4017c2:	47a0      	blx	r4
#endif

#if (SAMV70 || SAMV71 || SAME70 || SAMS70)
#ifdef HSMCI_DMA_DMAEN
	// Enable clock for DMA controller
	pmc_enable_periph_clk(ID_XDMAC);
  4017c4:	203a      	movs	r0, #58	; 0x3a
  4017c6:	47a0      	blx	r4
#endif
#endif

	// Set the Data Timeout Register to 2 Mega Cycles
	HSMCI->HSMCI_DTOR = HSMCI_DTOR_DTOMUL_1048576 | HSMCI_DTOR_DTOCYC(2);
  4017c8:	f04f 4380 	mov.w	r3, #1073741824	; 0x40000000
  4017cc:	2272      	movs	r2, #114	; 0x72
  4017ce:	609a      	str	r2, [r3, #8]
	// Set Completion Signal Timeout to 2 Mega Cycles
	HSMCI->HSMCI_CSTOR = HSMCI_CSTOR_CSTOMUL_1048576 | HSMCI_CSTOR_CSTOCYC(2);
  4017d0:	61da      	str	r2, [r3, #28]
	// Set Configuration Register
	HSMCI->HSMCI_CFG = HSMCI_CFG_FIFOMODE | HSMCI_CFG_FERRCTRL;
  4017d2:	2211      	movs	r2, #17
  4017d4:	655a      	str	r2, [r3, #84]	; 0x54
	// Set power saving to maximum value
	HSMCI->HSMCI_MR = HSMCI_MR_PWSDIV_Msk;
  4017d6:	f44f 62e0 	mov.w	r2, #1792	; 0x700
  4017da:	605a      	str	r2, [r3, #4]

	// Enable the HSMCI and the Power Saving
	HSMCI->HSMCI_CR = HSMCI_CR_MCIEN | HSMCI_CR_PWSEN;
  4017dc:	2205      	movs	r2, #5
  4017de:	601a      	str	r2, [r3, #0]
  4017e0:	bd10      	pop	{r4, pc}
  4017e2:	bf00      	nop
  4017e4:	004020b9 	.word	0x004020b9

004017e8 <hsmci_get_bus_width>:
}

uint8_t hsmci_get_bus_width(uint8_t slot)
{
	switch (slot) {
  4017e8:	2800      	cmp	r0, #0
		return SD_MMC_HSMCI_SLOT_1_SIZE;
#endif
	default:
		return 0; // Slot number wrong
	}
}
  4017ea:	bf0c      	ite	eq
  4017ec:	2004      	moveq	r0, #4
  4017ee:	2000      	movne	r0, #0
  4017f0:	4770      	bx	lr

004017f2 <hsmci_is_high_speed_capable>:

bool hsmci_is_high_speed_capable(void)
{
	return true;
}
  4017f2:	2001      	movs	r0, #1
  4017f4:	4770      	bx	lr
	...

004017f8 <hsmci_select_device>:
void hsmci_select_device(uint8_t slot, uint32_t clock, uint8_t bus_width, bool high_speed)
{
	uint32_t hsmci_slot = HSMCI_SDCR_SDCSEL_SLOTA;
	uint32_t hsmci_bus_width = HSMCI_SDCR_SDCBUS_1;

	if (high_speed) {
  4017f8:	b37b      	cbz	r3, 40185a <hsmci_select_device+0x62>
		HSMCI->HSMCI_CFG |= HSMCI_CFG_HSMODE;
  4017fa:	f04f 4080 	mov.w	r0, #1073741824	; 0x40000000
  4017fe:	6d43      	ldr	r3, [r0, #84]	; 0x54
  401800:	f443 7380 	orr.w	r3, r3, #256	; 0x100
  401804:	6543      	str	r3, [r0, #84]	; 0x54
	if ((speed * 2) < mck) {
  401806:	4b2b      	ldr	r3, [pc, #172]	; (4018b4 <hsmci_select_device+0xbc>)
  401808:	ebb3 0f41 	cmp.w	r3, r1, lsl #1
  40180c:	d337      	bcc.n	40187e <hsmci_select_device+0x86>
{
  40180e:	b410      	push	{r4}
		div = (mck / speed) - 2;
  401810:	4829      	ldr	r0, [pc, #164]	; (4018b8 <hsmci_select_device+0xc0>)
  401812:	fbb0 f3f1 	udiv	r3, r0, r1
		if (mck % speed) {
  401816:	fb01 0113 	mls	r1, r1, r3, r0
  40181a:	bb29      	cbnz	r1, 401868 <hsmci_select_device+0x70>
		div = (mck / speed) - 2;
  40181c:	3b02      	subs	r3, #2
	HSMCI->HSMCI_MR &= ~HSMCI_MR_CLKDIV_Msk;
  40181e:	f04f 4180 	mov.w	r1, #1073741824	; 0x40000000
  401822:	6848      	ldr	r0, [r1, #4]
  401824:	f020 00ff 	bic.w	r0, r0, #255	; 0xff
  401828:	6048      	str	r0, [r1, #4]
	HSMCI->HSMCI_MR |= HSMCI_MR_CLKDIV(clkdiv);
  40182a:	684c      	ldr	r4, [r1, #4]
  40182c:	f3c3 0047 	ubfx	r0, r3, #1, #8
  401830:	4320      	orrs	r0, r4
  401832:	6048      	str	r0, [r1, #4]
	if (clkodd) {
  401834:	f013 0f01 	tst.w	r3, #1
  401838:	d018      	beq.n	40186c <hsmci_select_device+0x74>
		HSMCI->HSMCI_MR |= HSMCI_MR_CLKODD;
  40183a:	684b      	ldr	r3, [r1, #4]
  40183c:	f443 3380 	orr.w	r3, r3, #65536	; 0x10000
  401840:	604b      	str	r3, [r1, #4]
#endif
	default:
		Assert(false); // Slot number wrong
	}

	switch (bus_width) {
  401842:	2a04      	cmp	r2, #4
  401844:	d019      	beq.n	40187a <hsmci_select_device+0x82>
	uint32_t hsmci_bus_width = HSMCI_SDCR_SDCBUS_1;
  401846:	2a08      	cmp	r2, #8
  401848:	bf0c      	ite	eq
  40184a:	22c0      	moveq	r2, #192	; 0xc0
  40184c:	2200      	movne	r2, #0
		break;

	default:
		Assert(false); // Bus width wrong
	}
	HSMCI->HSMCI_SDCR = hsmci_slot | hsmci_bus_width;
  40184e:	f04f 4380 	mov.w	r3, #1073741824	; 0x40000000
  401852:	60da      	str	r2, [r3, #12]
}
  401854:	f85d 4b04 	ldr.w	r4, [sp], #4
  401858:	4770      	bx	lr
		HSMCI->HSMCI_CFG &= ~HSMCI_CFG_HSMODE;
  40185a:	f04f 4080 	mov.w	r0, #1073741824	; 0x40000000
  40185e:	6d43      	ldr	r3, [r0, #84]	; 0x54
  401860:	f423 7380 	bic.w	r3, r3, #256	; 0x100
  401864:	6543      	str	r3, [r0, #84]	; 0x54
  401866:	e7ce      	b.n	401806 <hsmci_select_device+0xe>
			div++;
  401868:	3b01      	subs	r3, #1
  40186a:	e7d8      	b.n	40181e <hsmci_select_device+0x26>
		HSMCI->HSMCI_MR &= ~HSMCI_MR_CLKODD;
  40186c:	f04f 4180 	mov.w	r1, #1073741824	; 0x40000000
  401870:	684b      	ldr	r3, [r1, #4]
  401872:	f423 3380 	bic.w	r3, r3, #65536	; 0x10000
  401876:	604b      	str	r3, [r1, #4]
  401878:	e7e3      	b.n	401842 <hsmci_select_device+0x4a>
		hsmci_bus_width = HSMCI_SDCR_SDCBUS_4;
  40187a:	2280      	movs	r2, #128	; 0x80
  40187c:	e7e7      	b.n	40184e <hsmci_select_device+0x56>
	HSMCI->HSMCI_MR &= ~HSMCI_MR_CLKDIV_Msk;
  40187e:	f04f 4380 	mov.w	r3, #1073741824	; 0x40000000
  401882:	6859      	ldr	r1, [r3, #4]
  401884:	f021 01ff 	bic.w	r1, r1, #255	; 0xff
  401888:	6059      	str	r1, [r3, #4]
	HSMCI->HSMCI_MR |= HSMCI_MR_CLKDIV(clkdiv);
  40188a:	6859      	ldr	r1, [r3, #4]
  40188c:	6059      	str	r1, [r3, #4]
		HSMCI->HSMCI_MR &= ~HSMCI_MR_CLKODD;
  40188e:	f04f 4180 	mov.w	r1, #1073741824	; 0x40000000
  401892:	684b      	ldr	r3, [r1, #4]
  401894:	f423 3380 	bic.w	r3, r3, #65536	; 0x10000
  401898:	604b      	str	r3, [r1, #4]
	switch (bus_width) {
  40189a:	2a04      	cmp	r2, #4
  40189c:	d007      	beq.n	4018ae <hsmci_select_device+0xb6>
	uint32_t hsmci_bus_width = HSMCI_SDCR_SDCBUS_1;
  40189e:	2a08      	cmp	r2, #8
  4018a0:	bf0c      	ite	eq
  4018a2:	22c0      	moveq	r2, #192	; 0xc0
  4018a4:	2200      	movne	r2, #0
	HSMCI->HSMCI_SDCR = hsmci_slot | hsmci_bus_width;
  4018a6:	f04f 4380 	mov.w	r3, #1073741824	; 0x40000000
  4018aa:	60da      	str	r2, [r3, #12]
  4018ac:	4770      	bx	lr
		hsmci_bus_width = HSMCI_SDCR_SDCBUS_4;
  4018ae:	2280      	movs	r2, #128	; 0x80
  4018b0:	e7f9      	b.n	4018a6 <hsmci_select_device+0xae>
  4018b2:	bf00      	nop
  4018b4:	08f0d17f 	.word	0x08f0d17f
  4018b8:	08f0d180 	.word	0x08f0d180

004018bc <hsmci_deselect_device>:

void hsmci_deselect_device(uint8_t slot)
{
  4018bc:	4770      	bx	lr

004018be <hsmci_send_clock>:
}

void hsmci_send_clock(void)
{
	// Configure command
	HSMCI->HSMCI_MR &= ~(HSMCI_MR_WRPROOF | HSMCI_MR_RDPROOF | HSMCI_MR_FBYTE);
  4018be:	f04f 4380 	mov.w	r3, #1073741824	; 0x40000000
  4018c2:	685a      	ldr	r2, [r3, #4]
  4018c4:	f422 5260 	bic.w	r2, r2, #14336	; 0x3800
  4018c8:	605a      	str	r2, [r3, #4]
	// Write argument
	HSMCI->HSMCI_ARGR = 0;
  4018ca:	2200      	movs	r2, #0
  4018cc:	611a      	str	r2, [r3, #16]
	// Write and start initialization command
	HSMCI->HSMCI_CMDR = HSMCI_CMDR_RSPTYP_NORESP
  4018ce:	f44f 6210 	mov.w	r2, #2304	; 0x900
  4018d2:	615a      	str	r2, [r3, #20]
			| HSMCI_CMDR_SPCMD_INIT
			| HSMCI_CMDR_OPDCMD_OPENDRAIN;
	// Wait end of initialization command
	while (!(HSMCI->HSMCI_SR & HSMCI_SR_CMDRDY));
  4018d4:	461a      	mov	r2, r3
  4018d6:	6c13      	ldr	r3, [r2, #64]	; 0x40
  4018d8:	f013 0f01 	tst.w	r3, #1
  4018dc:	d0fb      	beq.n	4018d6 <hsmci_send_clock+0x18>
}
  4018de:	4770      	bx	lr

004018e0 <hsmci_send_cmd>:

bool hsmci_send_cmd(sdmmc_cmd_def_t cmd, uint32_t arg)
{
  4018e0:	b510      	push	{r4, lr}
	// Configure command
	HSMCI->HSMCI_MR &= ~(HSMCI_MR_WRPROOF | HSMCI_MR_RDPROOF | HSMCI_MR_FBYTE);
  4018e2:	f04f 4380 	mov.w	r3, #1073741824	; 0x40000000
  4018e6:	685a      	ldr	r2, [r3, #4]
  4018e8:	f422 5260 	bic.w	r2, r2, #14336	; 0x3800
  4018ec:	605a      	str	r2, [r3, #4]
	HSMCI->HSMCI_MR &= ~HSMCI_MR_PDCMODE;
#endif
#if (SAMV70 || SAMV71 || SAME70 || SAMS70)
#ifdef HSMCI_DMA_DMAEN
	// Disable DMA for HSMCI
	HSMCI->HSMCI_DMA = 0;
  4018ee:	2400      	movs	r4, #0
  4018f0:	651c      	str	r4, [r3, #80]	; 0x50
#endif
#endif
	HSMCI->HSMCI_BLKR = 0;
  4018f2:	619c      	str	r4, [r3, #24]
	return hsmci_send_cmd_execute(0, cmd, arg);
  4018f4:	460a      	mov	r2, r1
  4018f6:	4601      	mov	r1, r0
  4018f8:	4620      	mov	r0, r4
  4018fa:	4b01      	ldr	r3, [pc, #4]	; (401900 <hsmci_send_cmd+0x20>)
  4018fc:	4798      	blx	r3
}
  4018fe:	bd10      	pop	{r4, pc}
  401900:	0040171d 	.word	0x0040171d

00401904 <hsmci_get_response>:

uint32_t hsmci_get_response(void)
{
	return HSMCI->HSMCI_RSPR[0];
  401904:	f04f 4380 	mov.w	r3, #1073741824	; 0x40000000
  401908:	6a18      	ldr	r0, [r3, #32]
}
  40190a:	4770      	bx	lr

0040190c <hsmci_get_response_128>:

void hsmci_get_response_128(uint8_t* response)
{
  40190c:	b410      	push	{r4}
  40190e:	1d03      	adds	r3, r0, #4
  401910:	3014      	adds	r0, #20
	uint32_t response_32;

	for (uint8_t i = 0; i < 4; i++) {
		response_32 = HSMCI->HSMCI_RSPR[0];
  401912:	f04f 4480 	mov.w	r4, #1073741824	; 0x40000000
  401916:	6a22      	ldr	r2, [r4, #32]
		*response = (response_32 >> 24) & 0xFF;
  401918:	0e11      	lsrs	r1, r2, #24
  40191a:	f803 1c04 	strb.w	r1, [r3, #-4]
		response++;
		*response = (response_32 >> 16) & 0xFF;
  40191e:	0c11      	lsrs	r1, r2, #16
  401920:	f803 1c03 	strb.w	r1, [r3, #-3]
		response++;
		*response = (response_32 >>  8) & 0xFF;
  401924:	0a11      	lsrs	r1, r2, #8
  401926:	f803 1c02 	strb.w	r1, [r3, #-2]
		response++;
		*response = (response_32 >>  0) & 0xFF;
  40192a:	f803 2c01 	strb.w	r2, [r3, #-1]
  40192e:	3304      	adds	r3, #4
	for (uint8_t i = 0; i < 4; i++) {
  401930:	4283      	cmp	r3, r0
  401932:	d1f0      	bne.n	401916 <hsmci_get_response_128+0xa>
		response++;
	}
}
  401934:	f85d 4b04 	ldr.w	r4, [sp], #4
  401938:	4770      	bx	lr
	...

0040193c <hsmci_adtc_start>:

bool hsmci_adtc_start(sdmmc_cmd_def_t cmd, uint32_t arg, uint16_t block_size, uint16_t nb_block, bool access_block)
{
  40193c:	b570      	push	{r4, r5, r6, lr}
  40193e:	f89d 4010 	ldrb.w	r4, [sp, #16]
	}
#endif

#if (SAMV70 || SAMV71 || SAME70 || SAMS70)
#ifdef HSMCI_DMA_DMAEN
	if (access_block) {
  401942:	b384      	cbz	r4, 4019a6 <hsmci_adtc_start+0x6a>
		// Enable DMA for HSMCI
		HSMCI->HSMCI_DMA = HSMCI_DMA_DMAEN;
  401944:	f44f 7580 	mov.w	r5, #256	; 0x100
  401948:	f04f 4480 	mov.w	r4, #1073741824	; 0x40000000
  40194c:	6525      	str	r5, [r4, #80]	; 0x50
#endif
#endif
	// Enabling Read/Write Proof allows to stop the HSMCI Clock during
	// read/write  access if the internal FIFO is full.
	// This will guarantee data integrity, not bandwidth.
	HSMCI->HSMCI_MR |= HSMCI_MR_WRPROOF | HSMCI_MR_RDPROOF;
  40194e:	f04f 4580 	mov.w	r5, #1073741824	; 0x40000000
  401952:	686c      	ldr	r4, [r5, #4]
  401954:	f444 54c0 	orr.w	r4, r4, #6144	; 0x1800
  401958:	606c      	str	r4, [r5, #4]
	// Force byte transfer if needed
	if (block_size & 0x3) {
  40195a:	f012 0f03 	tst.w	r2, #3
  40195e:	d027      	beq.n	4019b0 <hsmci_adtc_start+0x74>
		HSMCI->HSMCI_MR |= HSMCI_MR_FBYTE;
  401960:	686c      	ldr	r4, [r5, #4]
  401962:	f444 5400 	orr.w	r4, r4, #8192	; 0x2000
  401966:	606c      	str	r4, [r5, #4]
	} else {
		HSMCI->HSMCI_MR &= ~HSMCI_MR_FBYTE;
	}

	if (cmd & SDMMC_CMD_WRITE) {
  401968:	f400 4400 	and.w	r4, r0, #32768	; 0x8000
		cmdr = HSMCI_CMDR_TRCMD_START_DATA | HSMCI_CMDR_TRDIR_WRITE;
	} else {
		cmdr = HSMCI_CMDR_TRCMD_START_DATA | HSMCI_CMDR_TRDIR_READ;
  40196c:	2c00      	cmp	r4, #0
  40196e:	bf14      	ite	ne
  401970:	f44f 3480 	movne.w	r4, #65536	; 0x10000
  401974:	f44f 24a0 	moveq.w	r4, #327680	; 0x50000
	}

	if (cmd & SDMMC_CMD_SDIO_BYTE) {
  401978:	f410 3f80 	tst.w	r0, #65536	; 0x10000
  40197c:	d11f      	bne.n	4019be <hsmci_adtc_start+0x82>
			cmdr |= HSMCI_CMDR_TRTYP_BYTE;
			// Value 0 corresponds to a 512-byte transfer
			HSMCI->HSMCI_BLKR = ((block_size % 512) << HSMCI_BLKR_BCNT_Pos);
	} else {
		HSMCI->HSMCI_BLKR = (block_size << HSMCI_BLKR_BLKLEN_Pos) |
  40197e:	ea43 4502 	orr.w	r5, r3, r2, lsl #16
  401982:	f04f 4680 	mov.w	r6, #1073741824	; 0x40000000
  401986:	61b5      	str	r5, [r6, #24]
				(nb_block << HSMCI_BLKR_BCNT_Pos);
		if (cmd & SDMMC_CMD_SDIO_BLOCK) {
  401988:	f410 3f00 	tst.w	r0, #131072	; 0x20000
  40198c:	d12b      	bne.n	4019e6 <hsmci_adtc_start+0xaa>
			cmdr |= HSMCI_CMDR_TRTYP_BLOCK;
		} else if (cmd & SDMMC_CMD_STREAM) {
  40198e:	f410 2f80 	tst.w	r0, #262144	; 0x40000
  401992:	d12b      	bne.n	4019ec <hsmci_adtc_start+0xb0>
			cmdr |= HSMCI_CMDR_TRTYP_STREAM;
		} else if (cmd & SDMMC_CMD_SINGLE_BLOCK) {
  401994:	f410 2f00 	tst.w	r0, #524288	; 0x80000
  401998:	d118      	bne.n	4019cc <hsmci_adtc_start+0x90>
			cmdr |= HSMCI_CMDR_TRTYP_SINGLE;
		} else if (cmd & SDMMC_CMD_MULTI_BLOCK) {
  40199a:	f410 1f80 	tst.w	r0, #1048576	; 0x100000
			cmdr |= HSMCI_CMDR_TRTYP_MULTIPLE;
  40199e:	bf18      	it	ne
  4019a0:	f444 2400 	orrne.w	r4, r4, #524288	; 0x80000
  4019a4:	e012      	b.n	4019cc <hsmci_adtc_start+0x90>
		HSMCI->HSMCI_DMA = 0;
  4019a6:	2500      	movs	r5, #0
  4019a8:	f04f 4480 	mov.w	r4, #1073741824	; 0x40000000
  4019ac:	6525      	str	r5, [r4, #80]	; 0x50
  4019ae:	e7ce      	b.n	40194e <hsmci_adtc_start+0x12>
		HSMCI->HSMCI_MR &= ~HSMCI_MR_FBYTE;
  4019b0:	f04f 4580 	mov.w	r5, #1073741824	; 0x40000000
  4019b4:	686c      	ldr	r4, [r5, #4]
  4019b6:	f424 5400 	bic.w	r4, r4, #8192	; 0x2000
  4019ba:	606c      	str	r4, [r5, #4]
  4019bc:	e7d4      	b.n	401968 <hsmci_adtc_start+0x2c>
			cmdr |= HSMCI_CMDR_TRTYP_BYTE;
  4019be:	f444 1400 	orr.w	r4, r4, #2097152	; 0x200000
			HSMCI->HSMCI_BLKR = ((block_size % 512) << HSMCI_BLKR_BCNT_Pos);
  4019c2:	f3c2 0508 	ubfx	r5, r2, #0, #9
  4019c6:	f04f 4680 	mov.w	r6, #1073741824	; 0x40000000
  4019ca:	61b5      	str	r5, [r6, #24]
		} else {
			Assert(false); // Incorrect flags
		}
	}
	hsmci_transfert_pos = 0;
  4019cc:	2600      	movs	r6, #0
  4019ce:	4d09      	ldr	r5, [pc, #36]	; (4019f4 <hsmci_adtc_start+0xb8>)
  4019d0:	602e      	str	r6, [r5, #0]
	hsmci_block_size = block_size;
  4019d2:	4d09      	ldr	r5, [pc, #36]	; (4019f8 <hsmci_adtc_start+0xbc>)
  4019d4:	802a      	strh	r2, [r5, #0]
	hsmci_nb_block = nb_block;
  4019d6:	4a09      	ldr	r2, [pc, #36]	; (4019fc <hsmci_adtc_start+0xc0>)
  4019d8:	8013      	strh	r3, [r2, #0]

	return hsmci_send_cmd_execute(cmdr, cmd, arg);
  4019da:	460a      	mov	r2, r1
  4019dc:	4601      	mov	r1, r0
  4019de:	4620      	mov	r0, r4
  4019e0:	4b07      	ldr	r3, [pc, #28]	; (401a00 <hsmci_adtc_start+0xc4>)
  4019e2:	4798      	blx	r3
}
  4019e4:	bd70      	pop	{r4, r5, r6, pc}
			cmdr |= HSMCI_CMDR_TRTYP_BLOCK;
  4019e6:	f444 1420 	orr.w	r4, r4, #2621440	; 0x280000
  4019ea:	e7ef      	b.n	4019cc <hsmci_adtc_start+0x90>
			cmdr |= HSMCI_CMDR_TRTYP_STREAM;
  4019ec:	f444 1480 	orr.w	r4, r4, #1048576	; 0x100000
  4019f0:	e7ec      	b.n	4019cc <hsmci_adtc_start+0x90>
  4019f2:	bf00      	nop
  4019f4:	20400a18 	.word	0x20400a18
  4019f8:	20400a12 	.word	0x20400a12
  4019fc:	20400a14 	.word	0x20400a14
  401a00:	0040171d 	.word	0x0040171d

00401a04 <hsmci_read_word>:
{
	return hsmci_send_cmd_execute(HSMCI_CMDR_TRCMD_STOP_DATA, cmd, arg);
}

bool hsmci_read_word(uint32_t* value)
{
  401a04:	b508      	push	{r3, lr}

	Assert(((uint32_t)hsmci_block_size * hsmci_nb_block) > hsmci_transfert_pos);

	// Wait data available
	do {
		sr = HSMCI->HSMCI_SR;
  401a06:	f04f 4180 	mov.w	r1, #1073741824	; 0x40000000
		if (sr & (HSMCI_SR_UNRE | HSMCI_SR_OVRE | \
  401a0a:	4a16      	ldr	r2, [pc, #88]	; (401a64 <hsmci_read_word+0x60>)
		sr = HSMCI->HSMCI_SR;
  401a0c:	6c0b      	ldr	r3, [r1, #64]	; 0x40
		if (sr & (HSMCI_SR_UNRE | HSMCI_SR_OVRE | \
  401a0e:	4213      	tst	r3, r2
  401a10:	d11d      	bne.n	401a4e <hsmci_read_word+0x4a>
			hsmci_debug("%s: DMA sr 0x%08x error\n\r",
					__func__, sr);
			hsmci_reset();
			return false;
		}
	} while (!(sr & HSMCI_SR_RXRDY));
  401a12:	f013 0f02 	tst.w	r3, #2
  401a16:	d0f9      	beq.n	401a0c <hsmci_read_word+0x8>

	// Read data
	*value = HSMCI->HSMCI_RDR;
  401a18:	f04f 4380 	mov.w	r3, #1073741824	; 0x40000000
  401a1c:	6b1b      	ldr	r3, [r3, #48]	; 0x30
  401a1e:	6003      	str	r3, [r0, #0]
	hsmci_transfert_pos += 4;
  401a20:	4a11      	ldr	r2, [pc, #68]	; (401a68 <hsmci_read_word+0x64>)
  401a22:	6813      	ldr	r3, [r2, #0]
  401a24:	3304      	adds	r3, #4
  401a26:	6013      	str	r3, [r2, #0]
	if (((uint32_t)hsmci_block_size * hsmci_nb_block) > hsmci_transfert_pos) {
  401a28:	4a10      	ldr	r2, [pc, #64]	; (401a6c <hsmci_read_word+0x68>)
  401a2a:	8811      	ldrh	r1, [r2, #0]
  401a2c:	4a10      	ldr	r2, [pc, #64]	; (401a70 <hsmci_read_word+0x6c>)
  401a2e:	8812      	ldrh	r2, [r2, #0]
  401a30:	fb02 f201 	mul.w	r2, r2, r1
  401a34:	4293      	cmp	r3, r2
  401a36:	d312      	bcc.n	401a5e <hsmci_read_word+0x5a>
	}

	// Wait end of transfer
	// Note: no need of timeout, because it is include in HSMCI
	do {
		sr = HSMCI->HSMCI_SR;
  401a38:	f04f 4180 	mov.w	r1, #1073741824	; 0x40000000
		if (sr & (HSMCI_SR_UNRE | HSMCI_SR_OVRE | \
  401a3c:	4a09      	ldr	r2, [pc, #36]	; (401a64 <hsmci_read_word+0x60>)
		sr = HSMCI->HSMCI_SR;
  401a3e:	6c0b      	ldr	r3, [r1, #64]	; 0x40
		if (sr & (HSMCI_SR_UNRE | HSMCI_SR_OVRE | \
  401a40:	4213      	tst	r3, r2
  401a42:	d108      	bne.n	401a56 <hsmci_read_word+0x52>
			hsmci_debug("%s: DMA sr 0x%08x error\n\r",
					__func__, sr);
			hsmci_reset();
			return false;
		}
	} while (!(sr & HSMCI_SR_XFRDONE));
  401a44:	f013 6f00 	tst.w	r3, #134217728	; 0x8000000
  401a48:	d0f9      	beq.n	401a3e <hsmci_read_word+0x3a>
	return true;
  401a4a:	2001      	movs	r0, #1
  401a4c:	bd08      	pop	{r3, pc}
			hsmci_reset();
  401a4e:	4b09      	ldr	r3, [pc, #36]	; (401a74 <hsmci_read_word+0x70>)
  401a50:	4798      	blx	r3
			return false;
  401a52:	2000      	movs	r0, #0
  401a54:	bd08      	pop	{r3, pc}
			hsmci_reset();
  401a56:	4b07      	ldr	r3, [pc, #28]	; (401a74 <hsmci_read_word+0x70>)
  401a58:	4798      	blx	r3
			return false;
  401a5a:	2000      	movs	r0, #0
  401a5c:	bd08      	pop	{r3, pc}
		return true;
  401a5e:	2001      	movs	r0, #1
}
  401a60:	bd08      	pop	{r3, pc}
  401a62:	bf00      	nop
  401a64:	c0600000 	.word	0xc0600000
  401a68:	20400a18 	.word	0x20400a18
  401a6c:	20400a12 	.word	0x20400a12
  401a70:	20400a14 	.word	0x20400a14
  401a74:	004016f1 	.word	0x004016f1

00401a78 <hsmci_start_read_blocks>:
#endif // HSMCI_MR_PDCMODE

#if (SAMV70 || SAMV71 || SAME70 || SAMS70)
#ifdef HSMCI_DMA_DMAEN
bool hsmci_start_read_blocks(void *dest, uint16_t nb_block)
{
  401a78:	e92d 41f0 	stmdb	sp!, {r4, r5, r6, r7, r8, lr}
  401a7c:	b088      	sub	sp, #32
  401a7e:	4604      	mov	r4, r0
  401a80:	460d      	mov	r5, r1
	xdmac_channel_config_t p_cfg = {0, 0, 0, 0, 0, 0, 0, 0};
  401a82:	2220      	movs	r2, #32
  401a84:	2100      	movs	r1, #0
  401a86:	4668      	mov	r0, sp
  401a88:	4b30      	ldr	r3, [pc, #192]	; (401b4c <hsmci_start_read_blocks+0xd4>)
  401a8a:	4798      	blx	r3
 */
static inline void xdmac_channel_disable(Xdmac *xdmac, uint32_t channel_num)
{
	Assert(xdmac);
	Assert(channel_num < XDMACCHID_NUMBER);
	xdmac->XDMAC_GD =(XDMAC_GD_DI0 << channel_num);
  401a8c:	2201      	movs	r2, #1
  401a8e:	4b30      	ldr	r3, [pc, #192]	; (401b50 <hsmci_start_read_blocks+0xd8>)
  401a90:	621a      	str	r2, [r3, #32]
	Assert(nb_block);
	Assert(dest);

	xdmac_channel_disable(XDMAC, CONF_HSMCI_XDMAC_CHANNEL);

	nb_data = nb_block * hsmci_block_size;
  401a92:	4b30      	ldr	r3, [pc, #192]	; (401b54 <hsmci_start_read_blocks+0xdc>)
  401a94:	881b      	ldrh	r3, [r3, #0]
  401a96:	fb05 f503 	mul.w	r5, r5, r3

	if((uint32_t)dest & 3) {
  401a9a:	f014 0f03 	tst.w	r4, #3
  401a9e:	d14a      	bne.n	401b36 <hsmci_start_read_blocks+0xbe>
						| XDMAC_CC_DAM_INCREMENTED_AM
						| XDMAC_CC_PERID(CONF_HSMCI_XDMAC_CHANNEL);
		p_cfg.mbr_ubc = nb_data;
		HSMCI->HSMCI_MR |= HSMCI_MR_FBYTE;
	} else {
		p_cfg.mbr_cfg = XDMAC_CC_TYPE_PER_TRAN
  401aa0:	4b2d      	ldr	r3, [pc, #180]	; (401b58 <hsmci_start_read_blocks+0xe0>)
  401aa2:	9303      	str	r3, [sp, #12]
						| XDMAC_CC_SIF_AHB_IF1
						| XDMAC_CC_DIF_AHB_IF0
						| XDMAC_CC_SAM_FIXED_AM
						| XDMAC_CC_DAM_INCREMENTED_AM
						| XDMAC_CC_PERID(CONF_HSMCI_XDMAC_CHANNEL);
		p_cfg.mbr_ubc = nb_data / 4;
  401aa4:	08ab      	lsrs	r3, r5, #2
  401aa6:	9300      	str	r3, [sp, #0]
		HSMCI->HSMCI_MR &= ~HSMCI_MR_FBYTE;
  401aa8:	f04f 4280 	mov.w	r2, #1073741824	; 0x40000000
  401aac:	6853      	ldr	r3, [r2, #4]
  401aae:	f423 5300 	bic.w	r3, r3, #8192	; 0x2000
  401ab2:	6053      	str	r3, [r2, #4]
	}
	p_cfg.mbr_sa = (uint32_t)&(HSMCI->HSMCI_FIFO[0]);
  401ab4:	4b29      	ldr	r3, [pc, #164]	; (401b5c <hsmci_start_read_blocks+0xe4>)
  401ab6:	9301      	str	r3, [sp, #4]
	p_cfg.mbr_da = (uint32_t)dest;
  401ab8:	9402      	str	r4, [sp, #8]
	xdmac_configure_transfer(XDMAC, CONF_HSMCI_XDMAC_CHANNEL, &p_cfg);
  401aba:	466a      	mov	r2, sp
  401abc:	2100      	movs	r1, #0
  401abe:	4824      	ldr	r0, [pc, #144]	; (401b50 <hsmci_start_read_blocks+0xd8>)
  401ac0:	4b27      	ldr	r3, [pc, #156]	; (401b60 <hsmci_start_read_blocks+0xe8>)
  401ac2:	4798      	blx	r3
{
  #if (__DCACHE_PRESENT == 1)
    uint32_t ccsidr, sshift, wshift, sw;
    uint32_t sets, ways;

    ccsidr  = SCB->CCSIDR;
  401ac4:	4b27      	ldr	r3, [pc, #156]	; (401b64 <hsmci_start_read_blocks+0xec>)
  401ac6:	f8d3 3080 	ldr.w	r3, [r3, #128]	; 0x80
    sets    = CCSIDR_SETS(ccsidr);
  401aca:	f3c3 374e 	ubfx	r7, r3, #13, #15
    sshift  = CCSIDR_LSSHIFT(ccsidr) + 4;
  401ace:	f003 0007 	and.w	r0, r3, #7
  401ad2:	3004      	adds	r0, #4
    ways    = CCSIDR_WAYS(ccsidr);
  401ad4:	f3c3 0ec9 	ubfx	lr, r3, #3, #10
  __ASM volatile ("clz %0, %1" : "=r" (result) : "r" (value) );
  401ad8:	fabe fc8e 	clz	ip, lr
    wshift  = __CLZ(ways) & 0x1f;
  401adc:	f00c 0c1f 	and.w	ip, ip, #31
  __ASM volatile ("dsb");
  401ae0:	f3bf 8f4f 	dsb	sy
  401ae4:	f04f 34ff 	mov.w	r4, #4294967295
  401ae8:	fa04 f800 	lsl.w	r8, r4, r0
  401aec:	fa07 f000 	lsl.w	r0, r7, r0
  401af0:	fa04 f40c 	lsl.w	r4, r4, ip
  401af4:	fa0e fc0c 	lsl.w	ip, lr, ip

    do {                                    // clean & invalidate D-Cache
         int32_t tmpways = ways;
         do {
              sw = ((tmpways << wshift) | (sets << sshift));
              SCB->DCCISW = sw;
  401af8:	4e1a      	ldr	r6, [pc, #104]	; (401b64 <hsmci_start_read_blocks+0xec>)
         int32_t tmpways = ways;
  401afa:	4672      	mov	r2, lr
  401afc:	4663      	mov	r3, ip
              sw = ((tmpways << wshift) | (sets << sshift));
  401afe:	ea43 0100 	orr.w	r1, r3, r0
              SCB->DCCISW = sw;
  401b02:	f8c6 1274 	str.w	r1, [r6, #628]	; 0x274
            } while(tmpways--);
  401b06:	3a01      	subs	r2, #1
  401b08:	4423      	add	r3, r4
  401b0a:	f1b2 3fff 	cmp.w	r2, #4294967295
  401b0e:	d1f6      	bne.n	401afe <hsmci_start_read_blocks+0x86>
        } while(sets--);
  401b10:	3f01      	subs	r7, #1
  401b12:	4440      	add	r0, r8
  401b14:	f1b7 3fff 	cmp.w	r7, #4294967295
  401b18:	d1ef      	bne.n	401afa <hsmci_start_read_blocks+0x82>
  401b1a:	f3bf 8f4f 	dsb	sy
  __ASM volatile ("isb");
  401b1e:	f3bf 8f6f 	isb	sy
	xdmac->XDMAC_GE = (XDMAC_GE_EN0 << channel_num);
  401b22:	2001      	movs	r0, #1
  401b24:	4b0a      	ldr	r3, [pc, #40]	; (401b50 <hsmci_start_read_blocks+0xd8>)
  401b26:	61d8      	str	r0, [r3, #28]
	xdmac_channel_enable(XDMAC, CONF_HSMCI_XDMAC_CHANNEL);
	hsmci_transfert_pos += nb_data;
  401b28:	4a0f      	ldr	r2, [pc, #60]	; (401b68 <hsmci_start_read_blocks+0xf0>)
  401b2a:	6813      	ldr	r3, [r2, #0]
  401b2c:	442b      	add	r3, r5
  401b2e:	6013      	str	r3, [r2, #0]
	return true;
}
  401b30:	b008      	add	sp, #32
  401b32:	e8bd 81f0 	ldmia.w	sp!, {r4, r5, r6, r7, r8, pc}
		p_cfg.mbr_cfg = XDMAC_CC_TYPE_PER_TRAN
  401b36:	4b0d      	ldr	r3, [pc, #52]	; (401b6c <hsmci_start_read_blocks+0xf4>)
  401b38:	9303      	str	r3, [sp, #12]
		p_cfg.mbr_ubc = nb_data;
  401b3a:	9500      	str	r5, [sp, #0]
		HSMCI->HSMCI_MR |= HSMCI_MR_FBYTE;
  401b3c:	f04f 4280 	mov.w	r2, #1073741824	; 0x40000000
  401b40:	6853      	ldr	r3, [r2, #4]
  401b42:	f443 5300 	orr.w	r3, r3, #8192	; 0x2000
  401b46:	6053      	str	r3, [r2, #4]
  401b48:	e7b4      	b.n	401ab4 <hsmci_start_read_blocks+0x3c>
  401b4a:	bf00      	nop
  401b4c:	00406a11 	.word	0x00406a11
  401b50:	40078000 	.word	0x40078000
  401b54:	20400a12 	.word	0x20400a12
  401b58:	00043001 	.word	0x00043001
  401b5c:	40000200 	.word	0x40000200
  401b60:	004021a5 	.word	0x004021a5
  401b64:	e000ed00 	.word	0xe000ed00
  401b68:	20400a18 	.word	0x20400a18
  401b6c:	00042001 	.word	0x00042001

00401b70 <hsmci_wait_end_of_read_blocks>:

bool hsmci_wait_end_of_read_blocks(void)
{
  401b70:	b570      	push	{r4, r5, r6, lr}
			hsmci_reset();
			// Disable XDMAC
			xdmac_channel_disable(XDMAC, CONF_HSMCI_XDMAC_CHANNEL);
			return false;
		}
		if (((uint32_t)hsmci_block_size * hsmci_nb_block) > hsmci_transfert_pos) {
  401b72:	4b12      	ldr	r3, [pc, #72]	; (401bbc <hsmci_wait_end_of_read_blocks+0x4c>)
  401b74:	881b      	ldrh	r3, [r3, #0]
  401b76:	4a12      	ldr	r2, [pc, #72]	; (401bc0 <hsmci_wait_end_of_read_blocks+0x50>)
  401b78:	8812      	ldrh	r2, [r2, #0]
  401b7a:	fb02 f203 	mul.w	r2, r2, r3
  401b7e:	4b11      	ldr	r3, [pc, #68]	; (401bc4 <hsmci_wait_end_of_read_blocks+0x54>)
  401b80:	681c      	ldr	r4, [r3, #0]
		sr = HSMCI->HSMCI_SR;
  401b82:	f04f 4080 	mov.w	r0, #1073741824	; 0x40000000
		if (sr & (HSMCI_SR_UNRE | HSMCI_SR_OVRE | \
  401b86:	4910      	ldr	r1, [pc, #64]	; (401bc8 <hsmci_wait_end_of_read_blocks+0x58>)
 */
static inline uint32_t xdmac_channel_get_interrupt_status(Xdmac *xdmac, uint32_t channel_num)
{
	Assert(xdmac);
	Assert(channel_num < XDMACCHID_NUMBER);
	return xdmac->XDMAC_CHID[channel_num].XDMAC_CIS;
  401b88:	4e10      	ldr	r6, [pc, #64]	; (401bcc <hsmci_wait_end_of_read_blocks+0x5c>)
  401b8a:	e009      	b.n	401ba0 <hsmci_wait_end_of_read_blocks+0x30>
			hsmci_reset();
  401b8c:	4b10      	ldr	r3, [pc, #64]	; (401bd0 <hsmci_wait_end_of_read_blocks+0x60>)
  401b8e:	4798      	blx	r3
	xdmac->XDMAC_GD =(XDMAC_GD_DI0 << channel_num);
  401b90:	2201      	movs	r2, #1
  401b92:	4b0e      	ldr	r3, [pc, #56]	; (401bcc <hsmci_wait_end_of_read_blocks+0x5c>)
  401b94:	621a      	str	r2, [r3, #32]
			return false;
  401b96:	2000      	movs	r0, #0
  401b98:	bd70      	pop	{r4, r5, r6, pc}
			dma_sr = xdmac_channel_get_interrupt_status(XDMAC, CONF_HSMCI_XDMAC_CHANNEL);
			if (dma_sr & XDMAC_CIS_BIS) {
				return true;
			}
		}
	} while (!(sr & HSMCI_SR_XFRDONE));
  401b9a:	f013 6f00 	tst.w	r3, #134217728	; 0x8000000
  401b9e:	d10a      	bne.n	401bb6 <hsmci_wait_end_of_read_blocks+0x46>
		sr = HSMCI->HSMCI_SR;
  401ba0:	6c03      	ldr	r3, [r0, #64]	; 0x40
		if (sr & (HSMCI_SR_UNRE | HSMCI_SR_OVRE | \
  401ba2:	420b      	tst	r3, r1
  401ba4:	d1f2      	bne.n	401b8c <hsmci_wait_end_of_read_blocks+0x1c>
		if (((uint32_t)hsmci_block_size * hsmci_nb_block) > hsmci_transfert_pos) {
  401ba6:	42a2      	cmp	r2, r4
  401ba8:	d9f7      	bls.n	401b9a <hsmci_wait_end_of_read_blocks+0x2a>
	return xdmac->XDMAC_CHID[channel_num].XDMAC_CIS;
  401baa:	6df5      	ldr	r5, [r6, #92]	; 0x5c
			if (dma_sr & XDMAC_CIS_BIS) {
  401bac:	f015 0f01 	tst.w	r5, #1
  401bb0:	d0f3      	beq.n	401b9a <hsmci_wait_end_of_read_blocks+0x2a>
				return true;
  401bb2:	2001      	movs	r0, #1
	return true;
}
  401bb4:	bd70      	pop	{r4, r5, r6, pc}
	return true;
  401bb6:	2001      	movs	r0, #1
  401bb8:	bd70      	pop	{r4, r5, r6, pc}
  401bba:	bf00      	nop
  401bbc:	20400a12 	.word	0x20400a12
  401bc0:	20400a14 	.word	0x20400a14
  401bc4:	20400a18 	.word	0x20400a18
  401bc8:	c0600000 	.word	0xc0600000
  401bcc:	40078000 	.word	0x40078000
  401bd0:	004016f1 	.word	0x004016f1

00401bd4 <hsmci_start_write_blocks>:

bool hsmci_start_write_blocks(const void *src, uint16_t nb_block)
{
  401bd4:	e92d 41f0 	stmdb	sp!, {r4, r5, r6, r7, r8, lr}
  401bd8:	b088      	sub	sp, #32
  401bda:	4604      	mov	r4, r0
  401bdc:	460d      	mov	r5, r1
	xdmac_channel_config_t p_cfg = {0, 0, 0, 0, 0, 0, 0, 0};
  401bde:	2220      	movs	r2, #32
  401be0:	2100      	movs	r1, #0
  401be2:	4668      	mov	r0, sp
  401be4:	4b30      	ldr	r3, [pc, #192]	; (401ca8 <hsmci_start_write_blocks+0xd4>)
  401be6:	4798      	blx	r3
	xdmac->XDMAC_GD =(XDMAC_GD_DI0 << channel_num);
  401be8:	2201      	movs	r2, #1
  401bea:	4b30      	ldr	r3, [pc, #192]	; (401cac <hsmci_start_write_blocks+0xd8>)
  401bec:	621a      	str	r2, [r3, #32]
	Assert(nb_block);
	Assert(dest);

	xdmac_channel_disable(XDMAC, CONF_HSMCI_XDMAC_CHANNEL);

	nb_data = nb_block * hsmci_block_size;
  401bee:	4b30      	ldr	r3, [pc, #192]	; (401cb0 <hsmci_start_write_blocks+0xdc>)
  401bf0:	881b      	ldrh	r3, [r3, #0]
  401bf2:	fb05 f503 	mul.w	r5, r5, r3

	if((uint32_t)src & 3) {
  401bf6:	f014 0f03 	tst.w	r4, #3
  401bfa:	d14a      	bne.n	401c92 <hsmci_start_write_blocks+0xbe>
						| XDMAC_CC_DAM_FIXED_AM
						| XDMAC_CC_PERID(CONF_HSMCI_XDMAC_CHANNEL);
		p_cfg.mbr_ubc = nb_data;
		HSMCI->HSMCI_MR |= HSMCI_MR_FBYTE;
	} else {
		p_cfg.mbr_cfg = XDMAC_CC_TYPE_PER_TRAN
  401bfc:	4b2d      	ldr	r3, [pc, #180]	; (401cb4 <hsmci_start_write_blocks+0xe0>)
  401bfe:	9303      	str	r3, [sp, #12]
						| XDMAC_CC_SIF_AHB_IF0
						| XDMAC_CC_DIF_AHB_IF1
						| XDMAC_CC_SAM_INCREMENTED_AM
						| XDMAC_CC_DAM_FIXED_AM
						| XDMAC_CC_PERID(CONF_HSMCI_XDMAC_CHANNEL);
		p_cfg.mbr_ubc = nb_data / 4;
  401c00:	08ab      	lsrs	r3, r5, #2
  401c02:	9300      	str	r3, [sp, #0]
		HSMCI->HSMCI_MR &= ~HSMCI_MR_FBYTE;
  401c04:	f04f 4280 	mov.w	r2, #1073741824	; 0x40000000
  401c08:	6853      	ldr	r3, [r2, #4]
  401c0a:	f423 5300 	bic.w	r3, r3, #8192	; 0x2000
  401c0e:	6053      	str	r3, [r2, #4]
	}
	p_cfg.mbr_sa = (uint32_t)src;
  401c10:	9401      	str	r4, [sp, #4]
	p_cfg.mbr_da = (uint32_t)&(HSMCI->HSMCI_FIFO[0]);
  401c12:	4b29      	ldr	r3, [pc, #164]	; (401cb8 <hsmci_start_write_blocks+0xe4>)
  401c14:	9302      	str	r3, [sp, #8]
	xdmac_configure_transfer(XDMAC, CONF_HSMCI_XDMAC_CHANNEL, &p_cfg);
  401c16:	466a      	mov	r2, sp
  401c18:	2100      	movs	r1, #0
  401c1a:	4824      	ldr	r0, [pc, #144]	; (401cac <hsmci_start_write_blocks+0xd8>)
  401c1c:	4b27      	ldr	r3, [pc, #156]	; (401cbc <hsmci_start_write_blocks+0xe8>)
  401c1e:	4798      	blx	r3
    ccsidr  = SCB->CCSIDR;
  401c20:	4b27      	ldr	r3, [pc, #156]	; (401cc0 <hsmci_start_write_blocks+0xec>)
  401c22:	f8d3 3080 	ldr.w	r3, [r3, #128]	; 0x80
    sets    = CCSIDR_SETS(ccsidr);
  401c26:	f3c3 374e 	ubfx	r7, r3, #13, #15
    sshift  = CCSIDR_LSSHIFT(ccsidr) + 4;
  401c2a:	f003 0007 	and.w	r0, r3, #7
  401c2e:	3004      	adds	r0, #4
    ways    = CCSIDR_WAYS(ccsidr);
  401c30:	f3c3 0ec9 	ubfx	lr, r3, #3, #10
  __ASM volatile ("clz %0, %1" : "=r" (result) : "r" (value) );
  401c34:	fabe fc8e 	clz	ip, lr
    wshift  = __CLZ(ways) & 0x1f;
  401c38:	f00c 0c1f 	and.w	ip, ip, #31
  __ASM volatile ("dsb");
  401c3c:	f3bf 8f4f 	dsb	sy
  401c40:	f04f 34ff 	mov.w	r4, #4294967295
  401c44:	fa04 f800 	lsl.w	r8, r4, r0
  401c48:	fa07 f000 	lsl.w	r0, r7, r0
  401c4c:	fa04 f40c 	lsl.w	r4, r4, ip
  401c50:	fa0e fc0c 	lsl.w	ip, lr, ip
              SCB->DCCISW = sw;
  401c54:	4e1a      	ldr	r6, [pc, #104]	; (401cc0 <hsmci_start_write_blocks+0xec>)
         int32_t tmpways = ways;
  401c56:	4672      	mov	r2, lr
  401c58:	4663      	mov	r3, ip
              sw = ((tmpways << wshift) | (sets << sshift));
  401c5a:	ea43 0100 	orr.w	r1, r3, r0
              SCB->DCCISW = sw;
  401c5e:	f8c6 1274 	str.w	r1, [r6, #628]	; 0x274
            } while(tmpways--);
  401c62:	3a01      	subs	r2, #1
  401c64:	4423      	add	r3, r4
  401c66:	f1b2 3fff 	cmp.w	r2, #4294967295
  401c6a:	d1f6      	bne.n	401c5a <hsmci_start_write_blocks+0x86>
        } while(sets--);
  401c6c:	3f01      	subs	r7, #1
  401c6e:	4440      	add	r0, r8
  401c70:	f1b7 3fff 	cmp.w	r7, #4294967295
  401c74:	d1ef      	bne.n	401c56 <hsmci_start_write_blocks+0x82>
  401c76:	f3bf 8f4f 	dsb	sy
  __ASM volatile ("isb");
  401c7a:	f3bf 8f6f 	isb	sy
	xdmac->XDMAC_GE = (XDMAC_GE_EN0 << channel_num);
  401c7e:	2001      	movs	r0, #1
  401c80:	4b0a      	ldr	r3, [pc, #40]	; (401cac <hsmci_start_write_blocks+0xd8>)
  401c82:	61d8      	str	r0, [r3, #28]
	xdmac_channel_enable(XDMAC, CONF_HSMCI_XDMAC_CHANNEL);
	hsmci_transfert_pos += nb_data;
  401c84:	4a0f      	ldr	r2, [pc, #60]	; (401cc4 <hsmci_start_write_blocks+0xf0>)
  401c86:	6813      	ldr	r3, [r2, #0]
  401c88:	442b      	add	r3, r5
  401c8a:	6013      	str	r3, [r2, #0]
	return true;
}
  401c8c:	b008      	add	sp, #32
  401c8e:	e8bd 81f0 	ldmia.w	sp!, {r4, r5, r6, r7, r8, pc}
		p_cfg.mbr_cfg = XDMAC_CC_TYPE_PER_TRAN
  401c92:	4b0d      	ldr	r3, [pc, #52]	; (401cc8 <hsmci_start_write_blocks+0xf4>)
  401c94:	9303      	str	r3, [sp, #12]
		p_cfg.mbr_ubc = nb_data;
  401c96:	9500      	str	r5, [sp, #0]
		HSMCI->HSMCI_MR |= HSMCI_MR_FBYTE;
  401c98:	f04f 4280 	mov.w	r2, #1073741824	; 0x40000000
  401c9c:	6853      	ldr	r3, [r2, #4]
  401c9e:	f443 5300 	orr.w	r3, r3, #8192	; 0x2000
  401ca2:	6053      	str	r3, [r2, #4]
  401ca4:	e7b4      	b.n	401c10 <hsmci_start_write_blocks+0x3c>
  401ca6:	bf00      	nop
  401ca8:	00406a11 	.word	0x00406a11
  401cac:	40078000 	.word	0x40078000
  401cb0:	20400a12 	.word	0x20400a12
  401cb4:	00015011 	.word	0x00015011
  401cb8:	40000200 	.word	0x40000200
  401cbc:	004021a5 	.word	0x004021a5
  401cc0:	e000ed00 	.word	0xe000ed00
  401cc4:	20400a18 	.word	0x20400a18
  401cc8:	00014011 	.word	0x00014011

00401ccc <hsmci_wait_end_of_write_blocks>:

bool hsmci_wait_end_of_write_blocks(void)
{
  401ccc:	b570      	push	{r4, r5, r6, lr}
			hsmci_reset();
			// Disable XDMAC
			xdmac_channel_disable(XDMAC, CONF_HSMCI_XDMAC_CHANNEL);
			return false;
		}
		if (((uint32_t)hsmci_block_size * hsmci_nb_block) > hsmci_transfert_pos) {
  401cce:	4b12      	ldr	r3, [pc, #72]	; (401d18 <hsmci_wait_end_of_write_blocks+0x4c>)
  401cd0:	881b      	ldrh	r3, [r3, #0]
  401cd2:	4a12      	ldr	r2, [pc, #72]	; (401d1c <hsmci_wait_end_of_write_blocks+0x50>)
  401cd4:	8812      	ldrh	r2, [r2, #0]
  401cd6:	fb02 f203 	mul.w	r2, r2, r3
  401cda:	4b11      	ldr	r3, [pc, #68]	; (401d20 <hsmci_wait_end_of_write_blocks+0x54>)
  401cdc:	681c      	ldr	r4, [r3, #0]
		sr = HSMCI->HSMCI_SR;
  401cde:	f04f 4080 	mov.w	r0, #1073741824	; 0x40000000
		if (sr & (HSMCI_SR_UNRE | HSMCI_SR_OVRE | \
  401ce2:	4910      	ldr	r1, [pc, #64]	; (401d24 <hsmci_wait_end_of_write_blocks+0x58>)
	return xdmac->XDMAC_CHID[channel_num].XDMAC_CIS;
  401ce4:	4e10      	ldr	r6, [pc, #64]	; (401d28 <hsmci_wait_end_of_write_blocks+0x5c>)
  401ce6:	e009      	b.n	401cfc <hsmci_wait_end_of_write_blocks+0x30>
			hsmci_reset();
  401ce8:	4b10      	ldr	r3, [pc, #64]	; (401d2c <hsmci_wait_end_of_write_blocks+0x60>)
  401cea:	4798      	blx	r3
	xdmac->XDMAC_GD =(XDMAC_GD_DI0 << channel_num);
  401cec:	2201      	movs	r2, #1
  401cee:	4b0e      	ldr	r3, [pc, #56]	; (401d28 <hsmci_wait_end_of_write_blocks+0x5c>)
  401cf0:	621a      	str	r2, [r3, #32]
			return false;
  401cf2:	2000      	movs	r0, #0
  401cf4:	bd70      	pop	{r4, r5, r6, pc}
			dma_sr = xdmac_channel_get_interrupt_status(XDMAC, CONF_HSMCI_XDMAC_CHANNEL);
			if (dma_sr & XDMAC_CIS_BIS) {
				return true;
			}
		}
	} while (!(sr & HSMCI_SR_XFRDONE));
  401cf6:	f013 6f00 	tst.w	r3, #134217728	; 0x8000000
  401cfa:	d10a      	bne.n	401d12 <hsmci_wait_end_of_write_blocks+0x46>
		sr = HSMCI->HSMCI_SR;
  401cfc:	6c03      	ldr	r3, [r0, #64]	; 0x40
		if (sr & (HSMCI_SR_UNRE | HSMCI_SR_OVRE | \
  401cfe:	420b      	tst	r3, r1
  401d00:	d1f2      	bne.n	401ce8 <hsmci_wait_end_of_write_blocks+0x1c>
		if (((uint32_t)hsmci_block_size * hsmci_nb_block) > hsmci_transfert_pos) {
  401d02:	42a2      	cmp	r2, r4
  401d04:	d9f7      	bls.n	401cf6 <hsmci_wait_end_of_write_blocks+0x2a>
	return xdmac->XDMAC_CHID[channel_num].XDMAC_CIS;
  401d06:	6df5      	ldr	r5, [r6, #92]	; 0x5c
			if (dma_sr & XDMAC_CIS_BIS) {
  401d08:	f015 0f01 	tst.w	r5, #1
  401d0c:	d0f3      	beq.n	401cf6 <hsmci_wait_end_of_write_blocks+0x2a>
				return true;
  401d0e:	2001      	movs	r0, #1

	return true;
}
  401d10:	bd70      	pop	{r4, r5, r6, pc}
	return true;
  401d12:	2001      	movs	r0, #1
  401d14:	bd70      	pop	{r4, r5, r6, pc}
  401d16:	bf00      	nop
  401d18:	20400a12 	.word	0x20400a12
  401d1c:	20400a14 	.word	0x20400a14
  401d20:	20400a18 	.word	0x20400a18
  401d24:	c0600000 	.word	0xc0600000
  401d28:	40078000 	.word	0x40078000
  401d2c:	004016f1 	.word	0x004016f1

00401d30 <pio_set>:
 * \param p_pio Pointer to a PIO instance.
 * \param ul_mask Bitmask of one or more pin(s) to configure.
 */
void pio_set(Pio *p_pio, const uint32_t ul_mask)
{
	p_pio->PIO_SODR = ul_mask;
  401d30:	6301      	str	r1, [r0, #48]	; 0x30
  401d32:	4770      	bx	lr

00401d34 <pio_clear>:
 * \param p_pio Pointer to a PIO instance.
 * \param ul_mask Bitmask of one or more pin(s) to configure.
 */
void pio_clear(Pio *p_pio, const uint32_t ul_mask)
{
	p_pio->PIO_CODR = ul_mask;
  401d34:	6341      	str	r1, [r0, #52]	; 0x34
  401d36:	4770      	bx	lr

00401d38 <pio_set_peripheral>:
		const uint32_t ul_mask)
{
	uint32_t ul_sr;

	/* Disable interrupts on the pin(s) */
	p_pio->PIO_IDR = ul_mask;
  401d38:	6442      	str	r2, [r0, #68]	; 0x44

#if (SAM3S || SAM3N || SAM4S || SAM4E || SAM4N || SAM4C || SAMG || SAM4CP || SAM4CM || SAMV71 || SAMV70 || SAME70 || SAMS70)
	switch (ul_type) {
  401d3a:	f1b1 5fc0 	cmp.w	r1, #402653184	; 0x18000000
  401d3e:	d03a      	beq.n	401db6 <pio_set_peripheral+0x7e>
  401d40:	d813      	bhi.n	401d6a <pio_set_peripheral+0x32>
  401d42:	f1b1 6f00 	cmp.w	r1, #134217728	; 0x8000000
  401d46:	d025      	beq.n	401d94 <pio_set_peripheral+0x5c>
  401d48:	f1b1 5f80 	cmp.w	r1, #268435456	; 0x10000000
  401d4c:	d10a      	bne.n	401d64 <pio_set_peripheral+0x2c>

		ul_sr = p_pio->PIO_ABCDSR[1];
		p_pio->PIO_ABCDSR[1] &= (~ul_mask & ul_sr);
		break;
	case PIO_PERIPH_B:
		ul_sr = p_pio->PIO_ABCDSR[0];
  401d4e:	6f03      	ldr	r3, [r0, #112]	; 0x70
		p_pio->PIO_ABCDSR[0] = (ul_mask | ul_sr);
  401d50:	4313      	orrs	r3, r2
  401d52:	6703      	str	r3, [r0, #112]	; 0x70

		ul_sr = p_pio->PIO_ABCDSR[1];
  401d54:	6f43      	ldr	r3, [r0, #116]	; 0x74
		p_pio->PIO_ABCDSR[1] &= (~ul_mask & ul_sr);
  401d56:	6f41      	ldr	r1, [r0, #116]	; 0x74
  401d58:	400b      	ands	r3, r1
  401d5a:	ea23 0302 	bic.w	r3, r3, r2
  401d5e:	6743      	str	r3, [r0, #116]	; 0x74
#else
#error "Unsupported device"
#endif

	/* Remove the pins from under the control of PIO */
	p_pio->PIO_PDR = ul_mask;
  401d60:	6042      	str	r2, [r0, #4]
  401d62:	4770      	bx	lr
	switch (ul_type) {
  401d64:	2900      	cmp	r1, #0
  401d66:	d1fb      	bne.n	401d60 <pio_set_peripheral+0x28>
  401d68:	4770      	bx	lr
  401d6a:	f1b1 5f20 	cmp.w	r1, #671088640	; 0x28000000
  401d6e:	d021      	beq.n	401db4 <pio_set_peripheral+0x7c>
  401d70:	d809      	bhi.n	401d86 <pio_set_peripheral+0x4e>
  401d72:	f1b1 5f00 	cmp.w	r1, #536870912	; 0x20000000
  401d76:	d1f3      	bne.n	401d60 <pio_set_peripheral+0x28>
		ul_sr = p_pio->PIO_ABCDSR[0];
  401d78:	6f03      	ldr	r3, [r0, #112]	; 0x70
		p_pio->PIO_ABCDSR[0] = (ul_mask | ul_sr);
  401d7a:	4313      	orrs	r3, r2
  401d7c:	6703      	str	r3, [r0, #112]	; 0x70
		ul_sr = p_pio->PIO_ABCDSR[1];
  401d7e:	6f43      	ldr	r3, [r0, #116]	; 0x74
		p_pio->PIO_ABCDSR[1] = (ul_mask | ul_sr);
  401d80:	4313      	orrs	r3, r2
  401d82:	6743      	str	r3, [r0, #116]	; 0x74
		break;
  401d84:	e7ec      	b.n	401d60 <pio_set_peripheral+0x28>
	switch (ul_type) {
  401d86:	f1b1 5f40 	cmp.w	r1, #805306368	; 0x30000000
  401d8a:	d013      	beq.n	401db4 <pio_set_peripheral+0x7c>
  401d8c:	f1b1 5f60 	cmp.w	r1, #939524096	; 0x38000000
  401d90:	d010      	beq.n	401db4 <pio_set_peripheral+0x7c>
  401d92:	e7e5      	b.n	401d60 <pio_set_peripheral+0x28>
{
  401d94:	b410      	push	{r4}
		ul_sr = p_pio->PIO_ABCDSR[0];
  401d96:	6f01      	ldr	r1, [r0, #112]	; 0x70
		p_pio->PIO_ABCDSR[0] &= (~ul_mask & ul_sr);
  401d98:	6f04      	ldr	r4, [r0, #112]	; 0x70
  401d9a:	43d3      	mvns	r3, r2
  401d9c:	4021      	ands	r1, r4
  401d9e:	461c      	mov	r4, r3
  401da0:	4019      	ands	r1, r3
  401da2:	6701      	str	r1, [r0, #112]	; 0x70
		ul_sr = p_pio->PIO_ABCDSR[1];
  401da4:	6f43      	ldr	r3, [r0, #116]	; 0x74
		p_pio->PIO_ABCDSR[1] &= (~ul_mask & ul_sr);
  401da6:	6f41      	ldr	r1, [r0, #116]	; 0x74
  401da8:	400b      	ands	r3, r1
  401daa:	4023      	ands	r3, r4
  401dac:	6743      	str	r3, [r0, #116]	; 0x74
	p_pio->PIO_PDR = ul_mask;
  401dae:	6042      	str	r2, [r0, #4]
}
  401db0:	f85d 4b04 	ldr.w	r4, [sp], #4
  401db4:	4770      	bx	lr
		ul_sr = p_pio->PIO_ABCDSR[0];
  401db6:	6f03      	ldr	r3, [r0, #112]	; 0x70
		p_pio->PIO_ABCDSR[0] &= (~ul_mask & ul_sr);
  401db8:	6f01      	ldr	r1, [r0, #112]	; 0x70
  401dba:	400b      	ands	r3, r1
  401dbc:	ea23 0302 	bic.w	r3, r3, r2
  401dc0:	6703      	str	r3, [r0, #112]	; 0x70
		ul_sr = p_pio->PIO_ABCDSR[1];
  401dc2:	6f43      	ldr	r3, [r0, #116]	; 0x74
		p_pio->PIO_ABCDSR[1] = (ul_mask | ul_sr);
  401dc4:	4313      	orrs	r3, r2
  401dc6:	6743      	str	r3, [r0, #116]	; 0x74
		break;
  401dc8:	e7ca      	b.n	401d60 <pio_set_peripheral+0x28>

00401dca <pio_set_input>:
 * \param p_pio Pointer to a PIO instance.
 * \param ul_mask Interrupt sources bit map.
 */
void pio_disable_interrupt(Pio *p_pio, const uint32_t ul_mask)
{
	p_pio->PIO_IDR = ul_mask;
  401dca:	6441      	str	r1, [r0, #68]	; 0x44
	if (ul_pull_up_enable) {
  401dcc:	f012 0f01 	tst.w	r2, #1
  401dd0:	d10d      	bne.n	401dee <pio_set_input+0x24>
		p_pio->PIO_PUDR = ul_mask;
  401dd2:	6601      	str	r1, [r0, #96]	; 0x60
	if (ul_attribute & (PIO_DEGLITCH | PIO_DEBOUNCE)) {
  401dd4:	f012 0f0a 	tst.w	r2, #10
  401dd8:	d00b      	beq.n	401df2 <pio_set_input+0x28>
		p_pio->PIO_IFER = ul_mask;
  401dda:	6201      	str	r1, [r0, #32]
	if (ul_attribute & PIO_DEGLITCH) {
  401ddc:	f012 0f02 	tst.w	r2, #2
  401de0:	d109      	bne.n	401df6 <pio_set_input+0x2c>
		if (ul_attribute & PIO_DEBOUNCE) {
  401de2:	f012 0f08 	tst.w	r2, #8
  401de6:	d008      	beq.n	401dfa <pio_set_input+0x30>
			p_pio->PIO_IFSCER = ul_mask;
  401de8:	f8c0 1084 	str.w	r1, [r0, #132]	; 0x84
  401dec:	e005      	b.n	401dfa <pio_set_input+0x30>
		p_pio->PIO_PUER = ul_mask;
  401dee:	6641      	str	r1, [r0, #100]	; 0x64
  401df0:	e7f0      	b.n	401dd4 <pio_set_input+0xa>
		p_pio->PIO_IFDR = ul_mask;
  401df2:	6241      	str	r1, [r0, #36]	; 0x24
  401df4:	e7f2      	b.n	401ddc <pio_set_input+0x12>
		p_pio->PIO_IFSCDR = ul_mask;
  401df6:	f8c0 1080 	str.w	r1, [r0, #128]	; 0x80
	p_pio->PIO_ODR = ul_mask;
  401dfa:	6141      	str	r1, [r0, #20]
	p_pio->PIO_PER = ul_mask;
  401dfc:	6001      	str	r1, [r0, #0]
  401dfe:	4770      	bx	lr

00401e00 <pio_set_output>:
{
  401e00:	b410      	push	{r4}
  401e02:	9c01      	ldr	r4, [sp, #4]
	p_pio->PIO_IDR = ul_mask;
  401e04:	6441      	str	r1, [r0, #68]	; 0x44
	if (ul_pull_up_enable) {
  401e06:	b94c      	cbnz	r4, 401e1c <pio_set_output+0x1c>
		p_pio->PIO_PUDR = ul_mask;
  401e08:	6601      	str	r1, [r0, #96]	; 0x60
	if (ul_multidrive_enable) {
  401e0a:	b14b      	cbz	r3, 401e20 <pio_set_output+0x20>
		p_pio->PIO_MDER = ul_mask;
  401e0c:	6501      	str	r1, [r0, #80]	; 0x50
	if (ul_default_level) {
  401e0e:	b94a      	cbnz	r2, 401e24 <pio_set_output+0x24>
		p_pio->PIO_CODR = ul_mask;
  401e10:	6341      	str	r1, [r0, #52]	; 0x34
	p_pio->PIO_OER = ul_mask;
  401e12:	6101      	str	r1, [r0, #16]
	p_pio->PIO_PER = ul_mask;
  401e14:	6001      	str	r1, [r0, #0]
}
  401e16:	f85d 4b04 	ldr.w	r4, [sp], #4
  401e1a:	4770      	bx	lr
		p_pio->PIO_PUER = ul_mask;
  401e1c:	6641      	str	r1, [r0, #100]	; 0x64
  401e1e:	e7f4      	b.n	401e0a <pio_set_output+0xa>
		p_pio->PIO_MDDR = ul_mask;
  401e20:	6541      	str	r1, [r0, #84]	; 0x54
  401e22:	e7f4      	b.n	401e0e <pio_set_output+0xe>
		p_pio->PIO_SODR = ul_mask;
  401e24:	6301      	str	r1, [r0, #48]	; 0x30
  401e26:	e7f4      	b.n	401e12 <pio_set_output+0x12>

00401e28 <pio_get_output_data_status>:
	if ((p_pio->PIO_ODSR & ul_mask) == 0) {
  401e28:	6b83      	ldr	r3, [r0, #56]	; 0x38
  401e2a:	420b      	tst	r3, r1
}
  401e2c:	bf14      	ite	ne
  401e2e:	2001      	movne	r0, #1
  401e30:	2000      	moveq	r0, #0
  401e32:	4770      	bx	lr

00401e34 <pio_configure_interrupt>:
	if (ul_attr & PIO_IT_AIME) {
  401e34:	f012 0f10 	tst.w	r2, #16
  401e38:	d012      	beq.n	401e60 <pio_configure_interrupt+0x2c>
		p_pio->PIO_AIMER = ul_mask;
  401e3a:	f8c0 10b0 	str.w	r1, [r0, #176]	; 0xb0
		if (ul_attr & PIO_IT_RE_OR_HL) {
  401e3e:	f012 0f20 	tst.w	r2, #32
  401e42:	d007      	beq.n	401e54 <pio_configure_interrupt+0x20>
			p_pio->PIO_REHLSR = ul_mask;
  401e44:	f8c0 10d4 	str.w	r1, [r0, #212]	; 0xd4
		if (ul_attr & PIO_IT_EDGE) {
  401e48:	f012 0f40 	tst.w	r2, #64	; 0x40
  401e4c:	d005      	beq.n	401e5a <pio_configure_interrupt+0x26>
			p_pio->PIO_ESR = ul_mask;
  401e4e:	f8c0 10c0 	str.w	r1, [r0, #192]	; 0xc0
  401e52:	4770      	bx	lr
			p_pio->PIO_FELLSR = ul_mask;
  401e54:	f8c0 10d0 	str.w	r1, [r0, #208]	; 0xd0
  401e58:	e7f6      	b.n	401e48 <pio_configure_interrupt+0x14>
			p_pio->PIO_LSR = ul_mask;
  401e5a:	f8c0 10c4 	str.w	r1, [r0, #196]	; 0xc4
  401e5e:	4770      	bx	lr
		p_pio->PIO_AIMDR = ul_mask;
  401e60:	f8c0 10b4 	str.w	r1, [r0, #180]	; 0xb4
  401e64:	4770      	bx	lr

00401e66 <pio_enable_interrupt>:
	p_pio->PIO_IER = ul_mask;
  401e66:	6401      	str	r1, [r0, #64]	; 0x40
  401e68:	4770      	bx	lr

00401e6a <pio_get_interrupt_status>:
 *
 * \return The interrupt status value.
 */
uint32_t pio_get_interrupt_status(const Pio *p_pio)
{
	return p_pio->PIO_ISR;
  401e6a:	6cc0      	ldr	r0, [r0, #76]	; 0x4c
}
  401e6c:	4770      	bx	lr

00401e6e <pio_get_interrupt_mask>:
 *
 * \return The interrupt mask value.
 */
uint32_t pio_get_interrupt_mask(const Pio *p_pio)
{
	return p_pio->PIO_IMR;
  401e6e:	6c80      	ldr	r0, [r0, #72]	; 0x48
}
  401e70:	4770      	bx	lr
	...

00401e74 <pio_handler_process>:
 *
 * \param p_pio PIO controller base address.
 * \param ul_id PIO controller ID.
 */
void pio_handler_process(Pio *p_pio, uint32_t ul_id)
{
  401e74:	e92d 41f0 	stmdb	sp!, {r4, r5, r6, r7, r8, lr}
  401e78:	4604      	mov	r4, r0
  401e7a:	4688      	mov	r8, r1
	uint32_t status;
	uint32_t i;

	/* Read PIO controller status */
	status = pio_get_interrupt_status(p_pio);
  401e7c:	4b0e      	ldr	r3, [pc, #56]	; (401eb8 <pio_handler_process+0x44>)
  401e7e:	4798      	blx	r3
  401e80:	4605      	mov	r5, r0
	status &= pio_get_interrupt_mask(p_pio);
  401e82:	4620      	mov	r0, r4
  401e84:	4b0d      	ldr	r3, [pc, #52]	; (401ebc <pio_handler_process+0x48>)
  401e86:	4798      	blx	r3

	/* Check pending events */
	if (status != 0) {
  401e88:	4005      	ands	r5, r0
  401e8a:	d013      	beq.n	401eb4 <pio_handler_process+0x40>
  401e8c:	4c0c      	ldr	r4, [pc, #48]	; (401ec0 <pio_handler_process+0x4c>)
  401e8e:	f104 0660 	add.w	r6, r4, #96	; 0x60
  401e92:	e003      	b.n	401e9c <pio_handler_process+0x28>
							gs_interrupt_sources[i].mask);
					status &= ~(gs_interrupt_sources[i].mask);
				}
			}
			i++;
			if (i >= MAX_INTERRUPT_SOURCES) {
  401e94:	42b4      	cmp	r4, r6
  401e96:	d00d      	beq.n	401eb4 <pio_handler_process+0x40>
  401e98:	3410      	adds	r4, #16
		while (status != 0) {
  401e9a:	b15d      	cbz	r5, 401eb4 <pio_handler_process+0x40>
			if (gs_interrupt_sources[i].id == ul_id) {
  401e9c:	6820      	ldr	r0, [r4, #0]
  401e9e:	4540      	cmp	r0, r8
  401ea0:	d1f8      	bne.n	401e94 <pio_handler_process+0x20>
				if ((status & gs_interrupt_sources[i].mask) != 0) {
  401ea2:	6861      	ldr	r1, [r4, #4]
  401ea4:	4229      	tst	r1, r5
  401ea6:	d0f5      	beq.n	401e94 <pio_handler_process+0x20>
					gs_interrupt_sources[i].handler(gs_interrupt_sources[i].id,
  401ea8:	68e3      	ldr	r3, [r4, #12]
  401eaa:	4798      	blx	r3
					status &= ~(gs_interrupt_sources[i].mask);
  401eac:	6863      	ldr	r3, [r4, #4]
  401eae:	ea25 0503 	bic.w	r5, r5, r3
  401eb2:	e7ef      	b.n	401e94 <pio_handler_process+0x20>
  401eb4:	e8bd 81f0 	ldmia.w	sp!, {r4, r5, r6, r7, r8, pc}
  401eb8:	00401e6b 	.word	0x00401e6b
  401ebc:	00401e6f 	.word	0x00401e6f
  401ec0:	20400a1c 	.word	0x20400a1c

00401ec4 <pio_handler_set>:
 *
 * \return 0 if successful, 1 if the maximum number of sources has been defined.
 */
uint32_t pio_handler_set(Pio *p_pio, uint32_t ul_id, uint32_t ul_mask,
		uint32_t ul_attr, void (*p_handler) (uint32_t, uint32_t))
{
  401ec4:	b5f8      	push	{r3, r4, r5, r6, r7, lr}
    uint8_t i;
	struct s_interrupt_source *pSource;

	if (gs_ul_nb_sources >= MAX_INTERRUPT_SOURCES)
  401ec6:	4c18      	ldr	r4, [pc, #96]	; (401f28 <pio_handler_set+0x64>)
  401ec8:	6826      	ldr	r6, [r4, #0]
  401eca:	2e06      	cmp	r6, #6
  401ecc:	d82a      	bhi.n	401f24 <pio_handler_set+0x60>
  401ece:	f04f 0c00 	mov.w	ip, #0
  401ed2:	4664      	mov	r4, ip
		return 1;

    /* Check interrupt for this pin, if already defined, redefine it. */
	for (i = 0; i <= gs_ul_nb_sources; i++) {
		pSource = &(gs_interrupt_sources[i]);
		if (pSource->id == ul_id && pSource->mask == ul_mask) {
  401ed4:	4f15      	ldr	r7, [pc, #84]	; (401f2c <pio_handler_set+0x68>)
  401ed6:	e004      	b.n	401ee2 <pio_handler_set+0x1e>
	for (i = 0; i <= gs_ul_nb_sources; i++) {
  401ed8:	3401      	adds	r4, #1
  401eda:	b2e4      	uxtb	r4, r4
  401edc:	46a4      	mov	ip, r4
  401ede:	42a6      	cmp	r6, r4
  401ee0:	d309      	bcc.n	401ef6 <pio_handler_set+0x32>
		pSource = &(gs_interrupt_sources[i]);
  401ee2:	46a6      	mov	lr, r4
		if (pSource->id == ul_id && pSource->mask == ul_mask) {
  401ee4:	0125      	lsls	r5, r4, #4
  401ee6:	597d      	ldr	r5, [r7, r5]
  401ee8:	428d      	cmp	r5, r1
  401eea:	d1f5      	bne.n	401ed8 <pio_handler_set+0x14>
  401eec:	eb07 1504 	add.w	r5, r7, r4, lsl #4
  401ef0:	686d      	ldr	r5, [r5, #4]
  401ef2:	4295      	cmp	r5, r2
  401ef4:	d1f0      	bne.n	401ed8 <pio_handler_set+0x14>
			break;
		}
	}

	/* Define new source */
	pSource->id = ul_id;
  401ef6:	4d0d      	ldr	r5, [pc, #52]	; (401f2c <pio_handler_set+0x68>)
  401ef8:	ea4f 1e0e 	mov.w	lr, lr, lsl #4
  401efc:	eb05 040e 	add.w	r4, r5, lr
  401f00:	f845 100e 	str.w	r1, [r5, lr]
	pSource->mask = ul_mask;
  401f04:	6062      	str	r2, [r4, #4]
	pSource->attr = ul_attr;
  401f06:	60a3      	str	r3, [r4, #8]
	pSource->handler = p_handler;
  401f08:	9906      	ldr	r1, [sp, #24]
  401f0a:	60e1      	str	r1, [r4, #12]
	if (i == gs_ul_nb_sources + 1) {
  401f0c:	3601      	adds	r6, #1
  401f0e:	4566      	cmp	r6, ip
  401f10:	d005      	beq.n	401f1e <pio_handler_set+0x5a>
  401f12:	4611      	mov	r1, r2
		gs_ul_nb_sources++;
	}

	/* Configure interrupt mode */
	pio_configure_interrupt(p_pio, ul_mask, ul_attr);
  401f14:	461a      	mov	r2, r3
  401f16:	4b06      	ldr	r3, [pc, #24]	; (401f30 <pio_handler_set+0x6c>)
  401f18:	4798      	blx	r3

	return 0;
  401f1a:	2000      	movs	r0, #0
  401f1c:	bdf8      	pop	{r3, r4, r5, r6, r7, pc}
		gs_ul_nb_sources++;
  401f1e:	4902      	ldr	r1, [pc, #8]	; (401f28 <pio_handler_set+0x64>)
  401f20:	600e      	str	r6, [r1, #0]
  401f22:	e7f6      	b.n	401f12 <pio_handler_set+0x4e>
		return 1;
  401f24:	2001      	movs	r0, #1
}
  401f26:	bdf8      	pop	{r3, r4, r5, r6, r7, pc}
  401f28:	20400a8c 	.word	0x20400a8c
  401f2c:	20400a1c 	.word	0x20400a1c
  401f30:	00401e35 	.word	0x00401e35

00401f34 <PIOA_Handler>:
/**
 * \brief Parallel IO Controller A interrupt handler.
 * Redefined PIOA interrupt handler for NVIC interrupt table.
 */
void PIOA_Handler(void)
{
  401f34:	b508      	push	{r3, lr}
	pio_handler_process(PIOA, ID_PIOA);
  401f36:	210a      	movs	r1, #10
  401f38:	4801      	ldr	r0, [pc, #4]	; (401f40 <PIOA_Handler+0xc>)
  401f3a:	4b02      	ldr	r3, [pc, #8]	; (401f44 <PIOA_Handler+0x10>)
  401f3c:	4798      	blx	r3
  401f3e:	bd08      	pop	{r3, pc}
  401f40:	400e0e00 	.word	0x400e0e00
  401f44:	00401e75 	.word	0x00401e75

00401f48 <PIOB_Handler>:
/**
 * \brief Parallel IO Controller B interrupt handler
 * Redefined PIOB interrupt handler for NVIC interrupt table.
 */
void PIOB_Handler(void)
{
  401f48:	b508      	push	{r3, lr}
    pio_handler_process(PIOB, ID_PIOB);
  401f4a:	210b      	movs	r1, #11
  401f4c:	4801      	ldr	r0, [pc, #4]	; (401f54 <PIOB_Handler+0xc>)
  401f4e:	4b02      	ldr	r3, [pc, #8]	; (401f58 <PIOB_Handler+0x10>)
  401f50:	4798      	blx	r3
  401f52:	bd08      	pop	{r3, pc}
  401f54:	400e1000 	.word	0x400e1000
  401f58:	00401e75 	.word	0x00401e75

00401f5c <PIOC_Handler>:
/**
 * \brief Parallel IO Controller C interrupt handler.
 * Redefined PIOC interrupt handler for NVIC interrupt table.
 */
void PIOC_Handler(void)
{
  401f5c:	b508      	push	{r3, lr}
	pio_handler_process(PIOC, ID_PIOC);
  401f5e:	210c      	movs	r1, #12
  401f60:	4801      	ldr	r0, [pc, #4]	; (401f68 <PIOC_Handler+0xc>)
  401f62:	4b02      	ldr	r3, [pc, #8]	; (401f6c <PIOC_Handler+0x10>)
  401f64:	4798      	blx	r3
  401f66:	bd08      	pop	{r3, pc}
  401f68:	400e1200 	.word	0x400e1200
  401f6c:	00401e75 	.word	0x00401e75

00401f70 <PIOD_Handler>:
/**
 * \brief Parallel IO Controller D interrupt handler.
 * Redefined PIOD interrupt handler for NVIC interrupt table.
 */
void PIOD_Handler(void)
{
  401f70:	b508      	push	{r3, lr}
	pio_handler_process(PIOD, ID_PIOD);
  401f72:	2110      	movs	r1, #16
  401f74:	4801      	ldr	r0, [pc, #4]	; (401f7c <PIOD_Handler+0xc>)
  401f76:	4b02      	ldr	r3, [pc, #8]	; (401f80 <PIOD_Handler+0x10>)
  401f78:	4798      	blx	r3
  401f7a:	bd08      	pop	{r3, pc}
  401f7c:	400e1400 	.word	0x400e1400
  401f80:	00401e75 	.word	0x00401e75

00401f84 <PIOE_Handler>:
/**
 * \brief Parallel IO Controller E interrupt handler.
 * Redefined PIOE interrupt handler for NVIC interrupt table.
 */
void PIOE_Handler(void)
{
  401f84:	b508      	push	{r3, lr}
	pio_handler_process(PIOE, ID_PIOE);
  401f86:	2111      	movs	r1, #17
  401f88:	4801      	ldr	r0, [pc, #4]	; (401f90 <PIOE_Handler+0xc>)
  401f8a:	4b02      	ldr	r3, [pc, #8]	; (401f94 <PIOE_Handler+0x10>)
  401f8c:	4798      	blx	r3
  401f8e:	bd08      	pop	{r3, pc}
  401f90:	400e1600 	.word	0x400e1600
  401f94:	00401e75 	.word	0x00401e75

00401f98 <pmc_mck_set_division>:
 *
 * \param ul_div Division value.
 */
void pmc_mck_set_division(uint32_t ul_div)
{
	switch (ul_div) {
  401f98:	2803      	cmp	r0, #3
  401f9a:	d011      	beq.n	401fc0 <pmc_mck_set_division+0x28>
  401f9c:	2804      	cmp	r0, #4
  401f9e:	d012      	beq.n	401fc6 <pmc_mck_set_division+0x2e>
		case 1:
			ul_div = PMC_MCKR_MDIV_EQ_PCK;
  401fa0:	2802      	cmp	r0, #2
  401fa2:	bf0c      	ite	eq
  401fa4:	f44f 7180 	moveq.w	r1, #256	; 0x100
  401fa8:	2100      	movne	r1, #0
		default:
			ul_div = PMC_MCKR_MDIV_EQ_PCK;
			break;
	}
	PMC->PMC_MCKR =
			(PMC->PMC_MCKR & (~PMC_MCKR_MDIV_Msk)) | ul_div;
  401faa:	4a08      	ldr	r2, [pc, #32]	; (401fcc <pmc_mck_set_division+0x34>)
  401fac:	6b13      	ldr	r3, [r2, #48]	; 0x30
  401fae:	f423 7340 	bic.w	r3, r3, #768	; 0x300
  401fb2:	430b      	orrs	r3, r1
	PMC->PMC_MCKR =
  401fb4:	6313      	str	r3, [r2, #48]	; 0x30
	while (!(PMC->PMC_SR & PMC_SR_MCKRDY));
  401fb6:	6e93      	ldr	r3, [r2, #104]	; 0x68
  401fb8:	f013 0f08 	tst.w	r3, #8
  401fbc:	d0fb      	beq.n	401fb6 <pmc_mck_set_division+0x1e>
}
  401fbe:	4770      	bx	lr
			ul_div = PMC_MCKR_MDIV_PCK_DIV3;
  401fc0:	f44f 7140 	mov.w	r1, #768	; 0x300
			break;
  401fc4:	e7f1      	b.n	401faa <pmc_mck_set_division+0x12>
			ul_div = PMC_MCKR_MDIV_PCK_DIV4;
  401fc6:	f44f 7100 	mov.w	r1, #512	; 0x200
			break;
  401fca:	e7ee      	b.n	401faa <pmc_mck_set_division+0x12>
  401fcc:	400e0600 	.word	0x400e0600

00401fd0 <pmc_switch_mck_to_pllack>:
 */
uint32_t pmc_switch_mck_to_pllack(uint32_t ul_pres)
{
	uint32_t ul_timeout;

	PMC->PMC_MCKR = (PMC->PMC_MCKR & (~PMC_MCKR_PRES_Msk)) | ul_pres;
  401fd0:	4a17      	ldr	r2, [pc, #92]	; (402030 <pmc_switch_mck_to_pllack+0x60>)
  401fd2:	6b13      	ldr	r3, [r2, #48]	; 0x30
  401fd4:	f023 0370 	bic.w	r3, r3, #112	; 0x70
  401fd8:	4318      	orrs	r0, r3
  401fda:	6310      	str	r0, [r2, #48]	; 0x30
	for (ul_timeout = PMC_TIMEOUT; !(PMC->PMC_SR & PMC_SR_MCKRDY);
  401fdc:	6e93      	ldr	r3, [r2, #104]	; 0x68
  401fde:	f013 0f08 	tst.w	r3, #8
  401fe2:	d10a      	bne.n	401ffa <pmc_switch_mck_to_pllack+0x2a>
  401fe4:	f44f 5380 	mov.w	r3, #4096	; 0x1000
  401fe8:	4911      	ldr	r1, [pc, #68]	; (402030 <pmc_switch_mck_to_pllack+0x60>)
  401fea:	6e8a      	ldr	r2, [r1, #104]	; 0x68
  401fec:	f012 0f08 	tst.w	r2, #8
  401ff0:	d103      	bne.n	401ffa <pmc_switch_mck_to_pllack+0x2a>
			--ul_timeout) {
		if (ul_timeout == 0) {
  401ff2:	3b01      	subs	r3, #1
  401ff4:	d1f9      	bne.n	401fea <pmc_switch_mck_to_pllack+0x1a>
			return 1;
  401ff6:	2001      	movs	r0, #1
  401ff8:	4770      	bx	lr
		}
	}

	PMC->PMC_MCKR = (PMC->PMC_MCKR & (~PMC_MCKR_CSS_Msk)) |
  401ffa:	4a0d      	ldr	r2, [pc, #52]	; (402030 <pmc_switch_mck_to_pllack+0x60>)
  401ffc:	6b13      	ldr	r3, [r2, #48]	; 0x30
  401ffe:	f023 0303 	bic.w	r3, r3, #3
  402002:	f043 0302 	orr.w	r3, r3, #2
  402006:	6313      	str	r3, [r2, #48]	; 0x30
			PMC_MCKR_CSS_PLLA_CLK;

	for (ul_timeout = PMC_TIMEOUT; !(PMC->PMC_SR & PMC_SR_MCKRDY);
  402008:	6e93      	ldr	r3, [r2, #104]	; 0x68
  40200a:	f013 0f08 	tst.w	r3, #8
  40200e:	d10a      	bne.n	402026 <pmc_switch_mck_to_pllack+0x56>
  402010:	f44f 5380 	mov.w	r3, #4096	; 0x1000
  402014:	4906      	ldr	r1, [pc, #24]	; (402030 <pmc_switch_mck_to_pllack+0x60>)
  402016:	6e8a      	ldr	r2, [r1, #104]	; 0x68
  402018:	f012 0f08 	tst.w	r2, #8
  40201c:	d105      	bne.n	40202a <pmc_switch_mck_to_pllack+0x5a>
			--ul_timeout) {
		if (ul_timeout == 0) {
  40201e:	3b01      	subs	r3, #1
  402020:	d1f9      	bne.n	402016 <pmc_switch_mck_to_pllack+0x46>
			return 1;
  402022:	2001      	movs	r0, #1
		}
	}

	return 0;
}
  402024:	4770      	bx	lr
	return 0;
  402026:	2000      	movs	r0, #0
  402028:	4770      	bx	lr
  40202a:	2000      	movs	r0, #0
  40202c:	4770      	bx	lr
  40202e:	bf00      	nop
  402030:	400e0600 	.word	0x400e0600

00402034 <pmc_switch_mainck_to_xtal>:
 */
void pmc_switch_mainck_to_xtal(uint32_t ul_bypass,
		uint32_t ul_xtal_startup_time)
{
	/* Enable Main Xtal oscillator */
	if (ul_bypass) {
  402034:	b9a0      	cbnz	r0, 402060 <pmc_switch_mainck_to_xtal+0x2c>
		PMC->CKGR_MOR = (PMC->CKGR_MOR & ~CKGR_MOR_MOSCXTEN) |
				CKGR_MOR_KEY_PASSWD | CKGR_MOR_MOSCXTBY |
				CKGR_MOR_MOSCSEL;
	} else {
		PMC->CKGR_MOR = (PMC->CKGR_MOR & ~CKGR_MOR_MOSCXTBY) |
  402036:	480e      	ldr	r0, [pc, #56]	; (402070 <pmc_switch_mainck_to_xtal+0x3c>)
  402038:	6a03      	ldr	r3, [r0, #32]
				CKGR_MOR_KEY_PASSWD | CKGR_MOR_MOSCXTEN |
				CKGR_MOR_MOSCXTST(ul_xtal_startup_time);
  40203a:	0209      	lsls	r1, r1, #8
  40203c:	b289      	uxth	r1, r1
				CKGR_MOR_KEY_PASSWD | CKGR_MOR_MOSCXTEN |
  40203e:	4a0d      	ldr	r2, [pc, #52]	; (402074 <pmc_switch_mainck_to_xtal+0x40>)
  402040:	401a      	ands	r2, r3
  402042:	4b0d      	ldr	r3, [pc, #52]	; (402078 <pmc_switch_mainck_to_xtal+0x44>)
  402044:	4313      	orrs	r3, r2
  402046:	4319      	orrs	r1, r3
		PMC->CKGR_MOR = (PMC->CKGR_MOR & ~CKGR_MOR_MOSCXTBY) |
  402048:	6201      	str	r1, [r0, #32]
		/* Wait the Xtal to stabilize */
		while (!(PMC->PMC_SR & PMC_SR_MOSCXTS));
  40204a:	4602      	mov	r2, r0
  40204c:	6e93      	ldr	r3, [r2, #104]	; 0x68
  40204e:	f013 0f01 	tst.w	r3, #1
  402052:	d0fb      	beq.n	40204c <pmc_switch_mainck_to_xtal+0x18>

		PMC->CKGR_MOR |= CKGR_MOR_KEY_PASSWD | CKGR_MOR_MOSCSEL;
  402054:	4a06      	ldr	r2, [pc, #24]	; (402070 <pmc_switch_mainck_to_xtal+0x3c>)
  402056:	6a11      	ldr	r1, [r2, #32]
  402058:	4b08      	ldr	r3, [pc, #32]	; (40207c <pmc_switch_mainck_to_xtal+0x48>)
  40205a:	430b      	orrs	r3, r1
  40205c:	6213      	str	r3, [r2, #32]
  40205e:	4770      	bx	lr
		PMC->CKGR_MOR = (PMC->CKGR_MOR & ~CKGR_MOR_MOSCXTEN) |
  402060:	4903      	ldr	r1, [pc, #12]	; (402070 <pmc_switch_mainck_to_xtal+0x3c>)
  402062:	6a0b      	ldr	r3, [r1, #32]
				CKGR_MOR_KEY_PASSWD | CKGR_MOR_MOSCXTBY |
  402064:	4a06      	ldr	r2, [pc, #24]	; (402080 <pmc_switch_mainck_to_xtal+0x4c>)
  402066:	401a      	ands	r2, r3
  402068:	4b06      	ldr	r3, [pc, #24]	; (402084 <pmc_switch_mainck_to_xtal+0x50>)
  40206a:	4313      	orrs	r3, r2
		PMC->CKGR_MOR = (PMC->CKGR_MOR & ~CKGR_MOR_MOSCXTEN) |
  40206c:	620b      	str	r3, [r1, #32]
  40206e:	4770      	bx	lr
  402070:	400e0600 	.word	0x400e0600
  402074:	ffc8fffc 	.word	0xffc8fffc
  402078:	00370001 	.word	0x00370001
  40207c:	01370000 	.word	0x01370000
  402080:	fec8fffc 	.word	0xfec8fffc
  402084:	01370002 	.word	0x01370002

00402088 <pmc_osc_is_ready_mainck>:
 * \retval 1 Xtal is ready.
 * \retval 0 Xtal is not ready.
 */
uint32_t pmc_osc_is_ready_mainck(void)
{
	return PMC->PMC_SR & PMC_SR_MOSCSELS;
  402088:	4b02      	ldr	r3, [pc, #8]	; (402094 <pmc_osc_is_ready_mainck+0xc>)
  40208a:	6e98      	ldr	r0, [r3, #104]	; 0x68
}
  40208c:	f400 3080 	and.w	r0, r0, #65536	; 0x10000
  402090:	4770      	bx	lr
  402092:	bf00      	nop
  402094:	400e0600 	.word	0x400e0600

00402098 <pmc_disable_pllack>:
void pmc_disable_pllack(void)
{
#if (SAM4C || SAM4CM || SAM4CP || SAMG)
	PMC->CKGR_PLLAR = CKGR_PLLAR_MULA(0);
#else
	PMC->CKGR_PLLAR = CKGR_PLLAR_ONE | CKGR_PLLAR_MULA(0);
  402098:	f04f 5200 	mov.w	r2, #536870912	; 0x20000000
  40209c:	4b01      	ldr	r3, [pc, #4]	; (4020a4 <pmc_disable_pllack+0xc>)
  40209e:	629a      	str	r2, [r3, #40]	; 0x28
  4020a0:	4770      	bx	lr
  4020a2:	bf00      	nop
  4020a4:	400e0600 	.word	0x400e0600

004020a8 <pmc_is_locked_pllack>:
 * \retval 0 Not locked.
 * \retval 1 Locked.
 */
uint32_t pmc_is_locked_pllack(void)
{
	return (PMC->PMC_SR & PMC_SR_LOCKA);
  4020a8:	4b02      	ldr	r3, [pc, #8]	; (4020b4 <pmc_is_locked_pllack+0xc>)
  4020aa:	6e98      	ldr	r0, [r3, #104]	; 0x68
}
  4020ac:	f000 0002 	and.w	r0, r0, #2
  4020b0:	4770      	bx	lr
  4020b2:	bf00      	nop
  4020b4:	400e0600 	.word	0x400e0600

004020b8 <pmc_enable_periph_clk>:
 */
uint32_t pmc_enable_periph_clk(uint32_t ul_id)
{
#if defined(REG_PMC_PCR) && !SAMG55
	uint32_t pcr;
	PMC->PMC_PCR = ul_id & 0x7F;
  4020b8:	f000 007f 	and.w	r0, r0, #127	; 0x7f
  4020bc:	4b05      	ldr	r3, [pc, #20]	; (4020d4 <pmc_enable_periph_clk+0x1c>)
  4020be:	f8c3 010c 	str.w	r0, [r3, #268]	; 0x10c
	pcr = PMC->PMC_PCR | PMC_PCR_EN | PMC_PCR_CMD;
  4020c2:	f8d3 210c 	ldr.w	r2, [r3, #268]	; 0x10c
  4020c6:	f042 2210 	orr.w	r2, r2, #268439552	; 0x10001000
	PMC->PMC_PCR = pcr;
  4020ca:	f8c3 210c 	str.w	r2, [r3, #268]	; 0x10c
#endif
	}

	return 0;
#endif /* defined(REG_PMC_PCR) && !SAMG55 */
}
  4020ce:	2000      	movs	r0, #0
  4020d0:	4770      	bx	lr
  4020d2:	bf00      	nop
  4020d4:	400e0600 	.word	0x400e0600

004020d8 <rtc_get_time>:
 * \param pul_minute Current minute.
 * \param pul_second Current second.
 */
void rtc_get_time(Rtc *p_rtc, uint32_t *pul_hour, uint32_t *pul_minute,
		uint32_t *pul_second)
{
  4020d8:	b430      	push	{r4, r5}
	uint32_t ul_time;
	uint32_t ul_temp;

	/* Get the current RTC time (multiple reads are necessary to insure a stable value). */
	ul_time = p_rtc->RTC_TIMR;
  4020da:	6885      	ldr	r5, [r0, #8]
	while (ul_time != p_rtc->RTC_TIMR) {
  4020dc:	6884      	ldr	r4, [r0, #8]
  4020de:	42a5      	cmp	r5, r4
  4020e0:	d003      	beq.n	4020ea <rtc_get_time+0x12>
		ul_time = p_rtc->RTC_TIMR;
  4020e2:	6885      	ldr	r5, [r0, #8]
	while (ul_time != p_rtc->RTC_TIMR) {
  4020e4:	6884      	ldr	r4, [r0, #8]
  4020e6:	42ac      	cmp	r4, r5
  4020e8:	d1fb      	bne.n	4020e2 <rtc_get_time+0xa>
	}

	/* Hour */
	if (pul_hour) {
  4020ea:	b161      	cbz	r1, 402106 <rtc_get_time+0x2e>
		ul_temp = (ul_time & RTC_TIMR_HOUR_Msk) >> RTC_TIMR_HOUR_Pos;
		*pul_hour = (ul_temp >> BCD_SHIFT) * BCD_FACTOR + (ul_temp & BCD_MASK);
  4020ec:	f3c4 5001 	ubfx	r0, r4, #20, #2
  4020f0:	eb00 0580 	add.w	r5, r0, r0, lsl #2
  4020f4:	f3c4 4003 	ubfx	r0, r4, #16, #4
  4020f8:	eb00 0045 	add.w	r0, r0, r5, lsl #1

		if ((ul_time & RTC_TIMR_AMPM) == RTC_TIMR_AMPM) {
  4020fc:	f414 0f80 	tst.w	r4, #4194304	; 0x400000
			*pul_hour += 12;
  402100:	bf18      	it	ne
  402102:	300c      	addne	r0, #12
  402104:	6008      	str	r0, [r1, #0]
		}
	}

	/* Minute */
	if (pul_minute) {
  402106:	b142      	cbz	r2, 40211a <rtc_get_time+0x42>
		ul_temp = (ul_time & RTC_TIMR_MIN_Msk) >> RTC_TIMR_MIN_Pos;
		*pul_minute = (ul_temp >> BCD_SHIFT) * BCD_FACTOR +  (ul_temp & BCD_MASK);
  402108:	f3c4 3102 	ubfx	r1, r4, #12, #3
  40210c:	eb01 0181 	add.w	r1, r1, r1, lsl #2
  402110:	f3c4 2003 	ubfx	r0, r4, #8, #4
  402114:	eb00 0141 	add.w	r1, r0, r1, lsl #1
  402118:	6011      	str	r1, [r2, #0]
	}

	/* Second */
	if (pul_second) {
  40211a:	b143      	cbz	r3, 40212e <rtc_get_time+0x56>
		ul_temp = (ul_time & RTC_TIMR_SEC_Msk) >> RTC_TIMR_SEC_Pos;
		*pul_second = (ul_temp >> BCD_SHIFT) * BCD_FACTOR + (ul_temp & BCD_MASK);
  40211c:	f3c4 1202 	ubfx	r2, r4, #4, #3
  402120:	eb02 0282 	add.w	r2, r2, r2, lsl #2
  402124:	f004 040f 	and.w	r4, r4, #15
  402128:	eb04 0442 	add.w	r4, r4, r2, lsl #1
  40212c:	601c      	str	r4, [r3, #0]
	}
}
  40212e:	bc30      	pop	{r4, r5}
  402130:	4770      	bx	lr

00402132 <rtc_get_date>:
 * \param pul_day Current day.
 * \param pul_week Current day in current week.
 */
void rtc_get_date(Rtc *p_rtc, uint32_t *pul_year, uint32_t *pul_month,
		uint32_t *pul_day, uint32_t *pul_week)
{
  402132:	b4f0      	push	{r4, r5, r6, r7}
  402134:	9e04      	ldr	r6, [sp, #16]
	uint32_t ul_date;
	uint32_t ul_cent;
	uint32_t ul_temp;

	/* Get the current date (multiple reads are necessary to insure a stable value). */
	ul_date = p_rtc->RTC_CALR;
  402136:	68c5      	ldr	r5, [r0, #12]
	while (ul_date != p_rtc->RTC_CALR) {
  402138:	68c4      	ldr	r4, [r0, #12]
  40213a:	42a5      	cmp	r5, r4
  40213c:	d003      	beq.n	402146 <rtc_get_date+0x14>
		ul_date = p_rtc->RTC_CALR;
  40213e:	68c5      	ldr	r5, [r0, #12]
	while (ul_date != p_rtc->RTC_CALR) {
  402140:	68c4      	ldr	r4, [r0, #12]
  402142:	42ac      	cmp	r4, r5
  402144:	d1fb      	bne.n	40213e <rtc_get_date+0xc>
	}

	/* Retrieve year */
	if (pul_year) {
  402146:	b199      	cbz	r1, 402170 <rtc_get_date+0x3e>
		ul_temp = (ul_date & RTC_CALR_CENT_Msk) >> RTC_CALR_CENT_Pos;
		ul_cent = (ul_temp >> BCD_SHIFT) * BCD_FACTOR + (ul_temp & BCD_MASK);
		ul_temp = (ul_date & RTC_CALR_YEAR_Msk) >> RTC_CALR_YEAR_Pos;
		*pul_year = (ul_cent * BCD_FACTOR * BCD_FACTOR) +
				(ul_temp >> BCD_SHIFT) * BCD_FACTOR + (ul_temp & BCD_MASK);
  402148:	f3c4 3003 	ubfx	r0, r4, #12, #4
  40214c:	eb00 0080 	add.w	r0, r0, r0, lsl #2
  402150:	f3c4 2703 	ubfx	r7, r4, #8, #4
  402154:	eb07 0740 	add.w	r7, r7, r0, lsl #1
		ul_cent = (ul_temp >> BCD_SHIFT) * BCD_FACTOR + (ul_temp & BCD_MASK);
  402158:	f3c4 1002 	ubfx	r0, r4, #4, #3
  40215c:	eb00 0580 	add.w	r5, r0, r0, lsl #2
  402160:	f004 000f 	and.w	r0, r4, #15
  402164:	eb00 0045 	add.w	r0, r0, r5, lsl #1
				(ul_temp >> BCD_SHIFT) * BCD_FACTOR + (ul_temp & BCD_MASK);
  402168:	2564      	movs	r5, #100	; 0x64
  40216a:	fb05 7000 	mla	r0, r5, r0, r7
		*pul_year = (ul_cent * BCD_FACTOR * BCD_FACTOR) +
  40216e:	6008      	str	r0, [r1, #0]
	}

	/* Retrieve month */
	if (pul_month) {
  402170:	b142      	cbz	r2, 402184 <rtc_get_date+0x52>
		ul_temp = (ul_date & RTC_CALR_MONTH_Msk) >> RTC_CALR_MONTH_Pos;
		*pul_month = (ul_temp >> BCD_SHIFT) * BCD_FACTOR + (ul_temp & BCD_MASK);
  402172:	f3c4 5000 	ubfx	r0, r4, #20, #1
  402176:	0081      	lsls	r1, r0, #2
  402178:	4408      	add	r0, r1
  40217a:	f3c4 4103 	ubfx	r1, r4, #16, #4
  40217e:	eb01 0140 	add.w	r1, r1, r0, lsl #1
  402182:	6011      	str	r1, [r2, #0]
	}

	/* Retrieve day */
	if (pul_day) {
  402184:	b143      	cbz	r3, 402198 <rtc_get_date+0x66>
		ul_temp = (ul_date & RTC_CALR_DATE_Msk) >> RTC_CALR_DATE_Pos;
		*pul_day = (ul_temp >> BCD_SHIFT) * BCD_FACTOR + (ul_temp & BCD_MASK);
  402186:	f3c4 7201 	ubfx	r2, r4, #28, #2
  40218a:	eb02 0282 	add.w	r2, r2, r2, lsl #2
  40218e:	f3c4 6103 	ubfx	r1, r4, #24, #4
  402192:	eb01 0242 	add.w	r2, r1, r2, lsl #1
  402196:	601a      	str	r2, [r3, #0]
	}

	/* Retrieve week */
	if (pul_week) {
  402198:	b116      	cbz	r6, 4021a0 <rtc_get_date+0x6e>
		*pul_week = ((ul_date & RTC_CALR_DAY_Msk) >> RTC_CALR_DAY_Pos);
  40219a:	f3c4 5442 	ubfx	r4, r4, #21, #3
  40219e:	6034      	str	r4, [r6, #0]
	}
}
  4021a0:	bcf0      	pop	{r4, r5, r6, r7}
  4021a2:	4770      	bx	lr

004021a4 <xdmac_configure_transfer>:
  4021a4:	eb00 1181 	add.w	r1, r0, r1, lsl #6
  4021a8:	6dcb      	ldr	r3, [r1, #92]	; 0x5c
	Assert(xdmac);
	Assert(channel_num < XDMACCHID_NUMBER);
	Assert(cfg);
	
	xdmac_channel_get_interrupt_status( xdmac, channel_num);
	xdmac_channel_set_source_addr(xdmac, channel_num, cfg->mbr_sa);
  4021aa:	6853      	ldr	r3, [r2, #4]
 */
static inline void xdmac_channel_set_source_addr(Xdmac *xdmac, uint32_t channel_num, uint32_t src_addr)
{
	Assert(xdmac);
	Assert(channel_num < XDMACCHID_NUMBER);
	xdmac->XDMAC_CHID[channel_num].XDMAC_CSA = src_addr;
  4021ac:	660b      	str	r3, [r1, #96]	; 0x60
	xdmac_channel_set_destination_addr(xdmac, channel_num, cfg->mbr_da);
  4021ae:	6893      	ldr	r3, [r2, #8]
 */
static inline void xdmac_channel_set_destination_addr(Xdmac *xdmac, uint32_t channel_num, uint32_t dst_addr)
{
	Assert(xdmac);
	Assert(channel_num < XDMACCHID_NUMBER);
	xdmac->XDMAC_CHID[channel_num].XDMAC_CDA = dst_addr;
  4021b0:	664b      	str	r3, [r1, #100]	; 0x64
 */
static inline void xdmac_channel_set_microblock_control(Xdmac *xdmac, uint32_t channel_num, uint32_t ublen)
{
	Assert(xdmac);
	Assert(channel_num < XDMACCHID_NUMBER);
	xdmac->XDMAC_CHID[channel_num].XDMAC_CUBC = XDMAC_CUBC_UBLEN(ublen);
  4021b2:	6813      	ldr	r3, [r2, #0]
  4021b4:	f023 437f 	bic.w	r3, r3, #4278190080	; 0xff000000
  4021b8:	670b      	str	r3, [r1, #112]	; 0x70
 */
static inline void xdmac_channel_set_block_control(Xdmac *xdmac, uint32_t channel_num, uint32_t blen)
{
	Assert(xdmac);
	Assert(channel_num < XDMACCHID_NUMBER);
	xdmac->XDMAC_CHID[channel_num].XDMAC_CBC = XDMAC_CBC_BLEN(blen);
  4021ba:	6913      	ldr	r3, [r2, #16]
  4021bc:	f3c3 030b 	ubfx	r3, r3, #0, #12
  4021c0:	674b      	str	r3, [r1, #116]	; 0x74
	xdmac_channel_set_microblock_control(xdmac, channel_num, cfg->mbr_ubc);
	xdmac_channel_set_block_control(xdmac, channel_num, cfg->mbr_bc);
	xdmac_channel_set_datastride_mempattern(xdmac, channel_num, cfg->mbr_ds);
  4021c2:	6953      	ldr	r3, [r2, #20]
 */
static inline void xdmac_channel_set_datastride_mempattern(Xdmac *xdmac, uint32_t channel_num, uint32_t dds_msp)
{
	Assert(xdmac);
	Assert(channel_num < XDMACCHID_NUMBER);
	xdmac->XDMAC_CHID[channel_num].XDMAC_CDS_MSP = dds_msp;
  4021c4:	67cb      	str	r3, [r1, #124]	; 0x7c
static inline void xdmac_channel_set_source_microblock_stride(Xdmac *xdmac,
		uint32_t channel_num, uint32_t subs)
{
	Assert(xdmac);
	Assert(channel_num < XDMACCHID_NUMBER);
	xdmac->XDMAC_CHID[channel_num].XDMAC_CSUS = XDMAC_CSUS_SUBS(subs);
  4021c6:	6993      	ldr	r3, [r2, #24]
  4021c8:	f023 437f 	bic.w	r3, r3, #4278190080	; 0xff000000
  4021cc:	f8c1 3080 	str.w	r3, [r1, #128]	; 0x80
static inline void xdmac_channel_set_destination_microblock_stride(Xdmac *xdmac,
		uint32_t channel_num, uint32_t dubs)
{
	Assert(xdmac);
	Assert(channel_num < XDMACCHID_NUMBER);
	xdmac->XDMAC_CHID[channel_num].XDMAC_CDUS = XDMAC_CDUS_DUBS(dubs);
  4021d0:	69d3      	ldr	r3, [r2, #28]
  4021d2:	f023 437f 	bic.w	r3, r3, #4278190080	; 0xff000000
  4021d6:	f8c1 3084 	str.w	r3, [r1, #132]	; 0x84
	xdmac_channel_set_source_microblock_stride(xdmac, channel_num, cfg->mbr_sus);
	xdmac_channel_set_destination_microblock_stride(xdmac, channel_num, cfg->mbr_dus);
	xdmac_channel_set_config(xdmac, channel_num, cfg->mbr_cfg );
  4021da:	68d3      	ldr	r3, [r2, #12]
	xdmac->XDMAC_CHID[channel_num].XDMAC_CC = config;
  4021dc:	678b      	str	r3, [r1, #120]	; 0x78
  4021de:	4770      	bx	lr

004021e0 <Dummy_Handler>:

/**
 * \brief Default interrupt handler for unused IRQs.
 */
void Dummy_Handler(void)
{
  4021e0:	e7fe      	b.n	4021e0 <Dummy_Handler>
	...

004021e4 <Reset_Handler>:
{
  4021e4:	b500      	push	{lr}
  4021e6:	b083      	sub	sp, #12
        if (pSrc != pDest) {
  4021e8:	4b25      	ldr	r3, [pc, #148]	; (402280 <Reset_Handler+0x9c>)
  4021ea:	4a26      	ldr	r2, [pc, #152]	; (402284 <Reset_Handler+0xa0>)
  4021ec:	429a      	cmp	r2, r3
  4021ee:	d010      	beq.n	402212 <Reset_Handler+0x2e>
                for (; pDest < &_erelocate;) {
  4021f0:	4b25      	ldr	r3, [pc, #148]	; (402288 <Reset_Handler+0xa4>)
  4021f2:	4a23      	ldr	r2, [pc, #140]	; (402280 <Reset_Handler+0x9c>)
  4021f4:	429a      	cmp	r2, r3
  4021f6:	d20c      	bcs.n	402212 <Reset_Handler+0x2e>
  4021f8:	3b01      	subs	r3, #1
  4021fa:	1a9b      	subs	r3, r3, r2
  4021fc:	f023 0303 	bic.w	r3, r3, #3
  402200:	3304      	adds	r3, #4
  402202:	4413      	add	r3, r2
  402204:	491f      	ldr	r1, [pc, #124]	; (402284 <Reset_Handler+0xa0>)
                        *pDest++ = *pSrc++;
  402206:	f851 0b04 	ldr.w	r0, [r1], #4
  40220a:	f842 0b04 	str.w	r0, [r2], #4
                for (; pDest < &_erelocate;) {
  40220e:	429a      	cmp	r2, r3
  402210:	d1f9      	bne.n	402206 <Reset_Handler+0x22>
        for (pDest = &_szero; pDest < &_ezero;) {
  402212:	4b1e      	ldr	r3, [pc, #120]	; (40228c <Reset_Handler+0xa8>)
  402214:	4a1e      	ldr	r2, [pc, #120]	; (402290 <Reset_Handler+0xac>)
  402216:	429a      	cmp	r2, r3
  402218:	d20a      	bcs.n	402230 <Reset_Handler+0x4c>
  40221a:	3b01      	subs	r3, #1
  40221c:	1a9b      	subs	r3, r3, r2
  40221e:	f023 0303 	bic.w	r3, r3, #3
  402222:	3304      	adds	r3, #4
  402224:	4413      	add	r3, r2
                *pDest++ = 0;
  402226:	2100      	movs	r1, #0
  402228:	f842 1b04 	str.w	r1, [r2], #4
        for (pDest = &_szero; pDest < &_ezero;) {
  40222c:	4293      	cmp	r3, r2
  40222e:	d1fb      	bne.n	402228 <Reset_Handler+0x44>
        SCB->VTOR = ((uint32_t) pSrc & SCB_VTOR_TBLOFF_Msk);
  402230:	4a18      	ldr	r2, [pc, #96]	; (402294 <Reset_Handler+0xb0>)
  402232:	4b19      	ldr	r3, [pc, #100]	; (402298 <Reset_Handler+0xb4>)
  402234:	f023 037f 	bic.w	r3, r3, #127	; 0x7f
  402238:	6093      	str	r3, [r2, #8]
  __ASM volatile ("MRS %0, primask" : "=r" (result) );
  40223a:	f3ef 8310 	mrs	r3, PRIMASK
	volatile irqflags_t flags = cpu_irq_is_enabled();
  40223e:	fab3 f383 	clz	r3, r3
  402242:	095b      	lsrs	r3, r3, #5
  402244:	9301      	str	r3, [sp, #4]
  __ASM volatile ("cpsid i" : : : "memory");
  402246:	b672      	cpsid	i
  __ASM volatile ("dmb");
  402248:	f3bf 8f5f 	dmb	sy
	cpu_irq_disable();
  40224c:	2200      	movs	r2, #0
  40224e:	4b13      	ldr	r3, [pc, #76]	; (40229c <Reset_Handler+0xb8>)
  402250:	701a      	strb	r2, [r3, #0]
	return flags;
  402252:	9901      	ldr	r1, [sp, #4]
 */
__always_inline static void fpu_enable(void)
{
	irqflags_t flags;
	flags = cpu_irq_save();
	REG_CPACR |=  (0xFu << 20);
  402254:	4a12      	ldr	r2, [pc, #72]	; (4022a0 <Reset_Handler+0xbc>)
  402256:	6813      	ldr	r3, [r2, #0]
  402258:	f443 0370 	orr.w	r3, r3, #15728640	; 0xf00000
  40225c:	6013      	str	r3, [r2, #0]
  __ASM volatile ("dsb");
  40225e:	f3bf 8f4f 	dsb	sy
  __ASM volatile ("isb");
  402262:	f3bf 8f6f 	isb	sy
	if (cpu_irq_is_enabled_flags(flags))
  402266:	b129      	cbz	r1, 402274 <Reset_Handler+0x90>
		cpu_irq_enable();
  402268:	2201      	movs	r2, #1
  40226a:	4b0c      	ldr	r3, [pc, #48]	; (40229c <Reset_Handler+0xb8>)
  40226c:	701a      	strb	r2, [r3, #0]
  __ASM volatile ("dmb");
  40226e:	f3bf 8f5f 	dmb	sy
  __ASM volatile ("cpsie i" : : : "memory");
  402272:	b662      	cpsie	i
        __libc_init_array();
  402274:	4b0b      	ldr	r3, [pc, #44]	; (4022a4 <Reset_Handler+0xc0>)
  402276:	4798      	blx	r3
        main();
  402278:	4b0b      	ldr	r3, [pc, #44]	; (4022a8 <Reset_Handler+0xc4>)
  40227a:	4798      	blx	r3
  40227c:	e7fe      	b.n	40227c <Reset_Handler+0x98>
  40227e:	bf00      	nop
  402280:	20400000 	.word	0x20400000
  402284:	0040a24c 	.word	0x0040a24c
  402288:	204009e8 	.word	0x204009e8
  40228c:	2040c550 	.word	0x2040c550
  402290:	204009e8 	.word	0x204009e8
  402294:	e000ed00 	.word	0xe000ed00
  402298:	00400000 	.word	0x00400000
  40229c:	20400030 	.word	0x20400030
  4022a0:	e000ed88 	.word	0xe000ed88
  4022a4:	00406865 	.word	0x00406865
  4022a8:	004066f1 	.word	0x004066f1

004022ac <SystemCoreClockUpdate>:
}

void SystemCoreClockUpdate( void )
{
  /* Determine clock frequency according to clock register values */
  switch (PMC->PMC_MCKR & (uint32_t) PMC_MCKR_CSS_Msk)
  4022ac:	4b3b      	ldr	r3, [pc, #236]	; (40239c <SystemCoreClockUpdate+0xf0>)
  4022ae:	6b1b      	ldr	r3, [r3, #48]	; 0x30
  4022b0:	f003 0303 	and.w	r3, r3, #3
  4022b4:	2b01      	cmp	r3, #1
  4022b6:	d01d      	beq.n	4022f4 <SystemCoreClockUpdate+0x48>
  4022b8:	b183      	cbz	r3, 4022dc <SystemCoreClockUpdate+0x30>
  4022ba:	2b02      	cmp	r3, #2
  4022bc:	d036      	beq.n	40232c <SystemCoreClockUpdate+0x80>

    default:
    break;
  }

  if ( (PMC->PMC_MCKR & PMC_MCKR_PRES_Msk) == PMC_MCKR_PRES_CLK_3 )
  4022be:	4b37      	ldr	r3, [pc, #220]	; (40239c <SystemCoreClockUpdate+0xf0>)
  4022c0:	6b1b      	ldr	r3, [r3, #48]	; 0x30
  4022c2:	f003 0370 	and.w	r3, r3, #112	; 0x70
  4022c6:	2b70      	cmp	r3, #112	; 0x70
  4022c8:	d05f      	beq.n	40238a <SystemCoreClockUpdate+0xde>
  {
    SystemCoreClock /= 3U;
  }
  else
  {
    SystemCoreClock >>= ((PMC->PMC_MCKR & PMC_MCKR_PRES_Msk) >> PMC_MCKR_PRES_Pos);
  4022ca:	4b34      	ldr	r3, [pc, #208]	; (40239c <SystemCoreClockUpdate+0xf0>)
  4022cc:	6b1a      	ldr	r2, [r3, #48]	; 0x30
  4022ce:	4934      	ldr	r1, [pc, #208]	; (4023a0 <SystemCoreClockUpdate+0xf4>)
  4022d0:	f3c2 1202 	ubfx	r2, r2, #4, #3
  4022d4:	680b      	ldr	r3, [r1, #0]
  4022d6:	40d3      	lsrs	r3, r2
  4022d8:	600b      	str	r3, [r1, #0]
  4022da:	4770      	bx	lr
      if ( SUPC->SUPC_SR & SUPC_SR_OSCSEL )
  4022dc:	4b31      	ldr	r3, [pc, #196]	; (4023a4 <SystemCoreClockUpdate+0xf8>)
  4022de:	695b      	ldr	r3, [r3, #20]
  4022e0:	f013 0f80 	tst.w	r3, #128	; 0x80
        SystemCoreClock = CHIP_FREQ_XTAL_32K;
  4022e4:	bf14      	ite	ne
  4022e6:	f44f 4200 	movne.w	r2, #32768	; 0x8000
        SystemCoreClock = CHIP_FREQ_SLCK_RC;
  4022ea:	f44f 42fa 	moveq.w	r2, #32000	; 0x7d00
  4022ee:	4b2c      	ldr	r3, [pc, #176]	; (4023a0 <SystemCoreClockUpdate+0xf4>)
  4022f0:	601a      	str	r2, [r3, #0]
  4022f2:	e7e4      	b.n	4022be <SystemCoreClockUpdate+0x12>
      if ( PMC->CKGR_MOR & CKGR_MOR_MOSCSEL )
  4022f4:	4b29      	ldr	r3, [pc, #164]	; (40239c <SystemCoreClockUpdate+0xf0>)
  4022f6:	6a1b      	ldr	r3, [r3, #32]
  4022f8:	f013 7f80 	tst.w	r3, #16777216	; 0x1000000
  4022fc:	d003      	beq.n	402306 <SystemCoreClockUpdate+0x5a>
        SystemCoreClock = CHIP_FREQ_XTAL_12M;
  4022fe:	4a2a      	ldr	r2, [pc, #168]	; (4023a8 <SystemCoreClockUpdate+0xfc>)
  402300:	4b27      	ldr	r3, [pc, #156]	; (4023a0 <SystemCoreClockUpdate+0xf4>)
  402302:	601a      	str	r2, [r3, #0]
  402304:	e7db      	b.n	4022be <SystemCoreClockUpdate+0x12>
        SystemCoreClock = CHIP_FREQ_MAINCK_RC_4MHZ;
  402306:	4a29      	ldr	r2, [pc, #164]	; (4023ac <SystemCoreClockUpdate+0x100>)
  402308:	4b25      	ldr	r3, [pc, #148]	; (4023a0 <SystemCoreClockUpdate+0xf4>)
  40230a:	601a      	str	r2, [r3, #0]
        switch ( PMC->CKGR_MOR & CKGR_MOR_MOSCRCF_Msk )
  40230c:	4b23      	ldr	r3, [pc, #140]	; (40239c <SystemCoreClockUpdate+0xf0>)
  40230e:	6a1b      	ldr	r3, [r3, #32]
  402310:	f003 0370 	and.w	r3, r3, #112	; 0x70
  402314:	2b10      	cmp	r3, #16
  402316:	d005      	beq.n	402324 <SystemCoreClockUpdate+0x78>
  402318:	2b20      	cmp	r3, #32
  40231a:	d1d0      	bne.n	4022be <SystemCoreClockUpdate+0x12>
            SystemCoreClock *= 3U;
  40231c:	4a22      	ldr	r2, [pc, #136]	; (4023a8 <SystemCoreClockUpdate+0xfc>)
  40231e:	4b20      	ldr	r3, [pc, #128]	; (4023a0 <SystemCoreClockUpdate+0xf4>)
  402320:	601a      	str	r2, [r3, #0]
          break;
  402322:	e7cc      	b.n	4022be <SystemCoreClockUpdate+0x12>
            SystemCoreClock *= 2U;
  402324:	4a22      	ldr	r2, [pc, #136]	; (4023b0 <SystemCoreClockUpdate+0x104>)
  402326:	4b1e      	ldr	r3, [pc, #120]	; (4023a0 <SystemCoreClockUpdate+0xf4>)
  402328:	601a      	str	r2, [r3, #0]
          break;
  40232a:	e7c8      	b.n	4022be <SystemCoreClockUpdate+0x12>
      if ( PMC->CKGR_MOR & CKGR_MOR_MOSCSEL )
  40232c:	4b1b      	ldr	r3, [pc, #108]	; (40239c <SystemCoreClockUpdate+0xf0>)
  40232e:	6a1b      	ldr	r3, [r3, #32]
  402330:	f013 7f80 	tst.w	r3, #16777216	; 0x1000000
  402334:	d016      	beq.n	402364 <SystemCoreClockUpdate+0xb8>
        SystemCoreClock = CHIP_FREQ_XTAL_12M ;
  402336:	4a1c      	ldr	r2, [pc, #112]	; (4023a8 <SystemCoreClockUpdate+0xfc>)
  402338:	4b19      	ldr	r3, [pc, #100]	; (4023a0 <SystemCoreClockUpdate+0xf4>)
  40233a:	601a      	str	r2, [r3, #0]
      if ( (uint32_t) (PMC->PMC_MCKR & (uint32_t) PMC_MCKR_CSS_Msk) == PMC_MCKR_CSS_PLLA_CLK )
  40233c:	4b17      	ldr	r3, [pc, #92]	; (40239c <SystemCoreClockUpdate+0xf0>)
  40233e:	6b1b      	ldr	r3, [r3, #48]	; 0x30
  402340:	f003 0303 	and.w	r3, r3, #3
  402344:	2b02      	cmp	r3, #2
  402346:	d1ba      	bne.n	4022be <SystemCoreClockUpdate+0x12>
        SystemCoreClock *= ((((PMC->CKGR_PLLAR) & CKGR_PLLAR_MULA_Msk) >> CKGR_PLLAR_MULA_Pos) + 1U);
  402348:	4a14      	ldr	r2, [pc, #80]	; (40239c <SystemCoreClockUpdate+0xf0>)
  40234a:	6a91      	ldr	r1, [r2, #40]	; 0x28
        SystemCoreClock /= ((((PMC->CKGR_PLLAR) & CKGR_PLLAR_DIVA_Msk) >> CKGR_PLLAR_DIVA_Pos));
  40234c:	6a92      	ldr	r2, [r2, #40]	; 0x28
  40234e:	4814      	ldr	r0, [pc, #80]	; (4023a0 <SystemCoreClockUpdate+0xf4>)
        SystemCoreClock *= ((((PMC->CKGR_PLLAR) & CKGR_PLLAR_MULA_Msk) >> CKGR_PLLAR_MULA_Pos) + 1U);
  402350:	f3c1 410a 	ubfx	r1, r1, #16, #11
  402354:	6803      	ldr	r3, [r0, #0]
  402356:	fb01 3303 	mla	r3, r1, r3, r3
        SystemCoreClock /= ((((PMC->CKGR_PLLAR) & CKGR_PLLAR_DIVA_Msk) >> CKGR_PLLAR_DIVA_Pos));
  40235a:	b2d2      	uxtb	r2, r2
  40235c:	fbb3 f3f2 	udiv	r3, r3, r2
  402360:	6003      	str	r3, [r0, #0]
  402362:	e7ac      	b.n	4022be <SystemCoreClockUpdate+0x12>
        SystemCoreClock = CHIP_FREQ_MAINCK_RC_4MHZ;
  402364:	4a11      	ldr	r2, [pc, #68]	; (4023ac <SystemCoreClockUpdate+0x100>)
  402366:	4b0e      	ldr	r3, [pc, #56]	; (4023a0 <SystemCoreClockUpdate+0xf4>)
  402368:	601a      	str	r2, [r3, #0]
        switch ( PMC->CKGR_MOR & CKGR_MOR_MOSCRCF_Msk )
  40236a:	4b0c      	ldr	r3, [pc, #48]	; (40239c <SystemCoreClockUpdate+0xf0>)
  40236c:	6a1b      	ldr	r3, [r3, #32]
  40236e:	f003 0370 	and.w	r3, r3, #112	; 0x70
  402372:	2b10      	cmp	r3, #16
  402374:	d005      	beq.n	402382 <SystemCoreClockUpdate+0xd6>
  402376:	2b20      	cmp	r3, #32
  402378:	d1e0      	bne.n	40233c <SystemCoreClockUpdate+0x90>
            SystemCoreClock *= 3U;
  40237a:	4a0b      	ldr	r2, [pc, #44]	; (4023a8 <SystemCoreClockUpdate+0xfc>)
  40237c:	4b08      	ldr	r3, [pc, #32]	; (4023a0 <SystemCoreClockUpdate+0xf4>)
  40237e:	601a      	str	r2, [r3, #0]
          break;
  402380:	e7dc      	b.n	40233c <SystemCoreClockUpdate+0x90>
            SystemCoreClock *= 2U;
  402382:	4a0b      	ldr	r2, [pc, #44]	; (4023b0 <SystemCoreClockUpdate+0x104>)
  402384:	4b06      	ldr	r3, [pc, #24]	; (4023a0 <SystemCoreClockUpdate+0xf4>)
  402386:	601a      	str	r2, [r3, #0]
          break;
  402388:	e7d8      	b.n	40233c <SystemCoreClockUpdate+0x90>
    SystemCoreClock /= 3U;
  40238a:	4a05      	ldr	r2, [pc, #20]	; (4023a0 <SystemCoreClockUpdate+0xf4>)
  40238c:	6813      	ldr	r3, [r2, #0]
  40238e:	4909      	ldr	r1, [pc, #36]	; (4023b4 <SystemCoreClockUpdate+0x108>)
  402390:	fba1 1303 	umull	r1, r3, r1, r3
  402394:	085b      	lsrs	r3, r3, #1
  402396:	6013      	str	r3, [r2, #0]
  402398:	4770      	bx	lr
  40239a:	bf00      	nop
  40239c:	400e0600 	.word	0x400e0600
  4023a0:	20400034 	.word	0x20400034
  4023a4:	400e1810 	.word	0x400e1810
  4023a8:	00b71b00 	.word	0x00b71b00
  4023ac:	003d0900 	.word	0x003d0900
  4023b0:	007a1200 	.word	0x007a1200
  4023b4:	aaaaaaab 	.word	0xaaaaaaab

004023b8 <system_init_flash>:
 * Initialize flash.
 */
void system_init_flash( uint32_t ul_clk )
{
  /* Set FWS for embedded Flash access according to operating frequency */
  if ( ul_clk < CHIP_FREQ_FWS_0 )
  4023b8:	4b16      	ldr	r3, [pc, #88]	; (402414 <system_init_flash+0x5c>)
  4023ba:	4298      	cmp	r0, r3
  4023bc:	d913      	bls.n	4023e6 <system_init_flash+0x2e>
  {
    EFC->EEFC_FMR = EEFC_FMR_FWS(0)|EEFC_FMR_CLOE;
  }
  else
  {
    if (ul_clk < CHIP_FREQ_FWS_1)
  4023be:	4b16      	ldr	r3, [pc, #88]	; (402418 <system_init_flash+0x60>)
  4023c0:	4298      	cmp	r0, r3
  4023c2:	d915      	bls.n	4023f0 <system_init_flash+0x38>
    {
      EFC->EEFC_FMR = EEFC_FMR_FWS(1)|EEFC_FMR_CLOE;
    }
    else
    {
      if (ul_clk < CHIP_FREQ_FWS_2)
  4023c4:	4b15      	ldr	r3, [pc, #84]	; (40241c <system_init_flash+0x64>)
  4023c6:	4298      	cmp	r0, r3
  4023c8:	d916      	bls.n	4023f8 <system_init_flash+0x40>
      {
        EFC->EEFC_FMR = EEFC_FMR_FWS(2)|EEFC_FMR_CLOE;
      }
      else
      {
        if ( ul_clk < CHIP_FREQ_FWS_3 )
  4023ca:	4b15      	ldr	r3, [pc, #84]	; (402420 <system_init_flash+0x68>)
  4023cc:	4298      	cmp	r0, r3
  4023ce:	d917      	bls.n	402400 <system_init_flash+0x48>
        {
          EFC->EEFC_FMR = EEFC_FMR_FWS(3)|EEFC_FMR_CLOE;
        }
        else
        {
          if ( ul_clk < CHIP_FREQ_FWS_4 )
  4023d0:	4b14      	ldr	r3, [pc, #80]	; (402424 <system_init_flash+0x6c>)
  4023d2:	4298      	cmp	r0, r3
  4023d4:	d918      	bls.n	402408 <system_init_flash+0x50>
          {
            EFC->EEFC_FMR = EEFC_FMR_FWS(4)|EEFC_FMR_CLOE;
          }
          else
          {
            if ( ul_clk < CHIP_FREQ_FWS_5 )
  4023d6:	4b14      	ldr	r3, [pc, #80]	; (402428 <system_init_flash+0x70>)
  4023d8:	4298      	cmp	r0, r3
            {
              EFC->EEFC_FMR = EEFC_FMR_FWS(5)|EEFC_FMR_CLOE;
  4023da:	bf94      	ite	ls
  4023dc:	4a13      	ldrls	r2, [pc, #76]	; (40242c <system_init_flash+0x74>)
            }
            else
            {
              EFC->EEFC_FMR = EEFC_FMR_FWS(6)|EEFC_FMR_CLOE;
  4023de:	4a14      	ldrhi	r2, [pc, #80]	; (402430 <system_init_flash+0x78>)
  4023e0:	4b14      	ldr	r3, [pc, #80]	; (402434 <system_init_flash+0x7c>)
  4023e2:	601a      	str	r2, [r3, #0]
  4023e4:	4770      	bx	lr
    EFC->EEFC_FMR = EEFC_FMR_FWS(0)|EEFC_FMR_CLOE;
  4023e6:	f04f 6280 	mov.w	r2, #67108864	; 0x4000000
  4023ea:	4b12      	ldr	r3, [pc, #72]	; (402434 <system_init_flash+0x7c>)
  4023ec:	601a      	str	r2, [r3, #0]
  4023ee:	4770      	bx	lr
      EFC->EEFC_FMR = EEFC_FMR_FWS(1)|EEFC_FMR_CLOE;
  4023f0:	4a11      	ldr	r2, [pc, #68]	; (402438 <system_init_flash+0x80>)
  4023f2:	4b10      	ldr	r3, [pc, #64]	; (402434 <system_init_flash+0x7c>)
  4023f4:	601a      	str	r2, [r3, #0]
  4023f6:	4770      	bx	lr
        EFC->EEFC_FMR = EEFC_FMR_FWS(2)|EEFC_FMR_CLOE;
  4023f8:	4a10      	ldr	r2, [pc, #64]	; (40243c <system_init_flash+0x84>)
  4023fa:	4b0e      	ldr	r3, [pc, #56]	; (402434 <system_init_flash+0x7c>)
  4023fc:	601a      	str	r2, [r3, #0]
  4023fe:	4770      	bx	lr
          EFC->EEFC_FMR = EEFC_FMR_FWS(3)|EEFC_FMR_CLOE;
  402400:	4a0f      	ldr	r2, [pc, #60]	; (402440 <system_init_flash+0x88>)
  402402:	4b0c      	ldr	r3, [pc, #48]	; (402434 <system_init_flash+0x7c>)
  402404:	601a      	str	r2, [r3, #0]
  402406:	4770      	bx	lr
            EFC->EEFC_FMR = EEFC_FMR_FWS(4)|EEFC_FMR_CLOE;
  402408:	f04f 2204 	mov.w	r2, #67109888	; 0x4000400
  40240c:	4b09      	ldr	r3, [pc, #36]	; (402434 <system_init_flash+0x7c>)
  40240e:	601a      	str	r2, [r3, #0]
  402410:	4770      	bx	lr
  402412:	bf00      	nop
  402414:	015ef3bf 	.word	0x015ef3bf
  402418:	02bde77f 	.word	0x02bde77f
  40241c:	041cdb3f 	.word	0x041cdb3f
  402420:	057bceff 	.word	0x057bceff
  402424:	06dac2bf 	.word	0x06dac2bf
  402428:	0839b67f 	.word	0x0839b67f
  40242c:	04000500 	.word	0x04000500
  402430:	04000600 	.word	0x04000600
  402434:	400e0c00 	.word	0x400e0c00
  402438:	04000100 	.word	0x04000100
  40243c:	04000200 	.word	0x04000200
  402440:	04000300 	.word	0x04000300

00402444 <_sbrk>:
{
	static unsigned char *heap = NULL;
	unsigned char *prev_heap;
	int ramend = (int)&__ram_end__;

	if (heap == NULL) {
  402444:	4b0a      	ldr	r3, [pc, #40]	; (402470 <_sbrk+0x2c>)
  402446:	681b      	ldr	r3, [r3, #0]
  402448:	b153      	cbz	r3, 402460 <_sbrk+0x1c>
		heap = (unsigned char *)&_end;
	}
	prev_heap = heap;
  40244a:	4b09      	ldr	r3, [pc, #36]	; (402470 <_sbrk+0x2c>)
  40244c:	681b      	ldr	r3, [r3, #0]

	if (((int)prev_heap + incr) > ramend) {
  40244e:	181a      	adds	r2, r3, r0
  402450:	4908      	ldr	r1, [pc, #32]	; (402474 <_sbrk+0x30>)
  402452:	4291      	cmp	r1, r2
  402454:	db08      	blt.n	402468 <_sbrk+0x24>
		return (caddr_t) -1;	
	}

	heap += incr;
  402456:	4610      	mov	r0, r2
  402458:	4a05      	ldr	r2, [pc, #20]	; (402470 <_sbrk+0x2c>)
  40245a:	6010      	str	r0, [r2, #0]

	return (caddr_t) prev_heap;
  40245c:	4618      	mov	r0, r3
  40245e:	4770      	bx	lr
		heap = (unsigned char *)&_end;
  402460:	4a05      	ldr	r2, [pc, #20]	; (402478 <_sbrk+0x34>)
  402462:	4b03      	ldr	r3, [pc, #12]	; (402470 <_sbrk+0x2c>)
  402464:	601a      	str	r2, [r3, #0]
  402466:	e7f0      	b.n	40244a <_sbrk+0x6>
		return (caddr_t) -1;	
  402468:	f04f 30ff 	mov.w	r0, #4294967295
}
  40246c:	4770      	bx	lr
  40246e:	bf00      	nop
  402470:	20400a90 	.word	0x20400a90
  402474:	2045fffc 	.word	0x2045fffc
  402478:	2040e750 	.word	0x2040e750

0040247c <_close>:
}

extern int _close(int file)
{
	return -1;
}
  40247c:	f04f 30ff 	mov.w	r0, #4294967295
  402480:	4770      	bx	lr

00402482 <_fstat>:

extern int _fstat(int file, struct stat *st)
{
	st->st_mode = S_IFCHR;
  402482:	f44f 5300 	mov.w	r3, #8192	; 0x2000
  402486:	604b      	str	r3, [r1, #4]

	return 0;
}
  402488:	2000      	movs	r0, #0
  40248a:	4770      	bx	lr

0040248c <_isatty>:

extern int _isatty(int file)
{
	return 1;
}
  40248c:	2001      	movs	r0, #1
  40248e:	4770      	bx	lr

00402490 <_lseek>:

extern int _lseek(int file, int ptr, int dir)
{
	return 0;
}
  402490:	2000      	movs	r0, #0
  402492:	4770      	bx	lr

00402494 <disk_initialize>:
	/* USB disk with multiple LUNs */
	if (drv > LUN_ID_USB + Lun_usb_get_lun()) {
		return STA_NOINIT;
	}
#else
	if (drv > MAX_LUN) {
  402494:	2801      	cmp	r0, #1
  402496:	d901      	bls.n	40249c <disk_initialize+0x8>
		/* At least one of the LUN should be defined */
		return STA_NOINIT;
  402498:	2001      	movs	r0, #1
  40249a:	4770      	bx	lr
{
  40249c:	b510      	push	{r4, lr}
  40249e:	4604      	mov	r4, r0
	}
#endif
	/* Check LUN ready (USB disk report CTRL_BUSY then CTRL_GOOD) */
	for (i = 0; i < 2; i ++) {
		mem_status = mem_test_unit_ready(drv);
  4024a0:	4b0a      	ldr	r3, [pc, #40]	; (4024cc <disk_initialize+0x38>)
  4024a2:	4798      	blx	r3
		if (CTRL_BUSY != mem_status) {
  4024a4:	2803      	cmp	r0, #3
  4024a6:	d106      	bne.n	4024b6 <disk_initialize+0x22>
		mem_status = mem_test_unit_ready(drv);
  4024a8:	4620      	mov	r0, r4
  4024aa:	4b08      	ldr	r3, [pc, #32]	; (4024cc <disk_initialize+0x38>)
  4024ac:	4798      	blx	r3
		if (CTRL_BUSY != mem_status) {
  4024ae:	2803      	cmp	r0, #3
  4024b0:	d101      	bne.n	4024b6 <disk_initialize+0x22>
			break;
		}
	}
	if (mem_status != CTRL_GOOD) {
		return STA_NOINIT;
  4024b2:	2001      	movs	r0, #1
  4024b4:	bd10      	pop	{r4, pc}
	if (mem_status != CTRL_GOOD) {
  4024b6:	b938      	cbnz	r0, 4024c8 <disk_initialize+0x34>
	}

	/* Check Write Protection Status */
	if (mem_wr_protect(drv)) {
  4024b8:	4620      	mov	r0, r4
  4024ba:	4b05      	ldr	r3, [pc, #20]	; (4024d0 <disk_initialize+0x3c>)
  4024bc:	4798      	blx	r3
  4024be:	2800      	cmp	r0, #0
		return STA_PROTECT;
	}

	/* The memory should already be initialized */
	return 0;
  4024c0:	bf14      	ite	ne
  4024c2:	2004      	movne	r0, #4
  4024c4:	2000      	moveq	r0, #0
  4024c6:	bd10      	pop	{r4, pc}
		return STA_NOINIT;
  4024c8:	2001      	movs	r0, #1
}
  4024ca:	bd10      	pop	{r4, pc}
  4024cc:	004010b1 	.word	0x004010b1
  4024d0:	004010e1 	.word	0x004010e1

004024d4 <disk_status>:
 *
 * \return 0 or disk status in combination of DSTATUS bits
 *         (STA_NOINIT, STA_NODISK, STA_PROTECT).
 */
DSTATUS disk_status(BYTE drv)
{
  4024d4:	b508      	push	{r3, lr}
	switch (mem_test_unit_ready(drv)) {
  4024d6:	4b05      	ldr	r3, [pc, #20]	; (4024ec <disk_status+0x18>)
  4024d8:	4798      	blx	r3
  4024da:	b120      	cbz	r0, 4024e6 <disk_status+0x12>
	case CTRL_GOOD:
		return 0;
	case CTRL_NO_PRESENT:
		return STA_NOINIT | STA_NODISK;
	default:
		return STA_NOINIT;
  4024dc:	2802      	cmp	r0, #2
  4024de:	bf0c      	ite	eq
  4024e0:	2003      	moveq	r0, #3
  4024e2:	2001      	movne	r0, #1
  4024e4:	bd08      	pop	{r3, pc}
		return 0;
  4024e6:	2000      	movs	r0, #0
	}
}
  4024e8:	bd08      	pop	{r3, pc}
  4024ea:	bf00      	nop
  4024ec:	004010b1 	.word	0x004010b1

004024f0 <disk_read>:
 * \param count Number of sectors to read (1..255).
 *
 * \return RES_OK for success, otherwise DRESULT error code.
 */
DRESULT disk_read(BYTE drv, BYTE *buff, DWORD sector, BYTE count)
{
  4024f0:	e92d 4ff0 	stmdb	sp!, {r4, r5, r6, r7, r8, r9, sl, fp, lr}
  4024f4:	b083      	sub	sp, #12
  4024f6:	4680      	mov	r8, r0
  4024f8:	460d      	mov	r5, r1
  4024fa:	4614      	mov	r4, r2
  4024fc:	461f      	mov	r7, r3
#if ACCESS_MEM_TO_RAM
	uint8_t uc_sector_size = mem_sector_size(drv);
  4024fe:	4b15      	ldr	r3, [pc, #84]	; (402554 <disk_read+0x64>)
  402500:	4798      	blx	r3
	uint32_t i;
	uint32_t ul_last_sector_num;

	if (uc_sector_size == 0) {
  402502:	b918      	cbnz	r0, 40250c <disk_read+0x1c>
		return RES_ERROR;
  402504:	2001      	movs	r0, #1
	return RES_OK;

#else
	return RES_ERROR;
#endif
}
  402506:	b003      	add	sp, #12
  402508:	e8bd 8ff0 	ldmia.w	sp!, {r4, r5, r6, r7, r8, r9, sl, fp, pc}
  40250c:	4606      	mov	r6, r0
	mem_read_capacity(drv, &ul_last_sector_num);
  40250e:	a901      	add	r1, sp, #4
  402510:	4640      	mov	r0, r8
  402512:	4b11      	ldr	r3, [pc, #68]	; (402558 <disk_read+0x68>)
  402514:	4798      	blx	r3
			(ul_last_sector_num + 1) * uc_sector_size) {
  402516:	46b1      	mov	r9, r6
	if ((sector + count * uc_sector_size) >
  402518:	fb06 4207 	mla	r2, r6, r7, r4
			(ul_last_sector_num + 1) * uc_sector_size) {
  40251c:	9b01      	ldr	r3, [sp, #4]
  40251e:	fb03 6306 	mla	r3, r3, r6, r6
	if ((sector + count * uc_sector_size) >
  402522:	429a      	cmp	r2, r3
  402524:	d901      	bls.n	40252a <disk_read+0x3a>
		return RES_PARERR;
  402526:	2004      	movs	r0, #4
  402528:	e7ed      	b.n	402506 <disk_read+0x16>
	for (i = 0; i < count; i++) {
  40252a:	46ba      	mov	sl, r7
  40252c:	b177      	cbz	r7, 40254c <disk_read+0x5c>
  40252e:	0276      	lsls	r6, r6, #9
  402530:	2700      	movs	r7, #0
		if (memory_2_ram(drv, sector + uc_sector_size * i,
  402532:	f8df b028 	ldr.w	fp, [pc, #40]	; 40255c <disk_read+0x6c>
  402536:	462a      	mov	r2, r5
  402538:	4621      	mov	r1, r4
  40253a:	4640      	mov	r0, r8
  40253c:	47d8      	blx	fp
  40253e:	b938      	cbnz	r0, 402550 <disk_read+0x60>
	for (i = 0; i < count; i++) {
  402540:	3701      	adds	r7, #1
  402542:	444c      	add	r4, r9
  402544:	4435      	add	r5, r6
  402546:	4557      	cmp	r7, sl
  402548:	d1f5      	bne.n	402536 <disk_read+0x46>
  40254a:	e7dc      	b.n	402506 <disk_read+0x16>
	return RES_OK;
  40254c:	2000      	movs	r0, #0
  40254e:	e7da      	b.n	402506 <disk_read+0x16>
			return RES_ERROR;
  402550:	2001      	movs	r0, #1
  402552:	e7d8      	b.n	402506 <disk_read+0x16>
  402554:	004010d9 	.word	0x004010d9
  402558:	004010c5 	.word	0x004010c5
  40255c:	004010f5 	.word	0x004010f5

00402560 <disk_write>:
 *
 * \return RES_OK for success, otherwise DRESULT error code.
 */
#if _READONLY == 0
DRESULT disk_write(BYTE drv, BYTE const *buff, DWORD sector, BYTE count)
{
  402560:	e92d 4ff0 	stmdb	sp!, {r4, r5, r6, r7, r8, r9, sl, fp, lr}
  402564:	b083      	sub	sp, #12
  402566:	4680      	mov	r8, r0
  402568:	460d      	mov	r5, r1
  40256a:	4614      	mov	r4, r2
  40256c:	461f      	mov	r7, r3
#if ACCESS_MEM_TO_RAM
	uint8_t uc_sector_size = mem_sector_size(drv);
  40256e:	4b15      	ldr	r3, [pc, #84]	; (4025c4 <disk_write+0x64>)
  402570:	4798      	blx	r3
	uint32_t i;
	uint32_t ul_last_sector_num;

	if (uc_sector_size == 0) {
  402572:	b918      	cbnz	r0, 40257c <disk_write+0x1c>
		return RES_ERROR;
  402574:	2001      	movs	r0, #1
	return RES_OK;

#else
	return RES_ERROR;
#endif
}
  402576:	b003      	add	sp, #12
  402578:	e8bd 8ff0 	ldmia.w	sp!, {r4, r5, r6, r7, r8, r9, sl, fp, pc}
  40257c:	4606      	mov	r6, r0
	mem_read_capacity(drv, &ul_last_sector_num);
  40257e:	a901      	add	r1, sp, #4
  402580:	4640      	mov	r0, r8
  402582:	4b11      	ldr	r3, [pc, #68]	; (4025c8 <disk_write+0x68>)
  402584:	4798      	blx	r3
			(ul_last_sector_num + 1) * uc_sector_size) {
  402586:	46b1      	mov	r9, r6
	if ((sector + count * uc_sector_size) >
  402588:	fb06 4207 	mla	r2, r6, r7, r4
			(ul_last_sector_num + 1) * uc_sector_size) {
  40258c:	9b01      	ldr	r3, [sp, #4]
  40258e:	fb03 6306 	mla	r3, r3, r6, r6
	if ((sector + count * uc_sector_size) >
  402592:	429a      	cmp	r2, r3
  402594:	d901      	bls.n	40259a <disk_write+0x3a>
		return RES_PARERR;
  402596:	2004      	movs	r0, #4
  402598:	e7ed      	b.n	402576 <disk_write+0x16>
	for (i = 0; i < count; i++) {
  40259a:	46ba      	mov	sl, r7
  40259c:	b177      	cbz	r7, 4025bc <disk_write+0x5c>
  40259e:	0276      	lsls	r6, r6, #9
  4025a0:	2700      	movs	r7, #0
		if (ram_2_memory(drv, sector + uc_sector_size * i,
  4025a2:	f8df b028 	ldr.w	fp, [pc, #40]	; 4025cc <disk_write+0x6c>
  4025a6:	462a      	mov	r2, r5
  4025a8:	4621      	mov	r1, r4
  4025aa:	4640      	mov	r0, r8
  4025ac:	47d8      	blx	fp
  4025ae:	b938      	cbnz	r0, 4025c0 <disk_write+0x60>
	for (i = 0; i < count; i++) {
  4025b0:	3701      	adds	r7, #1
  4025b2:	444c      	add	r4, r9
  4025b4:	4435      	add	r5, r6
  4025b6:	4557      	cmp	r7, sl
  4025b8:	d1f5      	bne.n	4025a6 <disk_write+0x46>
  4025ba:	e7dc      	b.n	402576 <disk_write+0x16>
	return RES_OK;
  4025bc:	2000      	movs	r0, #0
  4025be:	e7da      	b.n	402576 <disk_write+0x16>
			return RES_ERROR;
  4025c0:	2001      	movs	r0, #1
  4025c2:	e7d8      	b.n	402576 <disk_write+0x16>
  4025c4:	004010d9 	.word	0x004010d9
  4025c8:	004010c5 	.word	0x004010c5
  4025cc:	0040110d 	.word	0x0040110d

004025d0 <disk_ioctl>:
 * \param buff Buffer to send/receive control data.
 *
 * \return RES_OK for success, otherwise DRESULT error code.
 */
DRESULT disk_ioctl(BYTE drv, BYTE ctrl, void *buff)
{
  4025d0:	b510      	push	{r4, lr}
  4025d2:	b082      	sub	sp, #8
  4025d4:	4614      	mov	r4, r2
	DRESULT res = RES_PARERR;

	switch (ctrl) {
  4025d6:	2903      	cmp	r1, #3
  4025d8:	d825      	bhi.n	402626 <disk_ioctl+0x56>
  4025da:	e8df f001 	tbb	[pc, r1]
  4025de:	071d      	.short	0x071d
  4025e0:	020f      	.short	0x020f
	case GET_BLOCK_SIZE:
		*(DWORD *)buff = 1;
  4025e2:	2301      	movs	r3, #1
  4025e4:	6013      	str	r3, [r2, #0]
		res = RES_OK;
  4025e6:	2000      	movs	r0, #0
	default:
		res = RES_PARERR;
	}

	return res;
}
  4025e8:	b002      	add	sp, #8
  4025ea:	bd10      	pop	{r4, pc}
		mem_read_capacity(drv, &ul_last_sector_num);
  4025ec:	a901      	add	r1, sp, #4
  4025ee:	4b11      	ldr	r3, [pc, #68]	; (402634 <disk_ioctl+0x64>)
  4025f0:	4798      	blx	r3
		*(DWORD *)buff = ul_last_sector_num + 1;
  4025f2:	9b01      	ldr	r3, [sp, #4]
  4025f4:	3301      	adds	r3, #1
  4025f6:	6023      	str	r3, [r4, #0]
		res = RES_OK;
  4025f8:	2000      	movs	r0, #0
	break;
  4025fa:	e7f5      	b.n	4025e8 <disk_ioctl+0x18>
		uint8_t uc_sector_size = mem_sector_size(drv);
  4025fc:	4b0e      	ldr	r3, [pc, #56]	; (402638 <disk_ioctl+0x68>)
  4025fe:	4798      	blx	r3
		if ((uc_sector_size != SECTOR_SIZE_512) &&
  402600:	2808      	cmp	r0, #8
  402602:	d812      	bhi.n	40262a <disk_ioctl+0x5a>
  402604:	f44f 738b 	mov.w	r3, #278	; 0x116
  402608:	fa23 f000 	lsr.w	r0, r3, r0
				(uc_sector_size != SECTOR_SIZE_2048) &&
  40260c:	f010 0f01 	tst.w	r0, #1
  402610:	d00d      	beq.n	40262e <disk_ioctl+0x5e>
		*(U8 *)buff = uc_sector_size * SECTOR_SIZE_DEFAULT;
  402612:	2000      	movs	r0, #0
  402614:	7020      	strb	r0, [r4, #0]
	break;
  402616:	e7e7      	b.n	4025e8 <disk_ioctl+0x18>
		if (mem_test_unit_ready(drv) == CTRL_GOOD) {
  402618:	4b08      	ldr	r3, [pc, #32]	; (40263c <disk_ioctl+0x6c>)
  40261a:	4798      	blx	r3
  40261c:	2800      	cmp	r0, #0
			res = RES_NOTRDY;
  40261e:	bf0c      	ite	eq
  402620:	2000      	moveq	r0, #0
  402622:	2003      	movne	r0, #3
  402624:	e7e0      	b.n	4025e8 <disk_ioctl+0x18>
		res = RES_PARERR;
  402626:	2004      	movs	r0, #4
  402628:	e7de      	b.n	4025e8 <disk_ioctl+0x18>
			return RES_ERROR;
  40262a:	2001      	movs	r0, #1
  40262c:	e7dc      	b.n	4025e8 <disk_ioctl+0x18>
  40262e:	2001      	movs	r0, #1
  402630:	e7da      	b.n	4025e8 <disk_ioctl+0x18>
  402632:	bf00      	nop
  402634:	004010c5 	.word	0x004010c5
  402638:	004010d9 	.word	0x004010d9
  40263c:	004010b1 	.word	0x004010b1

00402640 <get_fattime>:
 * bit4:0    Second (0..29)
 *
 * \return Current time.
 */
uint32_t get_fattime(void)
{
  402640:	b530      	push	{r4, r5, lr}
  402642:	b08b      	sub	sp, #44	; 0x2c
	uint32_t ul_time;
	uint32_t ul_hour, ul_minute, ul_second;
	uint32_t ul_year, ul_month, ul_day, ul_week;

	/* Retrieve date and time */
	rtc_get_time(RTC, &ul_hour, &ul_minute, &ul_second);
  402644:	4c11      	ldr	r4, [pc, #68]	; (40268c <get_fattime+0x4c>)
  402646:	ab07      	add	r3, sp, #28
  402648:	aa08      	add	r2, sp, #32
  40264a:	a909      	add	r1, sp, #36	; 0x24
  40264c:	4620      	mov	r0, r4
  40264e:	4d10      	ldr	r5, [pc, #64]	; (402690 <get_fattime+0x50>)
  402650:	47a8      	blx	r5
	rtc_get_date(RTC, &ul_year, &ul_month, &ul_day, &ul_week);
  402652:	ab03      	add	r3, sp, #12
  402654:	9300      	str	r3, [sp, #0]
  402656:	ab04      	add	r3, sp, #16
  402658:	aa05      	add	r2, sp, #20
  40265a:	a906      	add	r1, sp, #24
  40265c:	4620      	mov	r0, r4
  40265e:	4c0d      	ldr	r4, [pc, #52]	; (402694 <get_fattime+0x54>)
  402660:	47a0      	blx	r4

	ul_time = ((ul_year - 1980) << 25)
			| (ul_month << 21)
			| (ul_day << 16)
  402662:	9b04      	ldr	r3, [sp, #16]
  402664:	041b      	lsls	r3, r3, #16
	ul_time = ((ul_year - 1980) << 25)
  402666:	9805      	ldr	r0, [sp, #20]
  402668:	ea43 5340 	orr.w	r3, r3, r0, lsl #21
  40266c:	9809      	ldr	r0, [sp, #36]	; 0x24
  40266e:	ea43 23c0 	orr.w	r3, r3, r0, lsl #11
  402672:	9808      	ldr	r0, [sp, #32]
  402674:	ea43 1340 	orr.w	r3, r3, r0, lsl #5
  402678:	9807      	ldr	r0, [sp, #28]
  40267a:	ea43 0350 	orr.w	r3, r3, r0, lsr #1
  40267e:	9806      	ldr	r0, [sp, #24]
  402680:	f2a0 70bc 	subw	r0, r0, #1980	; 0x7bc
			| (ul_hour << 11)
			| (ul_minute << 5)
			| ((ul_second >> 1) << 0);

	return ul_time;
}
  402684:	ea43 6040 	orr.w	r0, r3, r0, lsl #25
  402688:	b00b      	add	sp, #44	; 0x2c
  40268a:	bd30      	pop	{r4, r5, pc}
  40268c:	400e1860 	.word	0x400e1860
  402690:	004020d9 	.word	0x004020d9
  402694:	00402133 	.word	0x00402133

00402698 <mem_cpy>:
		*(int*)d = *(int*)s;
		d += sizeof(int); s += sizeof(int);
		cnt -= sizeof(int);
	}
#endif
	while (cnt--)
  402698:	b13a      	cbz	r2, 4026aa <mem_cpy+0x12>
  40269a:	3801      	subs	r0, #1
  40269c:	188a      	adds	r2, r1, r2
		*d++ = *s++;
  40269e:	f811 3b01 	ldrb.w	r3, [r1], #1
  4026a2:	f800 3f01 	strb.w	r3, [r0, #1]!
	while (cnt--)
  4026a6:	4291      	cmp	r1, r2
  4026a8:	d1f9      	bne.n	40269e <mem_cpy+0x6>
  4026aa:	4770      	bx	lr

004026ac <mem_set>:
/* Fill memory */
static
void mem_set (void* dst, int val, UINT cnt) {
	BYTE *d = (BYTE*)dst;

	while (cnt--)
  4026ac:	b122      	cbz	r2, 4026b8 <mem_set+0xc>
  4026ae:	1882      	adds	r2, r0, r2
		*d++ = (BYTE)val;
  4026b0:	f800 1b01 	strb.w	r1, [r0], #1
	while (cnt--)
  4026b4:	4282      	cmp	r2, r0
  4026b6:	d1fb      	bne.n	4026b0 <mem_set+0x4>
  4026b8:	4770      	bx	lr

004026ba <clust2sect>:
static DWORD clust2sect (	/* !=0: Sector number, 0: Failed - invalid cluster# */
	FATFS *fs,		/* File system object */
	DWORD clst		/* Cluster# to be converted */
)
{
	clst -= 2;
  4026ba:	3902      	subs	r1, #2
	if (clst >= (fs->n_fatent - 2)) return 0;		/* Invalid cluster# */
  4026bc:	6983      	ldr	r3, [r0, #24]
  4026be:	3b02      	subs	r3, #2
  4026c0:	4299      	cmp	r1, r3
  4026c2:	d204      	bcs.n	4026ce <clust2sect+0x14>
	return clst * fs->csize + fs->database;
  4026c4:	7883      	ldrb	r3, [r0, #2]
  4026c6:	6a80      	ldr	r0, [r0, #40]	; 0x28
  4026c8:	fb01 0003 	mla	r0, r1, r3, r0
  4026cc:	4770      	bx	lr
	if (clst >= (fs->n_fatent - 2)) return 0;		/* Invalid cluster# */
  4026ce:	2000      	movs	r0, #0
}
  4026d0:	4770      	bx	lr

004026d2 <sum_sfn>:
#if _USE_LFN
static
BYTE sum_sfn (
	const BYTE *dir		/* Ptr to directory entry */
)
{
  4026d2:	4602      	mov	r2, r0
  4026d4:	f100 010b 	add.w	r1, r0, #11
	BYTE sum = 0;
  4026d8:	2000      	movs	r0, #0
	UINT n = 11;

	do sum = (sum >> 1) + (sum << 7) + *dir++; while (--n);
  4026da:	01c3      	lsls	r3, r0, #7
  4026dc:	ea43 0350 	orr.w	r3, r3, r0, lsr #1
  4026e0:	f812 0b01 	ldrb.w	r0, [r2], #1
  4026e4:	fa50 f383 	uxtab	r3, r0, r3
  4026e8:	b2d8      	uxtb	r0, r3
  4026ea:	428a      	cmp	r2, r1
  4026ec:	d1f5      	bne.n	4026da <sum_sfn+0x8>
	return sum;
}
  4026ee:	4770      	bx	lr

004026f0 <validate>:
FRESULT validate (	/* FR_OK(0): The object is valid, !=0: Invalid */
	FATFS *fs,		/* Pointer to the file system object */
	WORD id			/* Member id of the target object to be checked */
)
{
	if (!fs || !fs->fs_type || fs->id != id)
  4026f0:	b198      	cbz	r0, 40271a <validate+0x2a>
{
  4026f2:	b508      	push	{r3, lr}
	if (!fs || !fs->fs_type || fs->id != id)
  4026f4:	7802      	ldrb	r2, [r0, #0]
  4026f6:	b90a      	cbnz	r2, 4026fc <validate+0xc>
		return FR_INVALID_OBJECT;
  4026f8:	2009      	movs	r0, #9
  4026fa:	bd08      	pop	{r3, pc}
	if (!fs || !fs->fs_type || fs->id != id)
  4026fc:	88c2      	ldrh	r2, [r0, #6]
  4026fe:	428a      	cmp	r2, r1
  402700:	d001      	beq.n	402706 <validate+0x16>
		return FR_INVALID_OBJECT;
  402702:	2009      	movs	r0, #9

	if (disk_status(fs->drv) & STA_NOINIT)
		return FR_NOT_READY;

	return FR_OK;
}
  402704:	bd08      	pop	{r3, pc}
	if (disk_status(fs->drv) & STA_NOINIT)
  402706:	7840      	ldrb	r0, [r0, #1]
  402708:	4b05      	ldr	r3, [pc, #20]	; (402720 <validate+0x30>)
  40270a:	4798      	blx	r3
  40270c:	f000 0001 	and.w	r0, r0, #1
	return FR_OK;
  402710:	2800      	cmp	r0, #0
  402712:	bf14      	ite	ne
  402714:	2003      	movne	r0, #3
  402716:	2000      	moveq	r0, #0
  402718:	bd08      	pop	{r3, pc}
		return FR_INVALID_OBJECT;
  40271a:	2009      	movs	r0, #9
  40271c:	4770      	bx	lr
  40271e:	bf00      	nop
  402720:	004024d5 	.word	0x004024d5

00402724 <check_fs>:
{
  402724:	b538      	push	{r3, r4, r5, lr}
  402726:	4604      	mov	r4, r0
	if (disk_read(fs->drv, fs->win, sect, 1) != RES_OK)	/* Load boot record */
  402728:	2301      	movs	r3, #1
  40272a:	460a      	mov	r2, r1
  40272c:	f100 0130 	add.w	r1, r0, #48	; 0x30
  402730:	7840      	ldrb	r0, [r0, #1]
  402732:	4d1d      	ldr	r5, [pc, #116]	; (4027a8 <check_fs+0x84>)
  402734:	47a8      	blx	r5
  402736:	b108      	cbz	r0, 40273c <check_fs+0x18>
		return 3;
  402738:	2003      	movs	r0, #3
  40273a:	bd38      	pop	{r3, r4, r5, pc}
	if (LD_WORD(&fs->win[BS_55AA]) != 0xAA55)		/* Check record signature (always placed at offset 510 even if the sector size is >512) */
  40273c:	f894 222f 	ldrb.w	r2, [r4, #559]	; 0x22f
  402740:	f894 322e 	ldrb.w	r3, [r4, #558]	; 0x22e
  402744:	ea43 2302 	orr.w	r3, r3, r2, lsl #8
  402748:	b21b      	sxth	r3, r3
  40274a:	4a18      	ldr	r2, [pc, #96]	; (4027ac <check_fs+0x88>)
  40274c:	4293      	cmp	r3, r2
  40274e:	d001      	beq.n	402754 <check_fs+0x30>
		return 2;
  402750:	2002      	movs	r0, #2
  402752:	bd38      	pop	{r3, r4, r5, pc}
	if ((LD_DWORD(&fs->win[BS_FilSysType]) & 0xFFFFFF) == 0x544146)	/* Check "FAT" string */
  402754:	f894 2069 	ldrb.w	r2, [r4, #105]	; 0x69
  402758:	f894 3068 	ldrb.w	r3, [r4, #104]	; 0x68
  40275c:	041b      	lsls	r3, r3, #16
  40275e:	ea43 6302 	orr.w	r3, r3, r2, lsl #24
  402762:	f894 2066 	ldrb.w	r2, [r4, #102]	; 0x66
  402766:	4313      	orrs	r3, r2
  402768:	f894 2067 	ldrb.w	r2, [r4, #103]	; 0x67
  40276c:	ea43 2302 	orr.w	r3, r3, r2, lsl #8
  402770:	f023 437f 	bic.w	r3, r3, #4278190080	; 0xff000000
  402774:	4a0e      	ldr	r2, [pc, #56]	; (4027b0 <check_fs+0x8c>)
  402776:	4293      	cmp	r3, r2
  402778:	d013      	beq.n	4027a2 <check_fs+0x7e>
	if ((LD_DWORD(&fs->win[BS_FilSysType32]) & 0xFFFFFF) == 0x544146)
  40277a:	f894 3085 	ldrb.w	r3, [r4, #133]	; 0x85
  40277e:	f894 0084 	ldrb.w	r0, [r4, #132]	; 0x84
  402782:	0400      	lsls	r0, r0, #16
  402784:	ea40 6003 	orr.w	r0, r0, r3, lsl #24
  402788:	f894 3082 	ldrb.w	r3, [r4, #130]	; 0x82
  40278c:	4318      	orrs	r0, r3
  40278e:	f894 3083 	ldrb.w	r3, [r4, #131]	; 0x83
  402792:	ea40 2003 	orr.w	r0, r0, r3, lsl #8
  402796:	f020 407f 	bic.w	r0, r0, #4278190080	; 0xff000000
		return 3;
  40279a:	1a80      	subs	r0, r0, r2
  40279c:	bf18      	it	ne
  40279e:	2001      	movne	r0, #1
  4027a0:	bd38      	pop	{r3, r4, r5, pc}
		return 0;
  4027a2:	2000      	movs	r0, #0
}
  4027a4:	bd38      	pop	{r3, r4, r5, pc}
  4027a6:	bf00      	nop
  4027a8:	004024f1 	.word	0x004024f1
  4027ac:	ffffaa55 	.word	0xffffaa55
  4027b0:	00544146 	.word	0x00544146

004027b4 <chk_mounted>:
{
  4027b4:	b5f8      	push	{r3, r4, r5, r6, r7, lr}
	const TCHAR *p = *path;
  4027b6:	6803      	ldr	r3, [r0, #0]
	vol = p[0] - '0';					/* Is there a drive number? */
  4027b8:	781c      	ldrb	r4, [r3, #0]
  4027ba:	3c30      	subs	r4, #48	; 0x30
	if (vol <= 9 && p[1] == ':') {		/* Found a drive number, get and strip it */
  4027bc:	2c09      	cmp	r4, #9
  4027be:	d80a      	bhi.n	4027d6 <chk_mounted+0x22>
  4027c0:	785d      	ldrb	r5, [r3, #1]
  4027c2:	2d3a      	cmp	r5, #58	; 0x3a
  4027c4:	d001      	beq.n	4027ca <chk_mounted+0x16>
  4027c6:	2400      	movs	r4, #0
  4027c8:	e006      	b.n	4027d8 <chk_mounted+0x24>
		p += 2; *path = p;				/* Return pointer to the path name */
  4027ca:	3302      	adds	r3, #2
  4027cc:	6003      	str	r3, [r0, #0]
	if (vol >= _VOLUMES) 				/* Is the drive number valid? */
  4027ce:	2c07      	cmp	r4, #7
  4027d0:	d902      	bls.n	4027d8 <chk_mounted+0x24>
		return FR_INVALID_DRIVE;
  4027d2:	200b      	movs	r0, #11
  4027d4:	bdf8      	pop	{r3, r4, r5, r6, r7, pc}
  4027d6:	2400      	movs	r4, #0
	*rfs = fs = FatFs[vol];				/* Return pointer to the corresponding file system object */
  4027d8:	4bae      	ldr	r3, [pc, #696]	; (402a94 <chk_mounted+0x2e0>)
  4027da:	f853 5024 	ldr.w	r5, [r3, r4, lsl #2]
  4027de:	600d      	str	r5, [r1, #0]
	if (!fs) return FR_NOT_ENABLED;		/* Is the file system object available? */
  4027e0:	2d00      	cmp	r5, #0
  4027e2:	f000 813e 	beq.w	402a62 <chk_mounted+0x2ae>
  4027e6:	4616      	mov	r6, r2
	if (fs->fs_type) {					/* If the logical drive has been mounted */
  4027e8:	782b      	ldrb	r3, [r5, #0]
  4027ea:	b17b      	cbz	r3, 40280c <chk_mounted+0x58>
		stat = disk_status(fs->drv);
  4027ec:	7868      	ldrb	r0, [r5, #1]
  4027ee:	4baa      	ldr	r3, [pc, #680]	; (402a98 <chk_mounted+0x2e4>)
  4027f0:	4798      	blx	r3
		if (!(stat & STA_NOINIT)) {		/* and the physical drive is kept initialized (has not been changed), */
  4027f2:	f010 0f01 	tst.w	r0, #1
  4027f6:	d109      	bne.n	40280c <chk_mounted+0x58>
			if (!_FS_READONLY && chk_wp && (stat & STA_PROTECT))	/* Check write protection if needed */
  4027f8:	2e00      	cmp	r6, #0
  4027fa:	f000 8134 	beq.w	402a66 <chk_mounted+0x2b2>
  4027fe:	f000 0004 	and.w	r0, r0, #4
				return FR_WRITE_PROTECTED;
  402802:	2800      	cmp	r0, #0
  402804:	bf0c      	ite	eq
  402806:	2000      	moveq	r0, #0
  402808:	200a      	movne	r0, #10
  40280a:	bdf8      	pop	{r3, r4, r5, r6, r7, pc}
	fs->fs_type = 0;					/* Clear the file system object */
  40280c:	2300      	movs	r3, #0
  40280e:	702b      	strb	r3, [r5, #0]
	fs->drv = LD2PD(vol);				/* Bind the logical drive and a physical drive */
  402810:	b2e0      	uxtb	r0, r4
  402812:	7068      	strb	r0, [r5, #1]
	stat = disk_initialize(fs->drv);	/* Initialize low level disk I/O layer */
  402814:	4ba1      	ldr	r3, [pc, #644]	; (402a9c <chk_mounted+0x2e8>)
  402816:	4798      	blx	r3
	if (stat & STA_NOINIT)				/* Check if the initialization succeeded */
  402818:	f010 0f01 	tst.w	r0, #1
  40281c:	d001      	beq.n	402822 <chk_mounted+0x6e>
		return FR_NOT_READY;			/* Failed to initialize due to no media or hard error */
  40281e:	2003      	movs	r0, #3
  402820:	bdf8      	pop	{r3, r4, r5, r6, r7, pc}
	if (!_FS_READONLY && chk_wp && (stat & STA_PROTECT))	/* Check disk write protection if needed */
  402822:	b126      	cbz	r6, 40282e <chk_mounted+0x7a>
  402824:	f010 0f04 	tst.w	r0, #4
  402828:	d001      	beq.n	40282e <chk_mounted+0x7a>
		return FR_WRITE_PROTECTED;
  40282a:	200a      	movs	r0, #10
  40282c:	bdf8      	pop	{r3, r4, r5, r6, r7, pc}
	fmt = check_fs(fs, bsect = 0);		/* Load sector 0 and check if it is an FAT-VBR (in SFD) */
  40282e:	2100      	movs	r1, #0
  402830:	4628      	mov	r0, r5
  402832:	4b9b      	ldr	r3, [pc, #620]	; (402aa0 <chk_mounted+0x2ec>)
  402834:	4798      	blx	r3
	if (fmt == 1) {						/* Not an FAT-VBR, the physical drive can be partitioned */
  402836:	2801      	cmp	r0, #1
  402838:	d006      	beq.n	402848 <chk_mounted+0x94>
	fmt = check_fs(fs, bsect = 0);		/* Load sector 0 and check if it is an FAT-VBR (in SFD) */
  40283a:	2400      	movs	r4, #0
	if (fmt == 3) return FR_DISK_ERR;
  40283c:	2803      	cmp	r0, #3
  40283e:	f000 8114 	beq.w	402a6a <chk_mounted+0x2b6>
	if (fmt) return FR_NO_FILESYSTEM;		/* No FAT volume is found */
  402842:	b1c8      	cbz	r0, 402878 <chk_mounted+0xc4>
  402844:	200d      	movs	r0, #13
  402846:	bdf8      	pop	{r3, r4, r5, r6, r7, pc}
		if (tbl[4]) {						/* Is the partition existing? */
  402848:	f895 31f2 	ldrb.w	r3, [r5, #498]	; 0x1f2
  40284c:	b90b      	cbnz	r3, 402852 <chk_mounted+0x9e>
	if (fmt) return FR_NO_FILESYSTEM;		/* No FAT volume is found */
  40284e:	200d      	movs	r0, #13
  402850:	bdf8      	pop	{r3, r4, r5, r6, r7, pc}
			bsect = LD_DWORD(&tbl[8]);		/* Partition offset in LBA */
  402852:	f895 31f9 	ldrb.w	r3, [r5, #505]	; 0x1f9
  402856:	f895 41f8 	ldrb.w	r4, [r5, #504]	; 0x1f8
  40285a:	0424      	lsls	r4, r4, #16
  40285c:	ea44 6403 	orr.w	r4, r4, r3, lsl #24
  402860:	f895 31f6 	ldrb.w	r3, [r5, #502]	; 0x1f6
  402864:	431c      	orrs	r4, r3
  402866:	f895 31f7 	ldrb.w	r3, [r5, #503]	; 0x1f7
  40286a:	ea44 2403 	orr.w	r4, r4, r3, lsl #8
			fmt = check_fs(fs, bsect);		/* Check the partition */
  40286e:	4621      	mov	r1, r4
  402870:	4628      	mov	r0, r5
  402872:	4b8b      	ldr	r3, [pc, #556]	; (402aa0 <chk_mounted+0x2ec>)
  402874:	4798      	blx	r3
  402876:	e7e1      	b.n	40283c <chk_mounted+0x88>
	if (LD_WORD(fs->win+BPB_BytsPerSec) != SS(fs))		/* (BPB_BytsPerSec must be equal to the physical sector size) */
  402878:	f895 203c 	ldrb.w	r2, [r5, #60]	; 0x3c
  40287c:	f895 303b 	ldrb.w	r3, [r5, #59]	; 0x3b
  402880:	ea43 2302 	orr.w	r3, r3, r2, lsl #8
  402884:	b21b      	sxth	r3, r3
  402886:	f5b3 7f00 	cmp.w	r3, #512	; 0x200
  40288a:	d001      	beq.n	402890 <chk_mounted+0xdc>
		return FR_NO_FILESYSTEM;
  40288c:	200d      	movs	r0, #13
  40288e:	bdf8      	pop	{r3, r4, r5, r6, r7, pc}
	fasize = LD_WORD(fs->win+BPB_FATSz16);				/* Number of sectors per FAT */
  402890:	f895 3047 	ldrb.w	r3, [r5, #71]	; 0x47
  402894:	f895 2046 	ldrb.w	r2, [r5, #70]	; 0x46
	if (!fasize) fasize = LD_DWORD(fs->win+BPB_FATSz32);
  402898:	ea52 2203 	orrs.w	r2, r2, r3, lsl #8
  40289c:	d10d      	bne.n	4028ba <chk_mounted+0x106>
  40289e:	f895 3057 	ldrb.w	r3, [r5, #87]	; 0x57
  4028a2:	f895 2056 	ldrb.w	r2, [r5, #86]	; 0x56
  4028a6:	0412      	lsls	r2, r2, #16
  4028a8:	ea42 6203 	orr.w	r2, r2, r3, lsl #24
  4028ac:	f895 3054 	ldrb.w	r3, [r5, #84]	; 0x54
  4028b0:	431a      	orrs	r2, r3
  4028b2:	f895 3055 	ldrb.w	r3, [r5, #85]	; 0x55
  4028b6:	ea42 2203 	orr.w	r2, r2, r3, lsl #8
	fs->fsize = fasize;
  4028ba:	61ea      	str	r2, [r5, #28]
	fs->n_fats = b = fs->win[BPB_NumFATs];				/* Number of FAT copies */
  4028bc:	f895 e040 	ldrb.w	lr, [r5, #64]	; 0x40
  4028c0:	f885 e003 	strb.w	lr, [r5, #3]
	if (b != 1 && b != 2) return FR_NO_FILESYSTEM;		/* (Must be 1 or 2) */
  4028c4:	f10e 33ff 	add.w	r3, lr, #4294967295
  4028c8:	b2db      	uxtb	r3, r3
  4028ca:	2b01      	cmp	r3, #1
  4028cc:	d901      	bls.n	4028d2 <chk_mounted+0x11e>
  4028ce:	200d      	movs	r0, #13
  4028d0:	bdf8      	pop	{r3, r4, r5, r6, r7, pc}
	fs->csize = b = fs->win[BPB_SecPerClus];			/* Number of sectors per cluster */
  4028d2:	f895 603d 	ldrb.w	r6, [r5, #61]	; 0x3d
  4028d6:	70ae      	strb	r6, [r5, #2]
	if (!b || (b & (b - 1))) return FR_NO_FILESYSTEM;	/* (Must be power of 2) */
  4028d8:	2e00      	cmp	r6, #0
  4028da:	f000 80c8 	beq.w	402a6e <chk_mounted+0x2ba>
  4028de:	1e73      	subs	r3, r6, #1
  4028e0:	4233      	tst	r3, r6
  4028e2:	d001      	beq.n	4028e8 <chk_mounted+0x134>
  4028e4:	200d      	movs	r0, #13
  4028e6:	bdf8      	pop	{r3, r4, r5, r6, r7, pc}
	fs->n_rootdir = LD_WORD(fs->win+BPB_RootEntCnt);	/* Number of root directory entries */
  4028e8:	f895 3042 	ldrb.w	r3, [r5, #66]	; 0x42
  4028ec:	f895 1041 	ldrb.w	r1, [r5, #65]	; 0x41
  4028f0:	ea41 2103 	orr.w	r1, r1, r3, lsl #8
  4028f4:	8129      	strh	r1, [r5, #8]
	if (fs->n_rootdir % (SS(fs) / SZ_DIR)) return FR_NO_FILESYSTEM;	/* (BPB_RootEntCnt must be sector aligned) */
  4028f6:	f011 0f0f 	tst.w	r1, #15
  4028fa:	f040 80ba 	bne.w	402a72 <chk_mounted+0x2be>
	tsect = LD_WORD(fs->win+BPB_TotSec16);				/* Number of sectors on the volume */
  4028fe:	f895 0044 	ldrb.w	r0, [r5, #68]	; 0x44
  402902:	f895 3043 	ldrb.w	r3, [r5, #67]	; 0x43
	if (!tsect) tsect = LD_DWORD(fs->win+BPB_TotSec32);
  402906:	ea53 2300 	orrs.w	r3, r3, r0, lsl #8
  40290a:	d10d      	bne.n	402928 <chk_mounted+0x174>
  40290c:	f895 0053 	ldrb.w	r0, [r5, #83]	; 0x53
  402910:	f895 3052 	ldrb.w	r3, [r5, #82]	; 0x52
  402914:	041b      	lsls	r3, r3, #16
  402916:	ea43 6300 	orr.w	r3, r3, r0, lsl #24
  40291a:	f895 0050 	ldrb.w	r0, [r5, #80]	; 0x50
  40291e:	4303      	orrs	r3, r0
  402920:	f895 0051 	ldrb.w	r0, [r5, #81]	; 0x51
  402924:	ea43 2300 	orr.w	r3, r3, r0, lsl #8
	nrsv = LD_WORD(fs->win+BPB_RsvdSecCnt);				/* Number of reserved sectors */
  402928:	f895 003f 	ldrb.w	r0, [r5, #63]	; 0x3f
  40292c:	f895 703e 	ldrb.w	r7, [r5, #62]	; 0x3e
	if (!nrsv) return FR_NO_FILESYSTEM;					/* (BPB_RsvdSecCnt must not be 0) */
  402930:	ea57 2700 	orrs.w	r7, r7, r0, lsl #8
  402934:	f000 809f 	beq.w	402a76 <chk_mounted+0x2c2>
	fasize *= b;										/* Number of sectors for FAT area */
  402938:	fb02 fe0e 	mul.w	lr, r2, lr
	sysect = nrsv + fasize + fs->n_rootdir / (SS(fs) / SZ_DIR);	/* RSV+FAT+DIR */
  40293c:	eb07 1011 	add.w	r0, r7, r1, lsr #4
  402940:	4470      	add	r0, lr
	if (tsect < sysect) return FR_NO_FILESYSTEM;		/* (Invalid volume size) */
  402942:	4283      	cmp	r3, r0
  402944:	f0c0 8099 	bcc.w	402a7a <chk_mounted+0x2c6>
	nclst = (tsect - sysect) / fs->csize;				/* Number of clusters */
  402948:	1a1b      	subs	r3, r3, r0
  40294a:	fbb3 f3f6 	udiv	r3, r3, r6
	if (!nclst) return FR_NO_FILESYSTEM;				/* (Invalid volume size) */
  40294e:	2b00      	cmp	r3, #0
  402950:	f000 8095 	beq.w	402a7e <chk_mounted+0x2ca>
	fmt = FS_FAT12;
  402954:	f640 76f5 	movw	r6, #4085	; 0xff5
  402958:	42b3      	cmp	r3, r6
  40295a:	bf8c      	ite	hi
  40295c:	2602      	movhi	r6, #2
  40295e:	2601      	movls	r6, #1
	if (nclst >= MIN_FAT32) fmt = FS_FAT32;
  402960:	f64f 7cf5 	movw	ip, #65525	; 0xfff5
  402964:	4563      	cmp	r3, ip
  402966:	f200 80a5 	bhi.w	402ab4 <chk_mounted+0x300>
	fs->n_fatent = nclst + 2;							/* Number of FAT entries */
  40296a:	3302      	adds	r3, #2
  40296c:	61ab      	str	r3, [r5, #24]
	fs->database = bsect + sysect;						/* Data start sector */
  40296e:	4420      	add	r0, r4
  402970:	62a8      	str	r0, [r5, #40]	; 0x28
	fs->fatbase = bsect + nrsv; 						/* FAT start sector */
  402972:	443c      	add	r4, r7
  402974:	622c      	str	r4, [r5, #32]
		if (!fs->n_rootdir)	return FR_NO_FILESYSTEM;	/* (BPB_RootEntCnt must not be 0) */
  402976:	2900      	cmp	r1, #0
  402978:	f000 8089 	beq.w	402a8e <chk_mounted+0x2da>
		fs->dirbase = fs->fatbase + fasize;				/* Root directory start sector */
  40297c:	4474      	add	r4, lr
  40297e:	626c      	str	r4, [r5, #36]	; 0x24
			fs->n_fatent * 2 : fs->n_fatent * 3 / 2 + (fs->n_fatent & 1);
  402980:	2e02      	cmp	r6, #2
  402982:	d10b      	bne.n	40299c <chk_mounted+0x1e8>
  402984:	005b      	lsls	r3, r3, #1
	if (fs->fsize < (szbfat + (SS(fs) - 1)) / SS(fs))	/* (BPB_FATSz must not be less than required) */
  402986:	f203 13ff 	addw	r3, r3, #511	; 0x1ff
  40298a:	ebb2 2f53 	cmp.w	r2, r3, lsr #9
  40298e:	d37c      	bcc.n	402a8a <chk_mounted+0x2d6>
	fs->free_clust = 0xFFFFFFFF;
  402990:	f04f 33ff 	mov.w	r3, #4294967295
  402994:	612b      	str	r3, [r5, #16]
	fs->last_clust = 0;
  402996:	2300      	movs	r3, #0
  402998:	60eb      	str	r3, [r5, #12]
  40299a:	e051      	b.n	402a40 <chk_mounted+0x28c>
			fs->n_fatent * 2 : fs->n_fatent * 3 / 2 + (fs->n_fatent & 1);
  40299c:	eb03 0143 	add.w	r1, r3, r3, lsl #1
  4029a0:	f003 0301 	and.w	r3, r3, #1
  4029a4:	eb03 0351 	add.w	r3, r3, r1, lsr #1
  4029a8:	e7ed      	b.n	402986 <chk_mounted+0x1d2>
			LD_WORD(fs->win+BS_55AA) == 0xAA55 &&
  4029aa:	f895 222f 	ldrb.w	r2, [r5, #559]	; 0x22f
  4029ae:	f895 322e 	ldrb.w	r3, [r5, #558]	; 0x22e
  4029b2:	ea43 2302 	orr.w	r3, r3, r2, lsl #8
		if (disk_read(fs->drv, fs->win, fs->fsi_sector, 1) == RES_OK &&
  4029b6:	b21b      	sxth	r3, r3
  4029b8:	4a3a      	ldr	r2, [pc, #232]	; (402aa4 <chk_mounted+0x2f0>)
  4029ba:	4293      	cmp	r3, r2
  4029bc:	d14b      	bne.n	402a56 <chk_mounted+0x2a2>
			LD_DWORD(fs->win+FSI_LeadSig) == 0x41615252 &&
  4029be:	f895 2033 	ldrb.w	r2, [r5, #51]	; 0x33
  4029c2:	f895 3032 	ldrb.w	r3, [r5, #50]	; 0x32
  4029c6:	041b      	lsls	r3, r3, #16
  4029c8:	ea43 6302 	orr.w	r3, r3, r2, lsl #24
  4029cc:	f895 2030 	ldrb.w	r2, [r5, #48]	; 0x30
  4029d0:	4313      	orrs	r3, r2
  4029d2:	f895 2031 	ldrb.w	r2, [r5, #49]	; 0x31
  4029d6:	ea43 2302 	orr.w	r3, r3, r2, lsl #8
			LD_WORD(fs->win+BS_55AA) == 0xAA55 &&
  4029da:	4a33      	ldr	r2, [pc, #204]	; (402aa8 <chk_mounted+0x2f4>)
  4029dc:	4293      	cmp	r3, r2
  4029de:	d13c      	bne.n	402a5a <chk_mounted+0x2a6>
			LD_DWORD(fs->win+FSI_StrucSig) == 0x61417272) {
  4029e0:	f895 2217 	ldrb.w	r2, [r5, #535]	; 0x217
  4029e4:	f895 3216 	ldrb.w	r3, [r5, #534]	; 0x216
  4029e8:	041b      	lsls	r3, r3, #16
  4029ea:	ea43 6302 	orr.w	r3, r3, r2, lsl #24
  4029ee:	f895 2214 	ldrb.w	r2, [r5, #532]	; 0x214
  4029f2:	4313      	orrs	r3, r2
  4029f4:	f895 2215 	ldrb.w	r2, [r5, #533]	; 0x215
  4029f8:	ea43 2302 	orr.w	r3, r3, r2, lsl #8
			LD_DWORD(fs->win+FSI_LeadSig) == 0x41615252 &&
  4029fc:	4a2b      	ldr	r2, [pc, #172]	; (402aac <chk_mounted+0x2f8>)
  4029fe:	4293      	cmp	r3, r2
  402a00:	d12d      	bne.n	402a5e <chk_mounted+0x2aa>
				fs->last_clust = LD_DWORD(fs->win+FSI_Nxt_Free);
  402a02:	f895 221f 	ldrb.w	r2, [r5, #543]	; 0x21f
  402a06:	f895 321e 	ldrb.w	r3, [r5, #542]	; 0x21e
  402a0a:	041b      	lsls	r3, r3, #16
  402a0c:	ea43 6302 	orr.w	r3, r3, r2, lsl #24
  402a10:	f895 221c 	ldrb.w	r2, [r5, #540]	; 0x21c
  402a14:	4313      	orrs	r3, r2
  402a16:	f895 221d 	ldrb.w	r2, [r5, #541]	; 0x21d
  402a1a:	ea43 2302 	orr.w	r3, r3, r2, lsl #8
  402a1e:	60eb      	str	r3, [r5, #12]
				fs->free_clust = LD_DWORD(fs->win+FSI_Free_Count);
  402a20:	f895 221b 	ldrb.w	r2, [r5, #539]	; 0x21b
  402a24:	f895 321a 	ldrb.w	r3, [r5, #538]	; 0x21a
  402a28:	041b      	lsls	r3, r3, #16
  402a2a:	ea43 6302 	orr.w	r3, r3, r2, lsl #24
  402a2e:	f895 2218 	ldrb.w	r2, [r5, #536]	; 0x218
  402a32:	4313      	orrs	r3, r2
  402a34:	f895 2219 	ldrb.w	r2, [r5, #537]	; 0x219
  402a38:	ea43 2302 	orr.w	r3, r3, r2, lsl #8
  402a3c:	612b      	str	r3, [r5, #16]
  402a3e:	2603      	movs	r6, #3
	fs->fs_type = fmt;		/* FAT sub-type */
  402a40:	702e      	strb	r6, [r5, #0]
	fs->id = ++Fsid;		/* File system mount ID */
  402a42:	4a1b      	ldr	r2, [pc, #108]	; (402ab0 <chk_mounted+0x2fc>)
  402a44:	8813      	ldrh	r3, [r2, #0]
  402a46:	3301      	adds	r3, #1
  402a48:	b29b      	uxth	r3, r3
  402a4a:	8013      	strh	r3, [r2, #0]
  402a4c:	80eb      	strh	r3, [r5, #6]
	fs->winsect = 0;		/* Invalidate sector cache */
  402a4e:	2000      	movs	r0, #0
  402a50:	62e8      	str	r0, [r5, #44]	; 0x2c
	fs->wflag = 0;
  402a52:	7128      	strb	r0, [r5, #4]
	return FR_OK;
  402a54:	bdf8      	pop	{r3, r4, r5, r6, r7, pc}
  402a56:	2603      	movs	r6, #3
  402a58:	e7f2      	b.n	402a40 <chk_mounted+0x28c>
  402a5a:	2603      	movs	r6, #3
  402a5c:	e7f0      	b.n	402a40 <chk_mounted+0x28c>
  402a5e:	2603      	movs	r6, #3
  402a60:	e7ee      	b.n	402a40 <chk_mounted+0x28c>
	if (!fs) return FR_NOT_ENABLED;		/* Is the file system object available? */
  402a62:	200c      	movs	r0, #12
  402a64:	bdf8      	pop	{r3, r4, r5, r6, r7, pc}
			return FR_OK;				/* The file system object is valid */
  402a66:	2000      	movs	r0, #0
  402a68:	bdf8      	pop	{r3, r4, r5, r6, r7, pc}
	if (fmt == 3) return FR_DISK_ERR;
  402a6a:	2001      	movs	r0, #1
  402a6c:	bdf8      	pop	{r3, r4, r5, r6, r7, pc}
	if (!b || (b & (b - 1))) return FR_NO_FILESYSTEM;	/* (Must be power of 2) */
  402a6e:	200d      	movs	r0, #13
  402a70:	bdf8      	pop	{r3, r4, r5, r6, r7, pc}
	if (fs->n_rootdir % (SS(fs) / SZ_DIR)) return FR_NO_FILESYSTEM;	/* (BPB_RootEntCnt must be sector aligned) */
  402a72:	200d      	movs	r0, #13
  402a74:	bdf8      	pop	{r3, r4, r5, r6, r7, pc}
	if (!nrsv) return FR_NO_FILESYSTEM;					/* (BPB_RsvdSecCnt must not be 0) */
  402a76:	200d      	movs	r0, #13
  402a78:	bdf8      	pop	{r3, r4, r5, r6, r7, pc}
	if (tsect < sysect) return FR_NO_FILESYSTEM;		/* (Invalid volume size) */
  402a7a:	200d      	movs	r0, #13
  402a7c:	bdf8      	pop	{r3, r4, r5, r6, r7, pc}
	if (!nclst) return FR_NO_FILESYSTEM;				/* (Invalid volume size) */
  402a7e:	200d      	movs	r0, #13
  402a80:	bdf8      	pop	{r3, r4, r5, r6, r7, pc}
		return FR_NO_FILESYSTEM;
  402a82:	200d      	movs	r0, #13
  402a84:	bdf8      	pop	{r3, r4, r5, r6, r7, pc}
		if (fs->n_rootdir) return FR_NO_FILESYSTEM;		/* (BPB_RootEntCnt must be 0) */
  402a86:	200d      	movs	r0, #13
  402a88:	bdf8      	pop	{r3, r4, r5, r6, r7, pc}
		return FR_NO_FILESYSTEM;
  402a8a:	200d      	movs	r0, #13
  402a8c:	bdf8      	pop	{r3, r4, r5, r6, r7, pc}
		if (!fs->n_rootdir)	return FR_NO_FILESYSTEM;	/* (BPB_RootEntCnt must not be 0) */
  402a8e:	200d      	movs	r0, #13
  402a90:	bdf8      	pop	{r3, r4, r5, r6, r7, pc}
  402a92:	bf00      	nop
  402a94:	20400a94 	.word	0x20400a94
  402a98:	004024d5 	.word	0x004024d5
  402a9c:	00402495 	.word	0x00402495
  402aa0:	00402725 	.word	0x00402725
  402aa4:	ffffaa55 	.word	0xffffaa55
  402aa8:	41615252 	.word	0x41615252
  402aac:	61417272 	.word	0x61417272
  402ab0:	20400ab4 	.word	0x20400ab4
	fs->n_fatent = nclst + 2;							/* Number of FAT entries */
  402ab4:	3302      	adds	r3, #2
  402ab6:	61ab      	str	r3, [r5, #24]
	fs->database = bsect + sysect;						/* Data start sector */
  402ab8:	4420      	add	r0, r4
  402aba:	62a8      	str	r0, [r5, #40]	; 0x28
	fs->fatbase = bsect + nrsv; 						/* FAT start sector */
  402abc:	4427      	add	r7, r4
  402abe:	622f      	str	r7, [r5, #32]
		if (fs->n_rootdir) return FR_NO_FILESYSTEM;		/* (BPB_RootEntCnt must be 0) */
  402ac0:	2900      	cmp	r1, #0
  402ac2:	d1e0      	bne.n	402a86 <chk_mounted+0x2d2>
		fs->dirbase = LD_DWORD(fs->win+BPB_RootClus);	/* Root directory start cluster */
  402ac4:	f895 005f 	ldrb.w	r0, [r5, #95]	; 0x5f
  402ac8:	f895 105e 	ldrb.w	r1, [r5, #94]	; 0x5e
  402acc:	0409      	lsls	r1, r1, #16
  402ace:	ea41 6100 	orr.w	r1, r1, r0, lsl #24
  402ad2:	f895 005c 	ldrb.w	r0, [r5, #92]	; 0x5c
  402ad6:	4301      	orrs	r1, r0
  402ad8:	f895 005d 	ldrb.w	r0, [r5, #93]	; 0x5d
  402adc:	ea41 2100 	orr.w	r1, r1, r0, lsl #8
  402ae0:	6269      	str	r1, [r5, #36]	; 0x24
		szbfat = fs->n_fatent * 4;						/* (Required FAT size) */
  402ae2:	009b      	lsls	r3, r3, #2
	if (fs->fsize < (szbfat + (SS(fs) - 1)) / SS(fs))	/* (BPB_FATSz must not be less than required) */
  402ae4:	f203 13ff 	addw	r3, r3, #511	; 0x1ff
  402ae8:	ebb2 2f53 	cmp.w	r2, r3, lsr #9
  402aec:	d3c9      	bcc.n	402a82 <chk_mounted+0x2ce>
	fs->free_clust = 0xFFFFFFFF;
  402aee:	f04f 33ff 	mov.w	r3, #4294967295
  402af2:	612b      	str	r3, [r5, #16]
	fs->last_clust = 0;
  402af4:	2300      	movs	r3, #0
  402af6:	60eb      	str	r3, [r5, #12]
	 	fs->fsi_flag = 0;
  402af8:	716b      	strb	r3, [r5, #5]
		fs->fsi_sector = bsect + LD_WORD(fs->win+BPB_FSInfo);
  402afa:	f895 3061 	ldrb.w	r3, [r5, #97]	; 0x61
  402afe:	f895 2060 	ldrb.w	r2, [r5, #96]	; 0x60
  402b02:	ea42 2203 	orr.w	r2, r2, r3, lsl #8
  402b06:	4422      	add	r2, r4
  402b08:	616a      	str	r2, [r5, #20]
		if (disk_read(fs->drv, fs->win, fs->fsi_sector, 1) == RES_OK &&
  402b0a:	2301      	movs	r3, #1
  402b0c:	f105 0130 	add.w	r1, r5, #48	; 0x30
  402b10:	7868      	ldrb	r0, [r5, #1]
  402b12:	4c03      	ldr	r4, [pc, #12]	; (402b20 <chk_mounted+0x36c>)
  402b14:	47a0      	blx	r4
  402b16:	2800      	cmp	r0, #0
  402b18:	f43f af47 	beq.w	4029aa <chk_mounted+0x1f6>
  402b1c:	2603      	movs	r6, #3
  402b1e:	e78f      	b.n	402a40 <chk_mounted+0x28c>
  402b20:	004024f1 	.word	0x004024f1

00402b24 <move_window>:
{
  402b24:	e92d 47f0 	stmdb	sp!, {r4, r5, r6, r7, r8, r9, sl, lr}
	wsect = fs->winsect;
  402b28:	6ac7      	ldr	r7, [r0, #44]	; 0x2c
	if (wsect != sector) {	/* Changed current window */
  402b2a:	428f      	cmp	r7, r1
  402b2c:	d035      	beq.n	402b9a <move_window+0x76>
  402b2e:	460e      	mov	r6, r1
  402b30:	4604      	mov	r4, r0
		if (fs->wflag) {	/* Write back dirty window if needed */
  402b32:	7903      	ldrb	r3, [r0, #4]
  402b34:	b91b      	cbnz	r3, 402b3e <move_window+0x1a>
		if (sector) {
  402b36:	bb2e      	cbnz	r6, 402b84 <move_window+0x60>
	return FR_OK;
  402b38:	2000      	movs	r0, #0
  402b3a:	e8bd 87f0 	ldmia.w	sp!, {r4, r5, r6, r7, r8, r9, sl, pc}
			if (disk_write(fs->drv, fs->win, wsect, 1) != RES_OK)
  402b3e:	f100 0830 	add.w	r8, r0, #48	; 0x30
  402b42:	2301      	movs	r3, #1
  402b44:	463a      	mov	r2, r7
  402b46:	4641      	mov	r1, r8
  402b48:	7840      	ldrb	r0, [r0, #1]
  402b4a:	4d18      	ldr	r5, [pc, #96]	; (402bac <move_window+0x88>)
  402b4c:	47a8      	blx	r5
  402b4e:	bb38      	cbnz	r0, 402ba0 <move_window+0x7c>
			fs->wflag = 0;
  402b50:	2300      	movs	r3, #0
  402b52:	7123      	strb	r3, [r4, #4]
			if (wsect < (fs->fatbase + fs->fsize)) {	/* In FAT area */
  402b54:	6a23      	ldr	r3, [r4, #32]
  402b56:	69e2      	ldr	r2, [r4, #28]
  402b58:	4413      	add	r3, r2
  402b5a:	429f      	cmp	r7, r3
  402b5c:	d2eb      	bcs.n	402b36 <move_window+0x12>
				for (nf = fs->n_fats; nf > 1; nf--) {	/* Reflect the change to all FAT copies */
  402b5e:	78e5      	ldrb	r5, [r4, #3]
  402b60:	2d01      	cmp	r5, #1
  402b62:	d9e8      	bls.n	402b36 <move_window+0x12>
					disk_write(fs->drv, fs->win, wsect, 1);
  402b64:	f04f 0a01 	mov.w	sl, #1
  402b68:	f8df 9040 	ldr.w	r9, [pc, #64]	; 402bac <move_window+0x88>
					wsect += fs->fsize;
  402b6c:	69e3      	ldr	r3, [r4, #28]
  402b6e:	441f      	add	r7, r3
					disk_write(fs->drv, fs->win, wsect, 1);
  402b70:	4653      	mov	r3, sl
  402b72:	463a      	mov	r2, r7
  402b74:	4641      	mov	r1, r8
  402b76:	7860      	ldrb	r0, [r4, #1]
  402b78:	47c8      	blx	r9
				for (nf = fs->n_fats; nf > 1; nf--) {	/* Reflect the change to all FAT copies */
  402b7a:	3d01      	subs	r5, #1
  402b7c:	b2ed      	uxtb	r5, r5
  402b7e:	2d01      	cmp	r5, #1
  402b80:	d1f4      	bne.n	402b6c <move_window+0x48>
  402b82:	e7d8      	b.n	402b36 <move_window+0x12>
			if (disk_read(fs->drv, fs->win, sector, 1) != RES_OK)
  402b84:	2301      	movs	r3, #1
  402b86:	4632      	mov	r2, r6
  402b88:	f104 0130 	add.w	r1, r4, #48	; 0x30
  402b8c:	7860      	ldrb	r0, [r4, #1]
  402b8e:	4d08      	ldr	r5, [pc, #32]	; (402bb0 <move_window+0x8c>)
  402b90:	47a8      	blx	r5
  402b92:	b940      	cbnz	r0, 402ba6 <move_window+0x82>
			fs->winsect = sector;
  402b94:	62e6      	str	r6, [r4, #44]	; 0x2c
  402b96:	e8bd 87f0 	ldmia.w	sp!, {r4, r5, r6, r7, r8, r9, sl, pc}
	return FR_OK;
  402b9a:	2000      	movs	r0, #0
  402b9c:	e8bd 87f0 	ldmia.w	sp!, {r4, r5, r6, r7, r8, r9, sl, pc}
				return FR_DISK_ERR;
  402ba0:	2001      	movs	r0, #1
  402ba2:	e8bd 87f0 	ldmia.w	sp!, {r4, r5, r6, r7, r8, r9, sl, pc}
				return FR_DISK_ERR;
  402ba6:	2001      	movs	r0, #1
}
  402ba8:	e8bd 87f0 	ldmia.w	sp!, {r4, r5, r6, r7, r8, r9, sl, pc}
  402bac:	00402561 	.word	0x00402561
  402bb0:	004024f1 	.word	0x004024f1

00402bb4 <get_fat>:
	if (clst < 2 || clst >= fs->n_fatent)	/* Chack range */
  402bb4:	2901      	cmp	r1, #1
  402bb6:	d96a      	bls.n	402c8e <get_fat+0xda>
{
  402bb8:	b5f8      	push	{r3, r4, r5, r6, r7, lr}
	if (clst < 2 || clst >= fs->n_fatent)	/* Chack range */
  402bba:	6983      	ldr	r3, [r0, #24]
  402bbc:	4299      	cmp	r1, r3
  402bbe:	d268      	bcs.n	402c92 <get_fat+0xde>
  402bc0:	460c      	mov	r4, r1
  402bc2:	4606      	mov	r6, r0
	switch (fs->fs_type) {
  402bc4:	7803      	ldrb	r3, [r0, #0]
  402bc6:	2b02      	cmp	r3, #2
  402bc8:	d02f      	beq.n	402c2a <get_fat+0x76>
  402bca:	2b03      	cmp	r3, #3
  402bcc:	d041      	beq.n	402c52 <get_fat+0x9e>
  402bce:	2b01      	cmp	r3, #1
  402bd0:	d002      	beq.n	402bd8 <get_fat+0x24>
	return 0xFFFFFFFF;	/* An error occurred at the disk I/O layer */
  402bd2:	f04f 30ff 	mov.w	r0, #4294967295
  402bd6:	bdf8      	pop	{r3, r4, r5, r6, r7, pc}
		bc = (UINT)clst; bc += bc / 2;
  402bd8:	eb01 0751 	add.w	r7, r1, r1, lsr #1
		if (move_window(fs, fs->fatbase + (bc / SS(fs)))) break;
  402bdc:	6a01      	ldr	r1, [r0, #32]
  402bde:	eb01 2157 	add.w	r1, r1, r7, lsr #9
  402be2:	4b2d      	ldr	r3, [pc, #180]	; (402c98 <get_fat+0xe4>)
  402be4:	4798      	blx	r3
  402be6:	b110      	cbz	r0, 402bee <get_fat+0x3a>
	return 0xFFFFFFFF;	/* An error occurred at the disk I/O layer */
  402be8:	f04f 30ff 	mov.w	r0, #4294967295
  402bec:	bdf8      	pop	{r3, r4, r5, r6, r7, pc}
		wc = fs->win[bc % SS(fs)]; bc++;
  402bee:	f3c7 0308 	ubfx	r3, r7, #0, #9
  402bf2:	4433      	add	r3, r6
  402bf4:	f893 5030 	ldrb.w	r5, [r3, #48]	; 0x30
  402bf8:	3701      	adds	r7, #1
		if (move_window(fs, fs->fatbase + (bc / SS(fs)))) break;
  402bfa:	6a31      	ldr	r1, [r6, #32]
  402bfc:	eb01 2157 	add.w	r1, r1, r7, lsr #9
  402c00:	4630      	mov	r0, r6
  402c02:	4b25      	ldr	r3, [pc, #148]	; (402c98 <get_fat+0xe4>)
  402c04:	4798      	blx	r3
  402c06:	b110      	cbz	r0, 402c0e <get_fat+0x5a>
	return 0xFFFFFFFF;	/* An error occurred at the disk I/O layer */
  402c08:	f04f 30ff 	mov.w	r0, #4294967295
  402c0c:	bdf8      	pop	{r3, r4, r5, r6, r7, pc}
		wc |= fs->win[bc % SS(fs)] << 8;
  402c0e:	f3c7 0708 	ubfx	r7, r7, #0, #9
  402c12:	19f0      	adds	r0, r6, r7
  402c14:	f890 0030 	ldrb.w	r0, [r0, #48]	; 0x30
  402c18:	ea45 2000 	orr.w	r0, r5, r0, lsl #8
		return (clst & 1) ? (wc >> 4) : (wc & 0xFFF);
  402c1c:	f014 0f01 	tst.w	r4, #1
  402c20:	bf14      	ite	ne
  402c22:	0900      	lsrne	r0, r0, #4
  402c24:	f3c0 000b 	ubfxeq	r0, r0, #0, #12
  402c28:	bdf8      	pop	{r3, r4, r5, r6, r7, pc}
		if (move_window(fs, fs->fatbase + (clst / (SS(fs) / 2)))) break;
  402c2a:	6a01      	ldr	r1, [r0, #32]
  402c2c:	eb01 2114 	add.w	r1, r1, r4, lsr #8
  402c30:	4b19      	ldr	r3, [pc, #100]	; (402c98 <get_fat+0xe4>)
  402c32:	4798      	blx	r3
  402c34:	b110      	cbz	r0, 402c3c <get_fat+0x88>
	return 0xFFFFFFFF;	/* An error occurred at the disk I/O layer */
  402c36:	f04f 30ff 	mov.w	r0, #4294967295
  402c3a:	bdf8      	pop	{r3, r4, r5, r6, r7, pc}
		p = &fs->win[clst * 2 % SS(fs)];
  402c3c:	0060      	lsls	r0, r4, #1
  402c3e:	f400 70ff 	and.w	r0, r0, #510	; 0x1fe
		return LD_WORD(p);
  402c42:	4430      	add	r0, r6
  402c44:	f890 3031 	ldrb.w	r3, [r0, #49]	; 0x31
  402c48:	f890 0030 	ldrb.w	r0, [r0, #48]	; 0x30
  402c4c:	ea40 2003 	orr.w	r0, r0, r3, lsl #8
  402c50:	bdf8      	pop	{r3, r4, r5, r6, r7, pc}
		if (move_window(fs, fs->fatbase + (clst / (SS(fs) / 4)))) break;
  402c52:	6a01      	ldr	r1, [r0, #32]
  402c54:	eb01 11d4 	add.w	r1, r1, r4, lsr #7
  402c58:	4b0f      	ldr	r3, [pc, #60]	; (402c98 <get_fat+0xe4>)
  402c5a:	4798      	blx	r3
  402c5c:	b110      	cbz	r0, 402c64 <get_fat+0xb0>
	return 0xFFFFFFFF;	/* An error occurred at the disk I/O layer */
  402c5e:	f04f 30ff 	mov.w	r0, #4294967295
}
  402c62:	bdf8      	pop	{r3, r4, r5, r6, r7, pc}
		p = &fs->win[clst * 4 % SS(fs)];
  402c64:	00a0      	lsls	r0, r4, #2
  402c66:	f400 70fe 	and.w	r0, r0, #508	; 0x1fc
  402c6a:	f100 0230 	add.w	r2, r0, #48	; 0x30
  402c6e:	4432      	add	r2, r6
		return LD_DWORD(p) & 0x0FFFFFFF;
  402c70:	78d1      	ldrb	r1, [r2, #3]
  402c72:	7893      	ldrb	r3, [r2, #2]
  402c74:	041b      	lsls	r3, r3, #16
  402c76:	ea43 6301 	orr.w	r3, r3, r1, lsl #24
  402c7a:	4430      	add	r0, r6
  402c7c:	f890 0030 	ldrb.w	r0, [r0, #48]	; 0x30
  402c80:	4318      	orrs	r0, r3
  402c82:	7853      	ldrb	r3, [r2, #1]
  402c84:	ea40 2003 	orr.w	r0, r0, r3, lsl #8
  402c88:	f020 4070 	bic.w	r0, r0, #4026531840	; 0xf0000000
  402c8c:	bdf8      	pop	{r3, r4, r5, r6, r7, pc}
		return 1;
  402c8e:	2001      	movs	r0, #1
  402c90:	4770      	bx	lr
  402c92:	2001      	movs	r0, #1
  402c94:	bdf8      	pop	{r3, r4, r5, r6, r7, pc}
  402c96:	bf00      	nop
  402c98:	00402b25 	.word	0x00402b25

00402c9c <dir_sdi>:
{
  402c9c:	b5f8      	push	{r3, r4, r5, r6, r7, lr}
  402c9e:	4605      	mov	r5, r0
  402ca0:	460c      	mov	r4, r1
	dj->index = idx;
  402ca2:	80c1      	strh	r1, [r0, #6]
	clst = dj->sclust;
  402ca4:	6881      	ldr	r1, [r0, #8]
	if (clst == 1 || clst >= dj->fs->n_fatent)	/* Check start cluster range */
  402ca6:	2901      	cmp	r1, #1
  402ca8:	d03d      	beq.n	402d26 <dir_sdi+0x8a>
  402caa:	6803      	ldr	r3, [r0, #0]
  402cac:	699a      	ldr	r2, [r3, #24]
  402cae:	4291      	cmp	r1, r2
  402cb0:	d301      	bcc.n	402cb6 <dir_sdi+0x1a>
		return FR_INT_ERR;
  402cb2:	2002      	movs	r0, #2
  402cb4:	bdf8      	pop	{r3, r4, r5, r6, r7, pc}
	if (!clst && dj->fs->fs_type == FS_FAT32)	/* Replace cluster# 0 with root cluster# if in FAT32 */
  402cb6:	b961      	cbnz	r1, 402cd2 <dir_sdi+0x36>
  402cb8:	781a      	ldrb	r2, [r3, #0]
  402cba:	2a03      	cmp	r2, #3
  402cbc:	d006      	beq.n	402ccc <dir_sdi+0x30>
		dj->clust = clst;
  402cbe:	2200      	movs	r2, #0
  402cc0:	60ea      	str	r2, [r5, #12]
		if (idx >= dj->fs->n_rootdir)		/* Index is out of range */
  402cc2:	891a      	ldrh	r2, [r3, #8]
  402cc4:	42a2      	cmp	r2, r4
  402cc6:	d821      	bhi.n	402d0c <dir_sdi+0x70>
			return FR_INT_ERR;
  402cc8:	2002      	movs	r0, #2
  402cca:	bdf8      	pop	{r3, r4, r5, r6, r7, pc}
		clst = dj->fs->dirbase;
  402ccc:	6a59      	ldr	r1, [r3, #36]	; 0x24
	if (clst == 0) {	/* Static table (root-dir in FAT12/16) */
  402cce:	2900      	cmp	r1, #0
  402cd0:	d0f5      	beq.n	402cbe <dir_sdi+0x22>
		ic = SS(dj->fs) / SZ_DIR * dj->fs->csize;	/* Entries per cluster */
  402cd2:	789e      	ldrb	r6, [r3, #2]
  402cd4:	0136      	lsls	r6, r6, #4
		while (idx >= ic) {	/* Follow cluster chain */
  402cd6:	42b4      	cmp	r4, r6
  402cd8:	d310      	bcc.n	402cfc <dir_sdi+0x60>
			clst = get_fat(dj->fs, clst);				/* Get next cluster */
  402cda:	4f17      	ldr	r7, [pc, #92]	; (402d38 <dir_sdi+0x9c>)
  402cdc:	6828      	ldr	r0, [r5, #0]
  402cde:	47b8      	blx	r7
  402ce0:	4601      	mov	r1, r0
			if (clst == 0xFFFFFFFF) return FR_DISK_ERR;	/* Disk error */
  402ce2:	f1b0 3fff 	cmp.w	r0, #4294967295
  402ce6:	d020      	beq.n	402d2a <dir_sdi+0x8e>
			if (clst < 2 || clst >= dj->fs->n_fatent)	/* Reached to end of table or int error */
  402ce8:	2801      	cmp	r0, #1
  402cea:	d920      	bls.n	402d2e <dir_sdi+0x92>
  402cec:	682b      	ldr	r3, [r5, #0]
  402cee:	699b      	ldr	r3, [r3, #24]
  402cf0:	4298      	cmp	r0, r3
  402cf2:	d21e      	bcs.n	402d32 <dir_sdi+0x96>
			idx -= ic;
  402cf4:	1ba4      	subs	r4, r4, r6
  402cf6:	b2a4      	uxth	r4, r4
		while (idx >= ic) {	/* Follow cluster chain */
  402cf8:	42a6      	cmp	r6, r4
  402cfa:	d9ef      	bls.n	402cdc <dir_sdi+0x40>
		dj->clust = clst;
  402cfc:	60e9      	str	r1, [r5, #12]
		dj->sect = clust2sect(dj->fs, clst) + idx / (SS(dj->fs) / SZ_DIR);	/* Sector# */
  402cfe:	6828      	ldr	r0, [r5, #0]
  402d00:	4b0e      	ldr	r3, [pc, #56]	; (402d3c <dir_sdi+0xa0>)
  402d02:	4798      	blx	r3
  402d04:	eb00 1014 	add.w	r0, r0, r4, lsr #4
  402d08:	6128      	str	r0, [r5, #16]
  402d0a:	e003      	b.n	402d14 <dir_sdi+0x78>
		dj->sect = dj->fs->dirbase + idx / (SS(dj->fs) / SZ_DIR);	/* Sector# */
  402d0c:	6a5b      	ldr	r3, [r3, #36]	; 0x24
  402d0e:	eb03 1314 	add.w	r3, r3, r4, lsr #4
  402d12:	612b      	str	r3, [r5, #16]
	dj->dir = dj->fs->win + (idx % (SS(dj->fs) / SZ_DIR)) * SZ_DIR;	/* Ptr to the entry in the sector */
  402d14:	682b      	ldr	r3, [r5, #0]
  402d16:	3330      	adds	r3, #48	; 0x30
  402d18:	f004 040f 	and.w	r4, r4, #15
  402d1c:	eb03 1444 	add.w	r4, r3, r4, lsl #5
  402d20:	616c      	str	r4, [r5, #20]
	return FR_OK;	/* Seek succeeded */
  402d22:	2000      	movs	r0, #0
  402d24:	bdf8      	pop	{r3, r4, r5, r6, r7, pc}
		return FR_INT_ERR;
  402d26:	2002      	movs	r0, #2
  402d28:	bdf8      	pop	{r3, r4, r5, r6, r7, pc}
			if (clst == 0xFFFFFFFF) return FR_DISK_ERR;	/* Disk error */
  402d2a:	2001      	movs	r0, #1
  402d2c:	bdf8      	pop	{r3, r4, r5, r6, r7, pc}
				return FR_INT_ERR;
  402d2e:	2002      	movs	r0, #2
  402d30:	bdf8      	pop	{r3, r4, r5, r6, r7, pc}
  402d32:	2002      	movs	r0, #2
}
  402d34:	bdf8      	pop	{r3, r4, r5, r6, r7, pc}
  402d36:	bf00      	nop
  402d38:	00402bb5 	.word	0x00402bb5
  402d3c:	004026bb 	.word	0x004026bb

00402d40 <put_fat>:
{
  402d40:	e92d 41f0 	stmdb	sp!, {r4, r5, r6, r7, r8, lr}
	if (clst < 2 || clst >= fs->n_fatent) {	/* Check range */
  402d44:	2901      	cmp	r1, #1
  402d46:	f240 808f 	bls.w	402e68 <put_fat+0x128>
  402d4a:	6983      	ldr	r3, [r0, #24]
  402d4c:	4299      	cmp	r1, r3
  402d4e:	d301      	bcc.n	402d54 <put_fat+0x14>
		res = FR_INT_ERR;
  402d50:	2702      	movs	r7, #2
	return res;
  402d52:	e08a      	b.n	402e6a <put_fat+0x12a>
  402d54:	4615      	mov	r5, r2
  402d56:	460c      	mov	r4, r1
  402d58:	4606      	mov	r6, r0
		switch (fs->fs_type) {
  402d5a:	7803      	ldrb	r3, [r0, #0]
  402d5c:	2b02      	cmp	r3, #2
  402d5e:	d04e      	beq.n	402dfe <put_fat+0xbe>
  402d60:	2b03      	cmp	r3, #3
  402d62:	d05f      	beq.n	402e24 <put_fat+0xe4>
  402d64:	2b01      	cmp	r3, #1
  402d66:	d003      	beq.n	402d70 <put_fat+0x30>
			res = FR_INT_ERR;
  402d68:	2702      	movs	r7, #2
		fs->wflag = 1;
  402d6a:	2301      	movs	r3, #1
  402d6c:	7133      	strb	r3, [r6, #4]
  402d6e:	e07c      	b.n	402e6a <put_fat+0x12a>
			bc = clst; bc += bc / 2;
  402d70:	eb01 0851 	add.w	r8, r1, r1, lsr #1
			res = move_window(fs, fs->fatbase + (bc / SS(fs)));
  402d74:	6a01      	ldr	r1, [r0, #32]
  402d76:	eb01 2158 	add.w	r1, r1, r8, lsr #9
  402d7a:	4b3d      	ldr	r3, [pc, #244]	; (402e70 <put_fat+0x130>)
  402d7c:	4798      	blx	r3
			if (res != FR_OK) break;
  402d7e:	4607      	mov	r7, r0
  402d80:	2800      	cmp	r0, #0
  402d82:	d1f2      	bne.n	402d6a <put_fat+0x2a>
			p = &fs->win[bc % SS(fs)];
  402d84:	f3c8 0308 	ubfx	r3, r8, #0, #9
			*p = (clst & 1) ? ((*p & 0x0F) | ((BYTE)val << 4)) : (BYTE)val;
  402d88:	f014 0f01 	tst.w	r4, #1
  402d8c:	d01c      	beq.n	402dc8 <put_fat+0x88>
  402d8e:	4433      	add	r3, r6
  402d90:	f893 2030 	ldrb.w	r2, [r3, #48]	; 0x30
  402d94:	f002 020f 	and.w	r2, r2, #15
  402d98:	ea42 1205 	orr.w	r2, r2, r5, lsl #4
  402d9c:	f883 2030 	strb.w	r2, [r3, #48]	; 0x30
			bc++;
  402da0:	f108 0801 	add.w	r8, r8, #1
			fs->wflag = 1;
  402da4:	2301      	movs	r3, #1
  402da6:	7133      	strb	r3, [r6, #4]
			res = move_window(fs, fs->fatbase + (bc / SS(fs)));
  402da8:	6a31      	ldr	r1, [r6, #32]
  402daa:	eb01 2158 	add.w	r1, r1, r8, lsr #9
  402dae:	4630      	mov	r0, r6
  402db0:	4b2f      	ldr	r3, [pc, #188]	; (402e70 <put_fat+0x130>)
  402db2:	4798      	blx	r3
			if (res != FR_OK) break;
  402db4:	2800      	cmp	r0, #0
  402db6:	d153      	bne.n	402e60 <put_fat+0x120>
			p = &fs->win[bc % SS(fs)];
  402db8:	f3c8 0808 	ubfx	r8, r8, #0, #9
			*p = (clst & 1) ? (BYTE)(val >> 4) : ((*p & 0xF0) | ((BYTE)(val >> 8) & 0x0F));
  402dbc:	f3c5 1207 	ubfx	r2, r5, #4, #8
  402dc0:	44b0      	add	r8, r6
  402dc2:	f888 2030 	strb.w	r2, [r8, #48]	; 0x30
			break;
  402dc6:	e7d0      	b.n	402d6a <put_fat+0x2a>
			*p = (clst & 1) ? ((*p & 0x0F) | ((BYTE)val << 4)) : (BYTE)val;
  402dc8:	4433      	add	r3, r6
  402dca:	f883 5030 	strb.w	r5, [r3, #48]	; 0x30
			bc++;
  402dce:	f108 0801 	add.w	r8, r8, #1
			fs->wflag = 1;
  402dd2:	2301      	movs	r3, #1
  402dd4:	7133      	strb	r3, [r6, #4]
			res = move_window(fs, fs->fatbase + (bc / SS(fs)));
  402dd6:	6a31      	ldr	r1, [r6, #32]
  402dd8:	eb01 2158 	add.w	r1, r1, r8, lsr #9
  402ddc:	4630      	mov	r0, r6
  402dde:	4b24      	ldr	r3, [pc, #144]	; (402e70 <put_fat+0x130>)
  402de0:	4798      	blx	r3
			if (res != FR_OK) break;
  402de2:	2800      	cmp	r0, #0
  402de4:	d13e      	bne.n	402e64 <put_fat+0x124>
			p = &fs->win[bc % SS(fs)];
  402de6:	f3c8 0808 	ubfx	r8, r8, #0, #9
			*p = (clst & 1) ? (BYTE)(val >> 4) : ((*p & 0xF0) | ((BYTE)(val >> 8) & 0x0F));
  402dea:	eb06 0308 	add.w	r3, r6, r8
  402dee:	f893 3030 	ldrb.w	r3, [r3, #48]	; 0x30
  402df2:	f023 030f 	bic.w	r3, r3, #15
  402df6:	f3c5 2203 	ubfx	r2, r5, #8, #4
  402dfa:	431a      	orrs	r2, r3
  402dfc:	e7e0      	b.n	402dc0 <put_fat+0x80>
			res = move_window(fs, fs->fatbase + (clst / (SS(fs) / 2)));
  402dfe:	6a01      	ldr	r1, [r0, #32]
  402e00:	eb01 2114 	add.w	r1, r1, r4, lsr #8
  402e04:	4b1a      	ldr	r3, [pc, #104]	; (402e70 <put_fat+0x130>)
  402e06:	4798      	blx	r3
			if (res != FR_OK) break;
  402e08:	4607      	mov	r7, r0
  402e0a:	2800      	cmp	r0, #0
  402e0c:	d1ad      	bne.n	402d6a <put_fat+0x2a>
			p = &fs->win[clst * 2 % SS(fs)];
  402e0e:	0063      	lsls	r3, r4, #1
  402e10:	f403 73ff 	and.w	r3, r3, #510	; 0x1fe
			ST_WORD(p, (WORD)val);
  402e14:	4433      	add	r3, r6
  402e16:	f883 5030 	strb.w	r5, [r3, #48]	; 0x30
  402e1a:	f3c5 2207 	ubfx	r2, r5, #8, #8
  402e1e:	f883 2031 	strb.w	r2, [r3, #49]	; 0x31
			break;
  402e22:	e7a2      	b.n	402d6a <put_fat+0x2a>
			res = move_window(fs, fs->fatbase + (clst / (SS(fs) / 4)));
  402e24:	6a01      	ldr	r1, [r0, #32]
  402e26:	eb01 11d4 	add.w	r1, r1, r4, lsr #7
  402e2a:	4b11      	ldr	r3, [pc, #68]	; (402e70 <put_fat+0x130>)
  402e2c:	4798      	blx	r3
			if (res != FR_OK) break;
  402e2e:	4607      	mov	r7, r0
  402e30:	2800      	cmp	r0, #0
  402e32:	d19a      	bne.n	402d6a <put_fat+0x2a>
			p = &fs->win[clst * 4 % SS(fs)];
  402e34:	00a1      	lsls	r1, r4, #2
  402e36:	f401 71fe 	and.w	r1, r1, #508	; 0x1fc
  402e3a:	f101 0330 	add.w	r3, r1, #48	; 0x30
  402e3e:	4433      	add	r3, r6
			val |= LD_DWORD(p) & 0xF0000000;
  402e40:	78da      	ldrb	r2, [r3, #3]
  402e42:	0612      	lsls	r2, r2, #24
  402e44:	4431      	add	r1, r6
  402e46:	f002 4270 	and.w	r2, r2, #4026531840	; 0xf0000000
  402e4a:	432a      	orrs	r2, r5
			ST_DWORD(p, val);
  402e4c:	f881 2030 	strb.w	r2, [r1, #48]	; 0x30
  402e50:	f3c2 2107 	ubfx	r1, r2, #8, #8
  402e54:	7059      	strb	r1, [r3, #1]
  402e56:	0c11      	lsrs	r1, r2, #16
  402e58:	7099      	strb	r1, [r3, #2]
  402e5a:	0e12      	lsrs	r2, r2, #24
  402e5c:	70da      	strb	r2, [r3, #3]
			break;
  402e5e:	e784      	b.n	402d6a <put_fat+0x2a>
			res = move_window(fs, fs->fatbase + (bc / SS(fs)));
  402e60:	4607      	mov	r7, r0
  402e62:	e782      	b.n	402d6a <put_fat+0x2a>
  402e64:	4607      	mov	r7, r0
  402e66:	e780      	b.n	402d6a <put_fat+0x2a>
		res = FR_INT_ERR;
  402e68:	2702      	movs	r7, #2
}
  402e6a:	4638      	mov	r0, r7
  402e6c:	e8bd 81f0 	ldmia.w	sp!, {r4, r5, r6, r7, r8, pc}
  402e70:	00402b25 	.word	0x00402b25

00402e74 <create_chain>:
{
  402e74:	e92d 41f0 	stmdb	sp!, {r4, r5, r6, r7, r8, lr}
  402e78:	4605      	mov	r5, r0
	if (clst == 0) {		/* Create a new chain */
  402e7a:	4688      	mov	r8, r1
  402e7c:	b941      	cbnz	r1, 402e90 <create_chain+0x1c>
		scl = fs->last_clust;			/* Get suggested start point */
  402e7e:	68c6      	ldr	r6, [r0, #12]
		if (!scl || scl >= fs->n_fatent) scl = 1;
  402e80:	b186      	cbz	r6, 402ea4 <create_chain+0x30>
  402e82:	6983      	ldr	r3, [r0, #24]
  402e84:	429e      	cmp	r6, r3
  402e86:	bf28      	it	cs
  402e88:	2601      	movcs	r6, #1
	ncl = scl;				/* Start cluster */
  402e8a:	4634      	mov	r4, r6
		cs = get_fat(fs, ncl);			/* Get the cluster status */
  402e8c:	4f27      	ldr	r7, [pc, #156]	; (402f2c <create_chain+0xb8>)
  402e8e:	e017      	b.n	402ec0 <create_chain+0x4c>
		cs = get_fat(fs, clst);			/* Check the cluster status */
  402e90:	4b26      	ldr	r3, [pc, #152]	; (402f2c <create_chain+0xb8>)
  402e92:	4798      	blx	r3
  402e94:	4603      	mov	r3, r0
		if (cs < 2) return 1;			/* It is an invalid cluster */
  402e96:	2801      	cmp	r0, #1
  402e98:	d93e      	bls.n	402f18 <create_chain+0xa4>
		if (cs < fs->n_fatent) return cs;	/* It is already followed by next cluster */
  402e9a:	69aa      	ldr	r2, [r5, #24]
  402e9c:	4290      	cmp	r0, r2
  402e9e:	d340      	bcc.n	402f22 <create_chain+0xae>
		scl = clst;
  402ea0:	4646      	mov	r6, r8
  402ea2:	e7f2      	b.n	402e8a <create_chain+0x16>
		if (!scl || scl >= fs->n_fatent) scl = 1;
  402ea4:	2601      	movs	r6, #1
  402ea6:	e7f0      	b.n	402e8a <create_chain+0x16>
		cs = get_fat(fs, ncl);			/* Get the cluster status */
  402ea8:	4621      	mov	r1, r4
  402eaa:	4628      	mov	r0, r5
  402eac:	47b8      	blx	r7
		if (cs == 0) break;				/* Found a free cluster */
  402eae:	4603      	mov	r3, r0
  402eb0:	b170      	cbz	r0, 402ed0 <create_chain+0x5c>
		if (cs == 0xFFFFFFFF || cs == 1)/* An error occurred */
  402eb2:	f1b0 3fff 	cmp.w	r0, #4294967295
  402eb6:	d034      	beq.n	402f22 <create_chain+0xae>
  402eb8:	2801      	cmp	r0, #1
  402eba:	d032      	beq.n	402f22 <create_chain+0xae>
		if (ncl == scl) return 0;		/* No free cluster */
  402ebc:	42b4      	cmp	r4, r6
  402ebe:	d02f      	beq.n	402f20 <create_chain+0xac>
		ncl++;							/* Next cluster */
  402ec0:	3401      	adds	r4, #1
		if (ncl >= fs->n_fatent) {		/* Wrap around */
  402ec2:	69ab      	ldr	r3, [r5, #24]
  402ec4:	429c      	cmp	r4, r3
  402ec6:	d3ef      	bcc.n	402ea8 <create_chain+0x34>
			if (ncl > scl) return 0;	/* No free cluster */
  402ec8:	2e01      	cmp	r6, #1
  402eca:	d927      	bls.n	402f1c <create_chain+0xa8>
			ncl = 2;
  402ecc:	2402      	movs	r4, #2
  402ece:	e7eb      	b.n	402ea8 <create_chain+0x34>
	res = put_fat(fs, ncl, 0x0FFFFFFF);	/* Mark the new cluster "last link" */
  402ed0:	f06f 4270 	mvn.w	r2, #4026531840	; 0xf0000000
  402ed4:	4621      	mov	r1, r4
  402ed6:	4628      	mov	r0, r5
  402ed8:	4b15      	ldr	r3, [pc, #84]	; (402f30 <create_chain+0xbc>)
  402eda:	4798      	blx	r3
	if (res == FR_OK && clst != 0) {
  402edc:	4603      	mov	r3, r0
  402ede:	b910      	cbnz	r0, 402ee6 <create_chain+0x72>
  402ee0:	f1b8 0f00 	cmp.w	r8, #0
  402ee4:	d10b      	bne.n	402efe <create_chain+0x8a>
	if (res == FR_OK) {
  402ee6:	b98b      	cbnz	r3, 402f0c <create_chain+0x98>
		fs->last_clust = ncl;			/* Update FSINFO */
  402ee8:	60ec      	str	r4, [r5, #12]
		if (fs->free_clust != 0xFFFFFFFF) {
  402eea:	692b      	ldr	r3, [r5, #16]
  402eec:	f1b3 3fff 	cmp.w	r3, #4294967295
  402ef0:	d01a      	beq.n	402f28 <create_chain+0xb4>
			fs->free_clust--;
  402ef2:	3b01      	subs	r3, #1
  402ef4:	612b      	str	r3, [r5, #16]
			fs->fsi_flag = 1;
  402ef6:	2301      	movs	r3, #1
  402ef8:	716b      	strb	r3, [r5, #5]
  402efa:	4623      	mov	r3, r4
  402efc:	e011      	b.n	402f22 <create_chain+0xae>
		res = put_fat(fs, clst, ncl);	/* Link it to the previous one if needed */
  402efe:	4622      	mov	r2, r4
  402f00:	4641      	mov	r1, r8
  402f02:	4628      	mov	r0, r5
  402f04:	4b0a      	ldr	r3, [pc, #40]	; (402f30 <create_chain+0xbc>)
  402f06:	4798      	blx	r3
  402f08:	4603      	mov	r3, r0
  402f0a:	e7ec      	b.n	402ee6 <create_chain+0x72>
		ncl = (res == FR_DISK_ERR) ? 0xFFFFFFFF : 1;
  402f0c:	2b01      	cmp	r3, #1
  402f0e:	bf0c      	ite	eq
  402f10:	f04f 33ff 	moveq.w	r3, #4294967295
  402f14:	2301      	movne	r3, #1
  402f16:	e004      	b.n	402f22 <create_chain+0xae>
		if (cs < 2) return 1;			/* It is an invalid cluster */
  402f18:	2301      	movs	r3, #1
  402f1a:	e002      	b.n	402f22 <create_chain+0xae>
			if (ncl > scl) return 0;	/* No free cluster */
  402f1c:	2300      	movs	r3, #0
  402f1e:	e000      	b.n	402f22 <create_chain+0xae>
		if (ncl == scl) return 0;		/* No free cluster */
  402f20:	2300      	movs	r3, #0
}
  402f22:	4618      	mov	r0, r3
  402f24:	e8bd 81f0 	ldmia.w	sp!, {r4, r5, r6, r7, r8, pc}
  402f28:	4623      	mov	r3, r4
  402f2a:	e7fa      	b.n	402f22 <create_chain+0xae>
  402f2c:	00402bb5 	.word	0x00402bb5
  402f30:	00402d41 	.word	0x00402d41

00402f34 <remove_chain>:
	if (clst < 2 || clst >= fs->n_fatent) {	/* Check range */
  402f34:	2901      	cmp	r1, #1
  402f36:	d92e      	bls.n	402f96 <remove_chain+0x62>
{
  402f38:	e92d 43f8 	stmdb	sp!, {r3, r4, r5, r6, r7, r8, r9, lr}
  402f3c:	4604      	mov	r4, r0
  402f3e:	460e      	mov	r6, r1
	if (clst < 2 || clst >= fs->n_fatent) {	/* Check range */
  402f40:	6983      	ldr	r3, [r0, #24]
  402f42:	4299      	cmp	r1, r3
  402f44:	d303      	bcc.n	402f4e <remove_chain+0x1a>
		res = FR_INT_ERR;
  402f46:	2202      	movs	r2, #2
}
  402f48:	4610      	mov	r0, r2
  402f4a:	e8bd 83f8 	ldmia.w	sp!, {r3, r4, r5, r6, r7, r8, r9, pc}
			nxt = get_fat(fs, clst);			/* Get cluster status */
  402f4e:	4f16      	ldr	r7, [pc, #88]	; (402fa8 <remove_chain+0x74>)
			res = put_fat(fs, clst, 0);			/* Mark the cluster "empty" */
  402f50:	f04f 0900 	mov.w	r9, #0
  402f54:	f8df 8054 	ldr.w	r8, [pc, #84]	; 402fac <remove_chain+0x78>
  402f58:	e003      	b.n	402f62 <remove_chain+0x2e>
  402f5a:	462e      	mov	r6, r5
		while (clst < fs->n_fatent) {			/* Not a last link? */
  402f5c:	69a3      	ldr	r3, [r4, #24]
  402f5e:	42ab      	cmp	r3, r5
  402f60:	d9f2      	bls.n	402f48 <remove_chain+0x14>
			nxt = get_fat(fs, clst);			/* Get cluster status */
  402f62:	4631      	mov	r1, r6
  402f64:	4620      	mov	r0, r4
  402f66:	47b8      	blx	r7
			if (nxt == 0) break;				/* Empty cluster? */
  402f68:	4605      	mov	r5, r0
  402f6a:	b1b8      	cbz	r0, 402f9c <remove_chain+0x68>
			if (nxt == 1) { res = FR_INT_ERR; break; }	/* Internal error? */
  402f6c:	2801      	cmp	r0, #1
  402f6e:	d017      	beq.n	402fa0 <remove_chain+0x6c>
			if (nxt == 0xFFFFFFFF) { res = FR_DISK_ERR; break; }	/* Disk error? */
  402f70:	f1b0 3fff 	cmp.w	r0, #4294967295
  402f74:	d016      	beq.n	402fa4 <remove_chain+0x70>
			res = put_fat(fs, clst, 0);			/* Mark the cluster "empty" */
  402f76:	464a      	mov	r2, r9
  402f78:	4631      	mov	r1, r6
  402f7a:	4620      	mov	r0, r4
  402f7c:	47c0      	blx	r8
			if (res != FR_OK) break;
  402f7e:	4602      	mov	r2, r0
  402f80:	2800      	cmp	r0, #0
  402f82:	d1e1      	bne.n	402f48 <remove_chain+0x14>
			if (fs->free_clust != 0xFFFFFFFF) {	/* Update FSInfo */
  402f84:	6923      	ldr	r3, [r4, #16]
  402f86:	f1b3 3fff 	cmp.w	r3, #4294967295
  402f8a:	d0e6      	beq.n	402f5a <remove_chain+0x26>
				fs->free_clust++;
  402f8c:	3301      	adds	r3, #1
  402f8e:	6123      	str	r3, [r4, #16]
				fs->fsi_flag = 1;
  402f90:	2301      	movs	r3, #1
  402f92:	7163      	strb	r3, [r4, #5]
  402f94:	e7e1      	b.n	402f5a <remove_chain+0x26>
		res = FR_INT_ERR;
  402f96:	2202      	movs	r2, #2
}
  402f98:	4610      	mov	r0, r2
  402f9a:	4770      	bx	lr
  402f9c:	2200      	movs	r2, #0
  402f9e:	e7d3      	b.n	402f48 <remove_chain+0x14>
			if (nxt == 1) { res = FR_INT_ERR; break; }	/* Internal error? */
  402fa0:	2202      	movs	r2, #2
  402fa2:	e7d1      	b.n	402f48 <remove_chain+0x14>
			if (nxt == 0xFFFFFFFF) { res = FR_DISK_ERR; break; }	/* Disk error? */
  402fa4:	2201      	movs	r2, #1
  402fa6:	e7cf      	b.n	402f48 <remove_chain+0x14>
  402fa8:	00402bb5 	.word	0x00402bb5
  402fac:	00402d41 	.word	0x00402d41

00402fb0 <dir_next>:
{
  402fb0:	e92d 4ff8 	stmdb	sp!, {r3, r4, r5, r6, r7, r8, r9, sl, fp, lr}
	i = dj->index + 1;
  402fb4:	88c4      	ldrh	r4, [r0, #6]
  402fb6:	3401      	adds	r4, #1
  402fb8:	b2a4      	uxth	r4, r4
	if (!i || !dj->sect)	/* Report EOT when index has reached 65535 */
  402fba:	b914      	cbnz	r4, 402fc2 <dir_next+0x12>
		return FR_NO_FILE;
  402fbc:	2004      	movs	r0, #4
  402fbe:	e8bd 8ff8 	ldmia.w	sp!, {r3, r4, r5, r6, r7, r8, r9, sl, fp, pc}
	if (!i || !dj->sect)	/* Report EOT when index has reached 65535 */
  402fc2:	6903      	ldr	r3, [r0, #16]
  402fc4:	b913      	cbnz	r3, 402fcc <dir_next+0x1c>
		return FR_NO_FILE;
  402fc6:	2004      	movs	r0, #4
  402fc8:	e8bd 8ff8 	ldmia.w	sp!, {r3, r4, r5, r6, r7, r8, r9, sl, fp, pc}
  402fcc:	460e      	mov	r6, r1
  402fce:	4605      	mov	r5, r0
	if (!(i % (SS(dj->fs) / SZ_DIR))) {	/* Sector changed? */
  402fd0:	f014 070f 	ands.w	r7, r4, #15
  402fd4:	d110      	bne.n	402ff8 <dir_next+0x48>
		dj->sect++;					/* Next sector */
  402fd6:	3301      	adds	r3, #1
  402fd8:	6103      	str	r3, [r0, #16]
		if (dj->clust == 0) {	/* Static table */
  402fda:	68c1      	ldr	r1, [r0, #12]
  402fdc:	b931      	cbnz	r1, 402fec <dir_next+0x3c>
			if (i >= dj->fs->n_rootdir)	/* Report EOT when end of table */
  402fde:	6803      	ldr	r3, [r0, #0]
  402fe0:	891b      	ldrh	r3, [r3, #8]
  402fe2:	42a3      	cmp	r3, r4
  402fe4:	d808      	bhi.n	402ff8 <dir_next+0x48>
				return FR_NO_FILE;
  402fe6:	2004      	movs	r0, #4
  402fe8:	e8bd 8ff8 	ldmia.w	sp!, {r3, r4, r5, r6, r7, r8, r9, sl, fp, pc}
			if (((i / (SS(dj->fs) / SZ_DIR)) & (dj->fs->csize - 1)) == 0) {	/* Cluster changed? */
  402fec:	6800      	ldr	r0, [r0, #0]
  402fee:	7883      	ldrb	r3, [r0, #2]
  402ff0:	3b01      	subs	r3, #1
  402ff2:	ea13 1314 	ands.w	r3, r3, r4, lsr #4
  402ff6:	d008      	beq.n	40300a <dir_next+0x5a>
	dj->index = i;
  402ff8:	80ec      	strh	r4, [r5, #6]
	dj->dir = dj->fs->win + (i % (SS(dj->fs) / SZ_DIR)) * SZ_DIR;
  402ffa:	682b      	ldr	r3, [r5, #0]
  402ffc:	3330      	adds	r3, #48	; 0x30
  402ffe:	eb03 1347 	add.w	r3, r3, r7, lsl #5
  403002:	616b      	str	r3, [r5, #20]
	return FR_OK;
  403004:	2000      	movs	r0, #0
  403006:	e8bd 8ff8 	ldmia.w	sp!, {r3, r4, r5, r6, r7, r8, r9, sl, fp, pc}
				clst = get_fat(dj->fs, dj->clust);				/* Get next cluster */
  40300a:	4b32      	ldr	r3, [pc, #200]	; (4030d4 <dir_next+0x124>)
  40300c:	4798      	blx	r3
  40300e:	4680      	mov	r8, r0
				if (clst <= 1) return FR_INT_ERR;
  403010:	2801      	cmp	r0, #1
  403012:	d94d      	bls.n	4030b0 <dir_next+0x100>
				if (clst == 0xFFFFFFFF) return FR_DISK_ERR;
  403014:	f1b0 3fff 	cmp.w	r0, #4294967295
  403018:	d04d      	beq.n	4030b6 <dir_next+0x106>
				if (clst >= dj->fs->n_fatent) {					/* When it reached end of dynamic table */
  40301a:	6828      	ldr	r0, [r5, #0]
  40301c:	6983      	ldr	r3, [r0, #24]
  40301e:	4598      	cmp	r8, r3
  403020:	d33e      	bcc.n	4030a0 <dir_next+0xf0>
					if (!stretch) return FR_NO_FILE;			/* When do not stretch, report EOT */
  403022:	b916      	cbnz	r6, 40302a <dir_next+0x7a>
  403024:	2004      	movs	r0, #4
  403026:	e8bd 8ff8 	ldmia.w	sp!, {r3, r4, r5, r6, r7, r8, r9, sl, fp, pc}
					clst = create_chain(dj->fs, dj->clust);		/* Stretch cluster chain */
  40302a:	68e9      	ldr	r1, [r5, #12]
  40302c:	4b2a      	ldr	r3, [pc, #168]	; (4030d8 <dir_next+0x128>)
  40302e:	4798      	blx	r3
					if (clst == 0) return FR_DENIED;			/* No free cluster */
  403030:	4680      	mov	r8, r0
  403032:	b910      	cbnz	r0, 40303a <dir_next+0x8a>
  403034:	2007      	movs	r0, #7
  403036:	e8bd 8ff8 	ldmia.w	sp!, {r3, r4, r5, r6, r7, r8, r9, sl, fp, pc}
					if (clst == 1) return FR_INT_ERR;
  40303a:	2801      	cmp	r0, #1
  40303c:	d03e      	beq.n	4030bc <dir_next+0x10c>
					if (clst == 0xFFFFFFFF) return FR_DISK_ERR;
  40303e:	f1b0 3fff 	cmp.w	r0, #4294967295
  403042:	d03e      	beq.n	4030c2 <dir_next+0x112>
					if (move_window(dj->fs, 0)) return FR_DISK_ERR;	/* Flush active window */
  403044:	2100      	movs	r1, #0
  403046:	6828      	ldr	r0, [r5, #0]
  403048:	4b24      	ldr	r3, [pc, #144]	; (4030dc <dir_next+0x12c>)
  40304a:	4798      	blx	r3
  40304c:	2800      	cmp	r0, #0
  40304e:	d13b      	bne.n	4030c8 <dir_next+0x118>
					mem_set(dj->fs->win, 0, SS(dj->fs));			/* Clear window buffer */
  403050:	6828      	ldr	r0, [r5, #0]
  403052:	f44f 7200 	mov.w	r2, #512	; 0x200
  403056:	2100      	movs	r1, #0
  403058:	3030      	adds	r0, #48	; 0x30
  40305a:	4b21      	ldr	r3, [pc, #132]	; (4030e0 <dir_next+0x130>)
  40305c:	4798      	blx	r3
					dj->fs->winsect = clust2sect(dj->fs, clst);	/* Cluster start sector */
  40305e:	682e      	ldr	r6, [r5, #0]
  403060:	4641      	mov	r1, r8
  403062:	4630      	mov	r0, r6
  403064:	4b1f      	ldr	r3, [pc, #124]	; (4030e4 <dir_next+0x134>)
  403066:	4798      	blx	r3
  403068:	62f0      	str	r0, [r6, #44]	; 0x2c
					for (c = 0; c < dj->fs->csize; c++) {		/* Fill the new cluster with 0 */
  40306a:	2600      	movs	r6, #0
						dj->fs->wflag = 1;
  40306c:	f04f 0b01 	mov.w	fp, #1
						if (move_window(dj->fs, 0)) return FR_DISK_ERR;
  403070:	46b2      	mov	sl, r6
  403072:	f8df 9068 	ldr.w	r9, [pc, #104]	; 4030dc <dir_next+0x12c>
					for (c = 0; c < dj->fs->csize; c++) {		/* Fill the new cluster with 0 */
  403076:	682b      	ldr	r3, [r5, #0]
  403078:	7899      	ldrb	r1, [r3, #2]
  40307a:	b2f2      	uxtb	r2, r6
  40307c:	4291      	cmp	r1, r2
  40307e:	d90b      	bls.n	403098 <dir_next+0xe8>
						dj->fs->wflag = 1;
  403080:	f883 b004 	strb.w	fp, [r3, #4]
						if (move_window(dj->fs, 0)) return FR_DISK_ERR;
  403084:	4651      	mov	r1, sl
  403086:	6828      	ldr	r0, [r5, #0]
  403088:	47c8      	blx	r9
  40308a:	3601      	adds	r6, #1
  40308c:	b9f8      	cbnz	r0, 4030ce <dir_next+0x11e>
						dj->fs->winsect++;
  40308e:	682a      	ldr	r2, [r5, #0]
  403090:	6ad3      	ldr	r3, [r2, #44]	; 0x2c
  403092:	3301      	adds	r3, #1
  403094:	62d3      	str	r3, [r2, #44]	; 0x2c
  403096:	e7ee      	b.n	403076 <dir_next+0xc6>
					dj->fs->winsect -= c;						/* Rewind window address */
  403098:	4616      	mov	r6, r2
  40309a:	6ada      	ldr	r2, [r3, #44]	; 0x2c
  40309c:	1b96      	subs	r6, r2, r6
  40309e:	62de      	str	r6, [r3, #44]	; 0x2c
				dj->clust = clst;				/* Initialize data for new cluster */
  4030a0:	f8c5 800c 	str.w	r8, [r5, #12]
				dj->sect = clust2sect(dj->fs, clst);
  4030a4:	4641      	mov	r1, r8
  4030a6:	6828      	ldr	r0, [r5, #0]
  4030a8:	4b0e      	ldr	r3, [pc, #56]	; (4030e4 <dir_next+0x134>)
  4030aa:	4798      	blx	r3
  4030ac:	6128      	str	r0, [r5, #16]
  4030ae:	e7a3      	b.n	402ff8 <dir_next+0x48>
				if (clst <= 1) return FR_INT_ERR;
  4030b0:	2002      	movs	r0, #2
  4030b2:	e8bd 8ff8 	ldmia.w	sp!, {r3, r4, r5, r6, r7, r8, r9, sl, fp, pc}
				if (clst == 0xFFFFFFFF) return FR_DISK_ERR;
  4030b6:	2001      	movs	r0, #1
  4030b8:	e8bd 8ff8 	ldmia.w	sp!, {r3, r4, r5, r6, r7, r8, r9, sl, fp, pc}
					if (clst == 1) return FR_INT_ERR;
  4030bc:	2002      	movs	r0, #2
  4030be:	e8bd 8ff8 	ldmia.w	sp!, {r3, r4, r5, r6, r7, r8, r9, sl, fp, pc}
					if (clst == 0xFFFFFFFF) return FR_DISK_ERR;
  4030c2:	2001      	movs	r0, #1
  4030c4:	e8bd 8ff8 	ldmia.w	sp!, {r3, r4, r5, r6, r7, r8, r9, sl, fp, pc}
					if (move_window(dj->fs, 0)) return FR_DISK_ERR;	/* Flush active window */
  4030c8:	2001      	movs	r0, #1
  4030ca:	e8bd 8ff8 	ldmia.w	sp!, {r3, r4, r5, r6, r7, r8, r9, sl, fp, pc}
						if (move_window(dj->fs, 0)) return FR_DISK_ERR;
  4030ce:	2001      	movs	r0, #1
}
  4030d0:	e8bd 8ff8 	ldmia.w	sp!, {r3, r4, r5, r6, r7, r8, r9, sl, fp, pc}
  4030d4:	00402bb5 	.word	0x00402bb5
  4030d8:	00402e75 	.word	0x00402e75
  4030dc:	00402b25 	.word	0x00402b25
  4030e0:	004026ad 	.word	0x004026ad
  4030e4:	004026bb 	.word	0x004026bb

004030e8 <dir_find>:
{
  4030e8:	e92d 4ff0 	stmdb	sp!, {r4, r5, r6, r7, r8, r9, sl, fp, lr}
  4030ec:	b085      	sub	sp, #20
  4030ee:	4605      	mov	r5, r0
	res = dir_sdi(dj, 0);			/* Rewind directory object */
  4030f0:	2100      	movs	r1, #0
  4030f2:	4b61      	ldr	r3, [pc, #388]	; (403278 <dir_find+0x190>)
  4030f4:	4798      	blx	r3
	if (res != FR_OK) return res;
  4030f6:	4680      	mov	r8, r0
  4030f8:	bb08      	cbnz	r0, 40313e <dir_find+0x56>
  4030fa:	f04f 0bff 	mov.w	fp, #255	; 0xff
  4030fe:	46d9      	mov	r9, fp
		res = move_window(dj->fs, dj->sect);
  403100:	4f5e      	ldr	r7, [pc, #376]	; (40327c <dir_find+0x194>)
			wc = ff_wtoupper(uc);		/* Convert it to upper case */
  403102:	46da      	mov	sl, fp
  403104:	e094      	b.n	403230 <dir_find+0x148>
			if (a == AM_LFN) {			/* An LFN entry is found */
  403106:	2a0f      	cmp	r2, #15
  403108:	d01d      	beq.n	403146 <dir_find+0x5e>
				if (!ord && sum == sum_sfn(dir)) break;	/* LFN matched? */
  40310a:	f1b9 0f00 	cmp.w	r9, #0
  40310e:	d104      	bne.n	40311a <dir_find+0x32>
  403110:	4620      	mov	r0, r4
  403112:	4b5b      	ldr	r3, [pc, #364]	; (403280 <dir_find+0x198>)
  403114:	4798      	blx	r3
  403116:	4582      	cmp	sl, r0
  403118:	d011      	beq.n	40313e <dir_find+0x56>
				ord = 0xFF; dj->lfn_idx = 0xFFFF;	/* Reset LFN sequence */
  40311a:	f64f 73ff 	movw	r3, #65535	; 0xffff
  40311e:	842b      	strh	r3, [r5, #32]
				if (!(dj->fn[NS] & NS_LOSS) && !mem_cmp(dir, dj->fn, 11)) break;	/* SFN matched? */
  403120:	69ab      	ldr	r3, [r5, #24]
  403122:	7ada      	ldrb	r2, [r3, #11]
  403124:	f012 0f01 	tst.w	r2, #1
  403128:	d179      	bne.n	40321e <dir_find+0x136>
  40312a:	f104 000b 	add.w	r0, r4, #11
	while (cnt-- && (r = *d++ - *s++) == 0) ;
  40312e:	f814 1b01 	ldrb.w	r1, [r4], #1
  403132:	f813 2b01 	ldrb.w	r2, [r3], #1
  403136:	4291      	cmp	r1, r2
  403138:	d16b      	bne.n	403212 <dir_find+0x12a>
  40313a:	4284      	cmp	r4, r0
  40313c:	d1f7      	bne.n	40312e <dir_find+0x46>
}
  40313e:	4640      	mov	r0, r8
  403140:	b005      	add	sp, #20
  403142:	e8bd 8ff0 	ldmia.w	sp!, {r4, r5, r6, r7, r8, r9, sl, fp, pc}
				if (dj->lfn) {
  403146:	f8d5 801c 	ldr.w	r8, [r5, #28]
  40314a:	f1b8 0f00 	cmp.w	r8, #0
  40314e:	d068      	beq.n	403222 <dir_find+0x13a>
					if (c & LLE) {		/* Is it start of LFN sequence? */
  403150:	f016 0f40 	tst.w	r6, #64	; 0x40
  403154:	d00c      	beq.n	403170 <dir_find+0x88>
						sum = dir[LDIR_Chksum];
  403156:	f894 a00d 	ldrb.w	sl, [r4, #13]
						c &= ~LLE; ord = c;	/* LFN start order */
  40315a:	f006 06bf 	and.w	r6, r6, #191	; 0xbf
						dj->lfn_idx = dj->index;
  40315e:	88eb      	ldrh	r3, [r5, #6]
  403160:	842b      	strh	r3, [r5, #32]
					ord = (c == ord && sum == dir[LDIR_Chksum] && cmp_lfn(dj->lfn, dir)) ? ord - 1 : 0xFF;
  403162:	f894 b00d 	ldrb.w	fp, [r4, #13]
  403166:	45d3      	cmp	fp, sl
  403168:	d007      	beq.n	40317a <dir_find+0x92>
  40316a:	f04f 09ff 	mov.w	r9, #255	; 0xff
  40316e:	e058      	b.n	403222 <dir_find+0x13a>
  403170:	45b1      	cmp	r9, r6
  403172:	d0f6      	beq.n	403162 <dir_find+0x7a>
  403174:	f04f 09ff 	mov.w	r9, #255	; 0xff
  403178:	e053      	b.n	403222 <dir_find+0x13a>
	i = ((dir[LDIR_Ord] & ~LLE) - 1) * 13;	/* Get offset in the LFN buffer */
  40317a:	f894 a000 	ldrb.w	sl, [r4]
  40317e:	f02a 0a40 	bic.w	sl, sl, #64	; 0x40
  403182:	f10a 3aff 	add.w	sl, sl, #4294967295
  403186:	eb0a 034a 	add.w	r3, sl, sl, lsl #1
  40318a:	eb0a 0383 	add.w	r3, sl, r3, lsl #2
  40318e:	f8df 90fc 	ldr.w	r9, [pc, #252]	; 40328c <dir_find+0x1a4>
  403192:	f109 0a0d 	add.w	sl, r9, #13
	s = 0; wc = 1;
  403196:	2001      	movs	r0, #1
			if (uc != 0xFFFF) return 0;	/* Check filler */
  403198:	9603      	str	r6, [sp, #12]
  40319a:	f8cd b004 	str.w	fp, [sp, #4]
  40319e:	461e      	mov	r6, r3
  4031a0:	9502      	str	r5, [sp, #8]
  4031a2:	e00f      	b.n	4031c4 <dir_find+0xdc>
			wc = ff_wtoupper(uc);		/* Convert it to upper case */
  4031a4:	4618      	mov	r0, r3
  4031a6:	4b37      	ldr	r3, [pc, #220]	; (403284 <dir_find+0x19c>)
  4031a8:	4798      	blx	r3
  4031aa:	4683      	mov	fp, r0
			if (i >= _MAX_LFN || wc != ff_wtoupper(lfnbuf[i++]))	/* Compare it */
  4031ac:	2efe      	cmp	r6, #254	; 0xfe
  4031ae:	d85a      	bhi.n	403266 <dir_find+0x17e>
  4031b0:	1c75      	adds	r5, r6, #1
  4031b2:	f838 0016 	ldrh.w	r0, [r8, r6, lsl #1]
  4031b6:	4b33      	ldr	r3, [pc, #204]	; (403284 <dir_find+0x19c>)
  4031b8:	4798      	blx	r3
  4031ba:	4583      	cmp	fp, r0
  4031bc:	d157      	bne.n	40326e <dir_find+0x186>
  4031be:	462e      	mov	r6, r5
	} while (++s < 13);				/* Repeat until all chars in the entry are checked */
  4031c0:	45d1      	cmp	r9, sl
  4031c2:	d013      	beq.n	4031ec <dir_find+0x104>
		uc = LD_WORD(dir+LfnOfs[s]);	/* Pick an LFN character from the entry */
  4031c4:	f819 2b01 	ldrb.w	r2, [r9], #1
  4031c8:	18a3      	adds	r3, r4, r2
  4031ca:	7859      	ldrb	r1, [r3, #1]
  4031cc:	5ca3      	ldrb	r3, [r4, r2]
  4031ce:	ea43 2301 	orr.w	r3, r3, r1, lsl #8
		if (wc) {	/* Last char has not been processed */
  4031d2:	2800      	cmp	r0, #0
  4031d4:	d1e6      	bne.n	4031a4 <dir_find+0xbc>
			if (uc != 0xFFFF) return 0;	/* Check filler */
  4031d6:	f64f 72ff 	movw	r2, #65535	; 0xffff
  4031da:	4293      	cmp	r3, r2
  4031dc:	d0f0      	beq.n	4031c0 <dir_find+0xd8>
  4031de:	f8dd b004 	ldr.w	fp, [sp, #4]
  4031e2:	9d02      	ldr	r5, [sp, #8]
				ord = 0xFF; dj->lfn_idx = 0xFFFF;	/* Reset LFN sequence */
  4031e4:	46da      	mov	sl, fp
					ord = (c == ord && sum == dir[LDIR_Chksum] && cmp_lfn(dj->lfn, dir)) ? ord - 1 : 0xFF;
  4031e6:	f04f 09ff 	mov.w	r9, #255	; 0xff
  4031ea:	e01a      	b.n	403222 <dir_find+0x13a>
  4031ec:	f8dd b004 	ldr.w	fp, [sp, #4]
  4031f0:	4632      	mov	r2, r6
  4031f2:	9e03      	ldr	r6, [sp, #12]
  4031f4:	9d02      	ldr	r5, [sp, #8]
	if ((dir[LDIR_Ord] & LLE) && wc && lfnbuf[i])	/* Last segment matched but different length */
  4031f6:	7823      	ldrb	r3, [r4, #0]
  4031f8:	f013 0f40 	tst.w	r3, #64	; 0x40
  4031fc:	d004      	beq.n	403208 <dir_find+0x120>
  4031fe:	b118      	cbz	r0, 403208 <dir_find+0x120>
  403200:	f838 3012 	ldrh.w	r3, [r8, r2, lsl #1]
  403204:	2b00      	cmp	r3, #0
  403206:	d1ed      	bne.n	4031e4 <dir_find+0xfc>
					ord = (c == ord && sum == dir[LDIR_Chksum] && cmp_lfn(dj->lfn, dir)) ? ord - 1 : 0xFF;
  403208:	3e01      	subs	r6, #1
  40320a:	fa5f f986 	uxtb.w	r9, r6
  40320e:	46da      	mov	sl, fp
  403210:	e007      	b.n	403222 <dir_find+0x13a>
				ord = 0xFF; dj->lfn_idx = 0xFFFF;	/* Reset LFN sequence */
  403212:	f04f 09ff 	mov.w	r9, #255	; 0xff
  403216:	e004      	b.n	403222 <dir_find+0x13a>
			ord = 0xFF;
  403218:	f04f 09ff 	mov.w	r9, #255	; 0xff
  40321c:	e001      	b.n	403222 <dir_find+0x13a>
				ord = 0xFF; dj->lfn_idx = 0xFFFF;	/* Reset LFN sequence */
  40321e:	f04f 09ff 	mov.w	r9, #255	; 0xff
		res = dir_next(dj, 0);		/* Next entry */
  403222:	2100      	movs	r1, #0
  403224:	4628      	mov	r0, r5
  403226:	4b18      	ldr	r3, [pc, #96]	; (403288 <dir_find+0x1a0>)
  403228:	4798      	blx	r3
	} while (res == FR_OK);
  40322a:	4680      	mov	r8, r0
  40322c:	2800      	cmp	r0, #0
  40322e:	d186      	bne.n	40313e <dir_find+0x56>
		res = move_window(dj->fs, dj->sect);
  403230:	6929      	ldr	r1, [r5, #16]
  403232:	6828      	ldr	r0, [r5, #0]
  403234:	47b8      	blx	r7
		if (res != FR_OK) break;
  403236:	4680      	mov	r8, r0
  403238:	2800      	cmp	r0, #0
  40323a:	d180      	bne.n	40313e <dir_find+0x56>
		dir = dj->dir;					/* Ptr to the directory entry of current index */
  40323c:	696c      	ldr	r4, [r5, #20]
		c = dir[DIR_Name];
  40323e:	7826      	ldrb	r6, [r4, #0]
		if (c == 0) { res = FR_NO_FILE; break; }	/* Reached to end of table */
  403240:	b176      	cbz	r6, 403260 <dir_find+0x178>
		a = dir[DIR_Attr] & AM_MASK;
  403242:	7ae3      	ldrb	r3, [r4, #11]
  403244:	f003 023f 	and.w	r2, r3, #63	; 0x3f
		if (c == DDE || ((a & AM_VOL) && a != AM_LFN)) {	/* An entry without valid data */
  403248:	2ee5      	cmp	r6, #229	; 0xe5
  40324a:	d0e5      	beq.n	403218 <dir_find+0x130>
  40324c:	f013 0f08 	tst.w	r3, #8
  403250:	f43f af59 	beq.w	403106 <dir_find+0x1e>
  403254:	2a0f      	cmp	r2, #15
  403256:	f43f af56 	beq.w	403106 <dir_find+0x1e>
			ord = 0xFF;
  40325a:	f04f 09ff 	mov.w	r9, #255	; 0xff
  40325e:	e7e0      	b.n	403222 <dir_find+0x13a>
		if (c == 0) { res = FR_NO_FILE; break; }	/* Reached to end of table */
  403260:	f04f 0804 	mov.w	r8, #4
  403264:	e76b      	b.n	40313e <dir_find+0x56>
  403266:	f8dd b004 	ldr.w	fp, [sp, #4]
  40326a:	9d02      	ldr	r5, [sp, #8]
  40326c:	e7ba      	b.n	4031e4 <dir_find+0xfc>
  40326e:	f8dd b004 	ldr.w	fp, [sp, #4]
  403272:	9d02      	ldr	r5, [sp, #8]
  403274:	e7b6      	b.n	4031e4 <dir_find+0xfc>
  403276:	bf00      	nop
  403278:	00402c9d 	.word	0x00402c9d
  40327c:	00402b25 	.word	0x00402b25
  403280:	004026d3 	.word	0x004026d3
  403284:	004042c9 	.word	0x004042c9
  403288:	00402fb1 	.word	0x00402fb1
  40328c:	004098a0 	.word	0x004098a0

00403290 <dir_register>:
{
  403290:	e92d 4ff0 	stmdb	sp!, {r4, r5, r6, r7, r8, r9, sl, fp, lr}
  403294:	b089      	sub	sp, #36	; 0x24
  403296:	4604      	mov	r4, r0
	fn = dj->fn; lfn = dj->lfn;
  403298:	6985      	ldr	r5, [r0, #24]
  40329a:	f8d0 b01c 	ldr.w	fp, [r0, #28]
	mem_cpy(sn, fn, 12);
  40329e:	220c      	movs	r2, #12
  4032a0:	4629      	mov	r1, r5
  4032a2:	a805      	add	r0, sp, #20
  4032a4:	4ba8      	ldr	r3, [pc, #672]	; (403548 <dir_register+0x2b8>)
  4032a6:	4798      	blx	r3
	if (sn[NS] & NS_LOSS) {			/* When LFN is out of 8.3 format, generate a numbered name */
  4032a8:	f89d 301f 	ldrb.w	r3, [sp, #31]
  4032ac:	f013 0f01 	tst.w	r3, #1
  4032b0:	d079      	beq.n	4033a6 <dir_register+0x116>
		fn[NS] = 0; dj->lfn = 0;			/* Find only SFN */
  4032b2:	2300      	movs	r3, #0
  4032b4:	72eb      	strb	r3, [r5, #11]
  4032b6:	61e3      	str	r3, [r4, #28]
	mem_cpy(dst, src, 11);
  4032b8:	220b      	movs	r2, #11
  4032ba:	a905      	add	r1, sp, #20
  4032bc:	4628      	mov	r0, r5
  4032be:	4ba2      	ldr	r3, [pc, #648]	; (403548 <dir_register+0x2b8>)
  4032c0:	4798      	blx	r3
		for (n = 1; n < 100; n++) {
  4032c2:	2701      	movs	r7, #1
  4032c4:	463b      	mov	r3, r7
		dst[j++] = (i < 8) ? ns[i++] : ' ';
  4032c6:	f04f 0820 	mov.w	r8, #32
			res = dir_find(dj);				/* Check if the name collides with existing SFN */
  4032ca:	f8df 929c 	ldr.w	r9, [pc, #668]	; 403568 <dir_register+0x2d8>
	mem_cpy(dst, src, 11);
  4032ce:	f8df a278 	ldr.w	sl, [pc, #632]	; 403548 <dir_register+0x2b8>
  4032d2:	e032      	b.n	40333a <dir_register+0xaa>
		for (n = 1; n < 100; n++) {
  4032d4:	463b      	mov	r3, r7
  4032d6:	e030      	b.n	40333a <dir_register+0xaa>
	for (j = 0; j < i && dst[j] != ' '; j++) {
  4032d8:	4613      	mov	r3, r2
  4032da:	e002      	b.n	4032e2 <dir_register+0x52>
  4032dc:	2300      	movs	r3, #0
  4032de:	e000      	b.n	4032e2 <dir_register+0x52>
  4032e0:	4613      	mov	r3, r2
  4032e2:	442b      	add	r3, r5
  4032e4:	e005      	b.n	4032f2 <dir_register+0x62>
		dst[j++] = (i < 8) ? ns[i++] : ' ';
  4032e6:	4641      	mov	r1, r8
  4032e8:	f803 1b01 	strb.w	r1, [r3], #1
	} while (j < 8);
  4032ec:	1b59      	subs	r1, r3, r5
  4032ee:	2907      	cmp	r1, #7
  4032f0:	d807      	bhi.n	403302 <dir_register+0x72>
		dst[j++] = (i < 8) ? ns[i++] : ' ';
  4032f2:	2a07      	cmp	r2, #7
  4032f4:	d8f7      	bhi.n	4032e6 <dir_register+0x56>
  4032f6:	a908      	add	r1, sp, #32
  4032f8:	4411      	add	r1, r2
  4032fa:	f811 1c14 	ldrb.w	r1, [r1, #-20]
  4032fe:	3201      	adds	r2, #1
  403300:	e7f2      	b.n	4032e8 <dir_register+0x58>
			res = dir_find(dj);				/* Check if the name collides with existing SFN */
  403302:	4620      	mov	r0, r4
  403304:	47c8      	blx	r9
			if (res != FR_OK) break;
  403306:	4606      	mov	r6, r0
  403308:	2800      	cmp	r0, #0
  40330a:	d13e      	bne.n	40338a <dir_register+0xfa>
		for (n = 1; n < 100; n++) {
  40330c:	3701      	adds	r7, #1
  40330e:	b2bf      	uxth	r7, r7
  403310:	2f64      	cmp	r7, #100	; 0x64
  403312:	d038      	beq.n	403386 <dir_register+0xf6>
	mem_cpy(dst, src, 11);
  403314:	220b      	movs	r2, #11
  403316:	a905      	add	r1, sp, #20
  403318:	4628      	mov	r0, r5
  40331a:	47d0      	blx	sl
	if (seq > 5) {	/* On many collisions, generate a hash number instead of sequential number */
  40331c:	2f05      	cmp	r7, #5
  40331e:	d9d9      	bls.n	4032d4 <dir_register+0x44>
  403320:	463b      	mov	r3, r7
  403322:	4659      	mov	r1, fp
		do seq = (seq >> 1) + (seq << 15) + (WORD)*lfn++; while (*lfn);
  403324:	03da      	lsls	r2, r3, #15
  403326:	ea42 0353 	orr.w	r3, r2, r3, lsr #1
  40332a:	f831 2b02 	ldrh.w	r2, [r1], #2
  40332e:	fa12 f383 	uxtah	r3, r2, r3
  403332:	b29b      	uxth	r3, r3
  403334:	880a      	ldrh	r2, [r1, #0]
  403336:	2a00      	cmp	r2, #0
  403338:	d1f4      	bne.n	403324 <dir_register+0x94>
  40333a:	f10d 0613 	add.w	r6, sp, #19
		for (n = 1; n < 100; n++) {
  40333e:	2207      	movs	r2, #7
		c = (seq % 16) + '0';
  403340:	f003 000f 	and.w	r0, r3, #15
  403344:	f100 0130 	add.w	r1, r0, #48	; 0x30
		if (c > '9') c += 7;
  403348:	2939      	cmp	r1, #57	; 0x39
  40334a:	bf88      	it	hi
  40334c:	f100 0137 	addhi.w	r1, r0, #55	; 0x37
		ns[i--] = c;
  403350:	3a01      	subs	r2, #1
  403352:	f806 1901 	strb.w	r1, [r6], #-1
		seq /= 16;
  403356:	f3c3 130f 	ubfx	r3, r3, #4, #16
	} while (seq);
  40335a:	2b00      	cmp	r3, #0
  40335c:	d1f0      	bne.n	403340 <dir_register+0xb0>
	ns[i] = '~';
  40335e:	217e      	movs	r1, #126	; 0x7e
  403360:	ab08      	add	r3, sp, #32
  403362:	4413      	add	r3, r2
  403364:	f803 1c14 	strb.w	r1, [r3, #-20]
	for (j = 0; j < i && dst[j] != ' '; j++) {
  403368:	2a00      	cmp	r2, #0
  40336a:	d0b5      	beq.n	4032d8 <dir_register+0x48>
  40336c:	782b      	ldrb	r3, [r5, #0]
  40336e:	2b20      	cmp	r3, #32
  403370:	d0b4      	beq.n	4032dc <dir_register+0x4c>
  403372:	4629      	mov	r1, r5
  403374:	2300      	movs	r3, #0
  403376:	3301      	adds	r3, #1
  403378:	429a      	cmp	r2, r3
  40337a:	d0b1      	beq.n	4032e0 <dir_register+0x50>
  40337c:	f811 0f01 	ldrb.w	r0, [r1, #1]!
  403380:	2820      	cmp	r0, #32
  403382:	d1f8      	bne.n	403376 <dir_register+0xe6>
  403384:	e7ad      	b.n	4032e2 <dir_register+0x52>
		if (n == 100) return FR_DENIED;		/* Abort if too many collisions */
  403386:	2607      	movs	r6, #7
  403388:	e004      	b.n	403394 <dir_register+0x104>
  40338a:	2f64      	cmp	r7, #100	; 0x64
  40338c:	f000 80ac 	beq.w	4034e8 <dir_register+0x258>
		if (res != FR_NO_FILE) return res;	/* Abort if the result is other than 'not collided' */
  403390:	2804      	cmp	r0, #4
  403392:	d003      	beq.n	40339c <dir_register+0x10c>
}
  403394:	4630      	mov	r0, r6
  403396:	b009      	add	sp, #36	; 0x24
  403398:	e8bd 8ff0 	ldmia.w	sp!, {r4, r5, r6, r7, r8, r9, sl, fp, pc}
		fn[NS] = sn[NS]; dj->lfn = lfn;
  40339c:	f89d 301f 	ldrb.w	r3, [sp, #31]
  4033a0:	72eb      	strb	r3, [r5, #11]
  4033a2:	f8c4 b01c 	str.w	fp, [r4, #28]
	if (sn[NS] & NS_LFN) {			/* When LFN is to be created, reserve an SFN + LFN entries. */
  4033a6:	f89d 301f 	ldrb.w	r3, [sp, #31]
  4033aa:	f013 0f02 	tst.w	r3, #2
  4033ae:	d014      	beq.n	4033da <dir_register+0x14a>
		for (ne = 0; lfn[ne]; ne++) ;
  4033b0:	f8bb 3000 	ldrh.w	r3, [fp]
  4033b4:	b17b      	cbz	r3, 4033d6 <dir_register+0x146>
  4033b6:	2300      	movs	r3, #0
  4033b8:	3301      	adds	r3, #1
  4033ba:	b29b      	uxth	r3, r3
  4033bc:	f83b 2013 	ldrh.w	r2, [fp, r3, lsl #1]
  4033c0:	2a00      	cmp	r2, #0
  4033c2:	d1f9      	bne.n	4033b8 <dir_register+0x128>
		ne = (ne + 25) / 13;
  4033c4:	3319      	adds	r3, #25
  4033c6:	4f61      	ldr	r7, [pc, #388]	; (40354c <dir_register+0x2bc>)
  4033c8:	fb87 2703 	smull	r2, r7, r7, r3
  4033cc:	17db      	asrs	r3, r3, #31
  4033ce:	ebc3 07a7 	rsb	r7, r3, r7, asr #2
  4033d2:	b2bf      	uxth	r7, r7
  4033d4:	e002      	b.n	4033dc <dir_register+0x14c>
		for (ne = 0; lfn[ne]; ne++) ;
  4033d6:	2300      	movs	r3, #0
  4033d8:	e7f4      	b.n	4033c4 <dir_register+0x134>
		ne = 1;
  4033da:	2701      	movs	r7, #1
	res = dir_sdi(dj, 0);
  4033dc:	2100      	movs	r1, #0
  4033de:	4620      	mov	r0, r4
  4033e0:	4b5b      	ldr	r3, [pc, #364]	; (403550 <dir_register+0x2c0>)
  4033e2:	4798      	blx	r3
	if (res != FR_OK) return res;
  4033e4:	4606      	mov	r6, r0
  4033e6:	2800      	cmp	r0, #0
  4033e8:	d1d4      	bne.n	403394 <dir_register+0x104>
  4033ea:	f04f 0a00 	mov.w	sl, #0
  4033ee:	4655      	mov	r5, sl
		res = move_window(dj->fs, dj->sect);
  4033f0:	f8df 8164 	ldr.w	r8, [pc, #356]	; 403558 <dir_register+0x2c8>
			n = 0;					/* Not a blank entry. Restart to search */
  4033f4:	46d3      	mov	fp, sl
		res = dir_next(dj, 1);		/* Next entry with table stretch */
  4033f6:	f8df 915c 	ldr.w	r9, [pc, #348]	; 403554 <dir_register+0x2c4>
  4033fa:	e00a      	b.n	403412 <dir_register+0x182>
			if (++n == ne) break;	/* A contiguous entry that required count is found */
  4033fc:	1c6b      	adds	r3, r5, #1
  4033fe:	b29b      	uxth	r3, r3
  403400:	429f      	cmp	r7, r3
  403402:	d073      	beq.n	4034ec <dir_register+0x25c>
  403404:	461d      	mov	r5, r3
		res = dir_next(dj, 1);		/* Next entry with table stretch */
  403406:	2101      	movs	r1, #1
  403408:	4620      	mov	r0, r4
  40340a:	47c8      	blx	r9
	} while (res == FR_OK);
  40340c:	4606      	mov	r6, r0
  40340e:	2800      	cmp	r0, #0
  403410:	d1c0      	bne.n	403394 <dir_register+0x104>
		res = move_window(dj->fs, dj->sect);
  403412:	6921      	ldr	r1, [r4, #16]
  403414:	6820      	ldr	r0, [r4, #0]
  403416:	47c0      	blx	r8
		if (res != FR_OK) break;
  403418:	4606      	mov	r6, r0
  40341a:	2800      	cmp	r0, #0
  40341c:	d1ba      	bne.n	403394 <dir_register+0x104>
		c = *dj->dir;				/* Check the entry status */
  40341e:	6963      	ldr	r3, [r4, #20]
  403420:	781b      	ldrb	r3, [r3, #0]
		if (c == DDE || c == 0) {	/* Is it a blank entry? */
  403422:	2be5      	cmp	r3, #229	; 0xe5
  403424:	d000      	beq.n	403428 <dir_register+0x198>
  403426:	b923      	cbnz	r3, 403432 <dir_register+0x1a2>
			if (n == 0) is = dj->index;	/* First index of the contiguous entry */
  403428:	2d00      	cmp	r5, #0
  40342a:	d1e7      	bne.n	4033fc <dir_register+0x16c>
  40342c:	f8b4 a006 	ldrh.w	sl, [r4, #6]
  403430:	e7e4      	b.n	4033fc <dir_register+0x16c>
			n = 0;					/* Not a blank entry. Restart to search */
  403432:	465d      	mov	r5, fp
  403434:	e7e7      	b.n	403406 <dir_register+0x176>
		if (wc != 0xFFFF) wc = lfnbuf[i++];	/* Get an effective char */
  403436:	4671      	mov	r1, lr
  403438:	e070      	b.n	40351c <dir_register+0x28c>
	if (wc == 0xFFFF || !lfnbuf[i]) ord |= LLE;	/* Bottom LFN part is the start of LFN sequence */
  40343a:	f64f 72ff 	movw	r2, #65535	; 0xffff
  40343e:	4293      	cmp	r3, r2
  403440:	d002      	beq.n	403448 <dir_register+0x1b8>
  403442:	f839 3011 	ldrh.w	r3, [r9, r1, lsl #1]
  403446:	b90b      	cbnz	r3, 40344c <dir_register+0x1bc>
  403448:	f04b 0b40 	orr.w	fp, fp, #64	; 0x40
	dir[LDIR_Ord] = ord;			/* Set the LFN order */
  40344c:	f880 b000 	strb.w	fp, [r0]
				dj->fs->wflag = 1;
  403450:	6823      	ldr	r3, [r4, #0]
  403452:	2201      	movs	r2, #1
  403454:	711a      	strb	r2, [r3, #4]
				res = dir_next(dj, 0);	/* Next entry */
  403456:	4639      	mov	r1, r7
  403458:	4620      	mov	r0, r4
  40345a:	4b3e      	ldr	r3, [pc, #248]	; (403554 <dir_register+0x2c4>)
  40345c:	4798      	blx	r3
			} while (res == FR_OK && --ne);
  40345e:	4606      	mov	r6, r0
  403460:	2800      	cmp	r0, #0
  403462:	d197      	bne.n	403394 <dir_register+0x104>
  403464:	3d01      	subs	r5, #1
  403466:	b2ad      	uxth	r5, r5
  403468:	b315      	cbz	r5, 4034b0 <dir_register+0x220>
				res = move_window(dj->fs, dj->sect);
  40346a:	6921      	ldr	r1, [r4, #16]
  40346c:	6820      	ldr	r0, [r4, #0]
  40346e:	4b3a      	ldr	r3, [pc, #232]	; (403558 <dir_register+0x2c8>)
  403470:	4798      	blx	r3
				if (res != FR_OK) break;
  403472:	4606      	mov	r6, r0
  403474:	2800      	cmp	r0, #0
  403476:	d18d      	bne.n	403394 <dir_register+0x104>
				fit_lfn(dj->lfn, dj->dir, (BYTE)ne, sum);
  403478:	f8d4 901c 	ldr.w	r9, [r4, #28]
  40347c:	6960      	ldr	r0, [r4, #20]
  40347e:	fa5f fb85 	uxtb.w	fp, r5
	dir[LDIR_Chksum] = sum;			/* Set check sum */
  403482:	f89d 3000 	ldrb.w	r3, [sp]
  403486:	7343      	strb	r3, [r0, #13]
	dir[LDIR_Attr] = AM_LFN;		/* Set attribute. LFN entry */
  403488:	230f      	movs	r3, #15
  40348a:	72c3      	strb	r3, [r0, #11]
	dir[LDIR_Type] = 0;
  40348c:	7307      	strb	r7, [r0, #12]
	ST_WORD(dir+LDIR_FstClusLO, 0);
  40348e:	7687      	strb	r7, [r0, #26]
  403490:	76c7      	strb	r7, [r0, #27]
	i = (ord - 1) * 13;				/* Get offset in the LFN buffer */
  403492:	f10b 31ff 	add.w	r1, fp, #4294967295
  403496:	eb01 0341 	add.w	r3, r1, r1, lsl #1
  40349a:	eb01 0183 	add.w	r1, r1, r3, lsl #2
  40349e:	4a2f      	ldr	r2, [pc, #188]	; (40355c <dir_register+0x2cc>)
  4034a0:	f102 080d 	add.w	r8, r2, #13
	s = wc = 0;
  4034a4:	9b01      	ldr	r3, [sp, #4]
		if (wc != 0xFFFF) wc = lfnbuf[i++];	/* Get an effective char */
  4034a6:	f64f 76ff 	movw	r6, #65535	; 0xffff
		ST_WORD(dir+LfnOfs[s], wc);	/* Put it */
  4034aa:	f04f 0aff 	mov.w	sl, #255	; 0xff
  4034ae:	e038      	b.n	403522 <dir_register+0x292>
		res = move_window(dj->fs, dj->sect);
  4034b0:	6921      	ldr	r1, [r4, #16]
  4034b2:	6820      	ldr	r0, [r4, #0]
  4034b4:	4b28      	ldr	r3, [pc, #160]	; (403558 <dir_register+0x2c8>)
  4034b6:	4798      	blx	r3
		if (res == FR_OK) {
  4034b8:	4606      	mov	r6, r0
  4034ba:	2800      	cmp	r0, #0
  4034bc:	f47f af6a 	bne.w	403394 <dir_register+0x104>
			dir = dj->dir;
  4034c0:	6965      	ldr	r5, [r4, #20]
			mem_set(dir, 0, SZ_DIR);	/* Clean the entry */
  4034c2:	2220      	movs	r2, #32
  4034c4:	2100      	movs	r1, #0
  4034c6:	4628      	mov	r0, r5
  4034c8:	4b25      	ldr	r3, [pc, #148]	; (403560 <dir_register+0x2d0>)
  4034ca:	4798      	blx	r3
			mem_cpy(dir, dj->fn, 11);	/* Put SFN */
  4034cc:	220b      	movs	r2, #11
  4034ce:	69a1      	ldr	r1, [r4, #24]
  4034d0:	4628      	mov	r0, r5
  4034d2:	4b1d      	ldr	r3, [pc, #116]	; (403548 <dir_register+0x2b8>)
  4034d4:	4798      	blx	r3
			dir[DIR_NTres] = *(dj->fn+NS) & (NS_BODY | NS_EXT);	/* Put NT flag */
  4034d6:	69a3      	ldr	r3, [r4, #24]
  4034d8:	7adb      	ldrb	r3, [r3, #11]
  4034da:	f003 0318 	and.w	r3, r3, #24
  4034de:	732b      	strb	r3, [r5, #12]
			dj->fs->wflag = 1;
  4034e0:	6823      	ldr	r3, [r4, #0]
  4034e2:	2201      	movs	r2, #1
  4034e4:	711a      	strb	r2, [r3, #4]
  4034e6:	e755      	b.n	403394 <dir_register+0x104>
		if (n == 100) return FR_DENIED;		/* Abort if too many collisions */
  4034e8:	2607      	movs	r6, #7
  4034ea:	e753      	b.n	403394 <dir_register+0x104>
	if (res == FR_OK && ne > 1) {	/* Initialize LFN entry if needed */
  4034ec:	2b01      	cmp	r3, #1
  4034ee:	d9df      	bls.n	4034b0 <dir_register+0x220>
		res = dir_sdi(dj, is);
  4034f0:	4651      	mov	r1, sl
  4034f2:	4620      	mov	r0, r4
  4034f4:	4b16      	ldr	r3, [pc, #88]	; (403550 <dir_register+0x2c0>)
  4034f6:	4798      	blx	r3
		if (res == FR_OK) {
  4034f8:	4606      	mov	r6, r0
  4034fa:	2800      	cmp	r0, #0
  4034fc:	f47f af4a 	bne.w	403394 <dir_register+0x104>
			sum = sum_sfn(dj->fn);	/* Sum of the SFN tied to the LFN */
  403500:	69a0      	ldr	r0, [r4, #24]
  403502:	4b18      	ldr	r3, [pc, #96]	; (403564 <dir_register+0x2d4>)
  403504:	4798      	blx	r3
  403506:	9000      	str	r0, [sp, #0]
	dir[LDIR_Type] = 0;
  403508:	2700      	movs	r7, #0
	s = wc = 0;
  40350a:	9701      	str	r7, [sp, #4]
  40350c:	e7ad      	b.n	40346a <dir_register+0x1da>
		ST_WORD(dir+LfnOfs[s], wc);	/* Put it */
  40350e:	f892 e000 	ldrb.w	lr, [r2]
  403512:	f800 a00e 	strb.w	sl, [r0, lr]
  403516:	4486      	add	lr, r0
  403518:	f88e a001 	strb.w	sl, [lr, #1]
  40351c:	3201      	adds	r2, #1
	} while (++s < 13);
  40351e:	4542      	cmp	r2, r8
  403520:	d08b      	beq.n	40343a <dir_register+0x1aa>
		if (wc != 0xFFFF) wc = lfnbuf[i++];	/* Get an effective char */
  403522:	42b3      	cmp	r3, r6
  403524:	d0f3      	beq.n	40350e <dir_register+0x27e>
  403526:	f101 0e01 	add.w	lr, r1, #1
  40352a:	f839 3011 	ldrh.w	r3, [r9, r1, lsl #1]
		ST_WORD(dir+LfnOfs[s], wc);	/* Put it */
  40352e:	7811      	ldrb	r1, [r2, #0]
  403530:	5443      	strb	r3, [r0, r1]
  403532:	4401      	add	r1, r0
  403534:	ea4f 2c13 	mov.w	ip, r3, lsr #8
  403538:	f881 c001 	strb.w	ip, [r1, #1]
		if (!wc) wc = 0xFFFF;		/* Padding chars following last char */
  40353c:	2b00      	cmp	r3, #0
  40353e:	f47f af7a 	bne.w	403436 <dir_register+0x1a6>
		if (wc != 0xFFFF) wc = lfnbuf[i++];	/* Get an effective char */
  403542:	4671      	mov	r1, lr
		if (!wc) wc = 0xFFFF;		/* Padding chars following last char */
  403544:	4633      	mov	r3, r6
  403546:	e7e9      	b.n	40351c <dir_register+0x28c>
  403548:	00402699 	.word	0x00402699
  40354c:	4ec4ec4f 	.word	0x4ec4ec4f
  403550:	00402c9d 	.word	0x00402c9d
  403554:	00402fb1 	.word	0x00402fb1
  403558:	00402b25 	.word	0x00402b25
  40355c:	004098a0 	.word	0x004098a0
  403560:	004026ad 	.word	0x004026ad
  403564:	004026d3 	.word	0x004026d3
  403568:	004030e9 	.word	0x004030e9

0040356c <sync>:
{
  40356c:	b570      	push	{r4, r5, r6, lr}
  40356e:	4604      	mov	r4, r0
	res = move_window(fs, 0);
  403570:	2100      	movs	r1, #0
  403572:	4b2d      	ldr	r3, [pc, #180]	; (403628 <sync+0xbc>)
  403574:	4798      	blx	r3
	if (res == FR_OK) {
  403576:	4603      	mov	r3, r0
  403578:	b950      	cbnz	r0, 403590 <sync+0x24>
		if (fs->fs_type == FS_FAT32 && fs->fsi_flag) {
  40357a:	7823      	ldrb	r3, [r4, #0]
  40357c:	2b03      	cmp	r3, #3
  40357e:	d009      	beq.n	403594 <sync+0x28>
		if (disk_ioctl(fs->drv, CTRL_SYNC, 0) != RES_OK)
  403580:	2200      	movs	r2, #0
  403582:	4611      	mov	r1, r2
  403584:	7860      	ldrb	r0, [r4, #1]
  403586:	4b29      	ldr	r3, [pc, #164]	; (40362c <sync+0xc0>)
  403588:	4798      	blx	r3
	res = move_window(fs, 0);
  40358a:	1c03      	adds	r3, r0, #0
  40358c:	bf18      	it	ne
  40358e:	2301      	movne	r3, #1
}
  403590:	4618      	mov	r0, r3
  403592:	bd70      	pop	{r4, r5, r6, pc}
		if (fs->fs_type == FS_FAT32 && fs->fsi_flag) {
  403594:	7963      	ldrb	r3, [r4, #5]
  403596:	2b00      	cmp	r3, #0
  403598:	d0f2      	beq.n	403580 <sync+0x14>
			fs->winsect = 0;
  40359a:	2600      	movs	r6, #0
  40359c:	62e6      	str	r6, [r4, #44]	; 0x2c
			mem_set(fs->win, 0, 512);
  40359e:	f104 0530 	add.w	r5, r4, #48	; 0x30
  4035a2:	f44f 7200 	mov.w	r2, #512	; 0x200
  4035a6:	4631      	mov	r1, r6
  4035a8:	4628      	mov	r0, r5
  4035aa:	4b21      	ldr	r3, [pc, #132]	; (403630 <sync+0xc4>)
  4035ac:	4798      	blx	r3
			ST_WORD(fs->win+BS_55AA, 0xAA55);
  4035ae:	2355      	movs	r3, #85	; 0x55
  4035b0:	f884 322e 	strb.w	r3, [r4, #558]	; 0x22e
  4035b4:	23aa      	movs	r3, #170	; 0xaa
  4035b6:	f884 322f 	strb.w	r3, [r4, #559]	; 0x22f
			ST_DWORD(fs->win+FSI_LeadSig, 0x41615252);
  4035ba:	2352      	movs	r3, #82	; 0x52
  4035bc:	f884 3030 	strb.w	r3, [r4, #48]	; 0x30
  4035c0:	f884 3031 	strb.w	r3, [r4, #49]	; 0x31
  4035c4:	2361      	movs	r3, #97	; 0x61
  4035c6:	f884 3032 	strb.w	r3, [r4, #50]	; 0x32
  4035ca:	2241      	movs	r2, #65	; 0x41
  4035cc:	f884 2033 	strb.w	r2, [r4, #51]	; 0x33
			ST_DWORD(fs->win+FSI_StrucSig, 0x61417272);
  4035d0:	2172      	movs	r1, #114	; 0x72
  4035d2:	f884 1214 	strb.w	r1, [r4, #532]	; 0x214
  4035d6:	f884 1215 	strb.w	r1, [r4, #533]	; 0x215
  4035da:	f884 2216 	strb.w	r2, [r4, #534]	; 0x216
  4035de:	f884 3217 	strb.w	r3, [r4, #535]	; 0x217
			ST_DWORD(fs->win+FSI_Free_Count, fs->free_clust);
  4035e2:	6923      	ldr	r3, [r4, #16]
  4035e4:	f884 3218 	strb.w	r3, [r4, #536]	; 0x218
  4035e8:	f3c3 2207 	ubfx	r2, r3, #8, #8
  4035ec:	f884 2219 	strb.w	r2, [r4, #537]	; 0x219
  4035f0:	0c1a      	lsrs	r2, r3, #16
  4035f2:	f884 221a 	strb.w	r2, [r4, #538]	; 0x21a
  4035f6:	0e1b      	lsrs	r3, r3, #24
  4035f8:	f884 321b 	strb.w	r3, [r4, #539]	; 0x21b
			ST_DWORD(fs->win+FSI_Nxt_Free, fs->last_clust);
  4035fc:	68e3      	ldr	r3, [r4, #12]
  4035fe:	f884 321c 	strb.w	r3, [r4, #540]	; 0x21c
  403602:	f3c3 2207 	ubfx	r2, r3, #8, #8
  403606:	f884 221d 	strb.w	r2, [r4, #541]	; 0x21d
  40360a:	0c1a      	lsrs	r2, r3, #16
  40360c:	f884 221e 	strb.w	r2, [r4, #542]	; 0x21e
  403610:	0e1b      	lsrs	r3, r3, #24
  403612:	f884 321f 	strb.w	r3, [r4, #543]	; 0x21f
			disk_write(fs->drv, fs->win, fs->fsi_sector, 1);
  403616:	2301      	movs	r3, #1
  403618:	6962      	ldr	r2, [r4, #20]
  40361a:	4629      	mov	r1, r5
  40361c:	7860      	ldrb	r0, [r4, #1]
  40361e:	4d05      	ldr	r5, [pc, #20]	; (403634 <sync+0xc8>)
  403620:	47a8      	blx	r5
			fs->fsi_flag = 0;
  403622:	7166      	strb	r6, [r4, #5]
  403624:	e7ac      	b.n	403580 <sync+0x14>
  403626:	bf00      	nop
  403628:	00402b25 	.word	0x00402b25
  40362c:	004025d1 	.word	0x004025d1
  403630:	004026ad 	.word	0x004026ad
  403634:	00402561 	.word	0x00402561

00403638 <follow_path>:
{
  403638:	e92d 4ff0 	stmdb	sp!, {r4, r5, r6, r7, r8, r9, sl, fp, lr}
  40363c:	b083      	sub	sp, #12
  40363e:	4682      	mov	sl, r0
  403640:	460d      	mov	r5, r1
	if (*path == '/' || *path == '\\')	/* Strip heading separator if exist */
  403642:	780b      	ldrb	r3, [r1, #0]
  403644:	2b2f      	cmp	r3, #47	; 0x2f
  403646:	d00a      	beq.n	40365e <follow_path+0x26>
  403648:	2b5c      	cmp	r3, #92	; 0x5c
  40364a:	d008      	beq.n	40365e <follow_path+0x26>
	dj->sclust = 0;						/* Start from the root dir */
  40364c:	2300      	movs	r3, #0
  40364e:	f8ca 3008 	str.w	r3, [sl, #8]
	if ((UINT)*path < ' ') {			/* Nul path means the start directory itself */
  403652:	782b      	ldrb	r3, [r5, #0]
  403654:	2b1f      	cmp	r3, #31
  403656:	d904      	bls.n	403662 <follow_path+0x2a>
		w = ff_convert(w, 1);			/* Convert ANSI/OEM to Unicode */
  403658:	f8df b2fc 	ldr.w	fp, [pc, #764]	; 403958 <follow_path+0x320>
  40365c:	e130      	b.n	4038c0 <follow_path+0x288>
		path++;
  40365e:	3501      	adds	r5, #1
  403660:	e7f4      	b.n	40364c <follow_path+0x14>
		res = dir_sdi(dj, 0);
  403662:	2100      	movs	r1, #0
  403664:	4650      	mov	r0, sl
  403666:	4bb6      	ldr	r3, [pc, #728]	; (403940 <follow_path+0x308>)
  403668:	4798      	blx	r3
  40366a:	4603      	mov	r3, r0
		dj->dir = 0;
  40366c:	2200      	movs	r2, #0
  40366e:	f8ca 2014 	str.w	r2, [sl, #20]
  403672:	e15a      	b.n	40392a <follow_path+0x2f2>
		if (w < 0x80 && chk_chr("\"*:<>\?|\x7F", w)) /* Reject illegal chars for LFN */
  403674:	2b00      	cmp	r3, #0
  403676:	f040 8152 	bne.w	40391e <follow_path+0x2e6>
		lfn[di++] = w;					/* Store the Unicode char */
  40367a:	f827 2f02 	strh.w	r2, [r7, #2]!
		w = p[si++];					/* Get a character */
  40367e:	1c63      	adds	r3, r4, #1
  403680:	f816 0f01 	ldrb.w	r0, [r6, #1]!
		if (w < ' ' || w == '/' || w == '\\') break;	/* Break on end of segment */
  403684:	282f      	cmp	r0, #47	; 0x2f
  403686:	bf18      	it	ne
  403688:	281f      	cmpne	r0, #31
  40368a:	d91b      	bls.n	4036c4 <follow_path+0x8c>
  40368c:	285c      	cmp	r0, #92	; 0x5c
  40368e:	d019      	beq.n	4036c4 <follow_path+0x8c>
		if (di >= _MAX_LFN)				/* Reject too long name */
  403690:	f5b3 7f80 	cmp.w	r3, #256	; 0x100
  403694:	f000 8143 	beq.w	40391e <follow_path+0x2e6>
		w = p[si++];					/* Get a character */
  403698:	461c      	mov	r4, r3
		w = ff_convert(w, 1);			/* Convert ANSI/OEM to Unicode */
  40369a:	4641      	mov	r1, r8
  40369c:	47d8      	blx	fp
		if (!w) return FR_INVALID_NAME;	/* Reject invalid code */
  40369e:	4602      	mov	r2, r0
  4036a0:	2800      	cmp	r0, #0
  4036a2:	f000 813c 	beq.w	40391e <follow_path+0x2e6>
		if (w < 0x80 && chk_chr("\"*:<>\?|\x7F", w)) /* Reject illegal chars for LFN */
  4036a6:	287f      	cmp	r0, #127	; 0x7f
  4036a8:	d8e7      	bhi.n	40367a <follow_path+0x42>
	while (*str && *str != chr) str++;
  4036aa:	2822      	cmp	r0, #34	; 0x22
  4036ac:	f000 813c 	beq.w	403928 <follow_path+0x2f0>
  4036b0:	232a      	movs	r3, #42	; 0x2a
  4036b2:	49a4      	ldr	r1, [pc, #656]	; (403944 <follow_path+0x30c>)
  4036b4:	b298      	uxth	r0, r3
  4036b6:	4290      	cmp	r0, r2
  4036b8:	d0dc      	beq.n	403674 <follow_path+0x3c>
  4036ba:	f811 3f01 	ldrb.w	r3, [r1, #1]!
  4036be:	2b00      	cmp	r3, #0
  4036c0:	d1f8      	bne.n	4036b4 <follow_path+0x7c>
  4036c2:	e7da      	b.n	40367a <follow_path+0x42>
	*path = &p[si];						/* Return pointer to the next segment */
  4036c4:	441d      	add	r5, r3
	cf = (w < ' ') ? NS_LAST : 0;		/* Set last segment flag if end of path */
  4036c6:	2820      	cmp	r0, #32
  4036c8:	bf34      	ite	cc
  4036ca:	2604      	movcc	r6, #4
  4036cc:	2600      	movcs	r6, #0
	while (di) {						/* Strip trailing spaces and dots */
  4036ce:	2c00      	cmp	r4, #0
  4036d0:	f000 812a 	beq.w	403928 <follow_path+0x2f0>
		w = lfn[di-1];
  4036d4:	f06f 4300 	mvn.w	r3, #2147483648	; 0x80000000
  4036d8:	4423      	add	r3, r4
  4036da:	eb09 0243 	add.w	r2, r9, r3, lsl #1
  4036de:	f839 3013 	ldrh.w	r3, [r9, r3, lsl #1]
		if (w != ' ' && w != '.') break;
  4036e2:	2b20      	cmp	r3, #32
  4036e4:	d001      	beq.n	4036ea <follow_path+0xb2>
  4036e6:	2b2e      	cmp	r3, #46	; 0x2e
  4036e8:	d108      	bne.n	4036fc <follow_path+0xc4>
	while (di) {						/* Strip trailing spaces and dots */
  4036ea:	3c01      	subs	r4, #1
  4036ec:	f000 811c 	beq.w	403928 <follow_path+0x2f0>
		w = lfn[di-1];
  4036f0:	f832 3d02 	ldrh.w	r3, [r2, #-2]!
		if (w != ' ' && w != '.') break;
  4036f4:	2b20      	cmp	r3, #32
  4036f6:	d0f8      	beq.n	4036ea <follow_path+0xb2>
  4036f8:	2b2e      	cmp	r3, #46	; 0x2e
  4036fa:	d0f6      	beq.n	4036ea <follow_path+0xb2>
	lfn[di] = 0;						/* LFN is created */
  4036fc:	0067      	lsls	r7, r4, #1
  4036fe:	2300      	movs	r3, #0
  403700:	f829 3014 	strh.w	r3, [r9, r4, lsl #1]
	mem_set(dj->fn, ' ', 11);
  403704:	220b      	movs	r2, #11
  403706:	2120      	movs	r1, #32
  403708:	f8da 0018 	ldr.w	r0, [sl, #24]
  40370c:	4b8e      	ldr	r3, [pc, #568]	; (403948 <follow_path+0x310>)
  40370e:	4798      	blx	r3
	for (si = 0; lfn[si] == ' ' || lfn[si] == '.'; si++) ;	/* Strip leading spaces and dots */
  403710:	f8b9 3000 	ldrh.w	r3, [r9]
  403714:	2b20      	cmp	r3, #32
  403716:	d001      	beq.n	40371c <follow_path+0xe4>
  403718:	2b2e      	cmp	r3, #46	; 0x2e
  40371a:	d11f      	bne.n	40375c <follow_path+0x124>
  40371c:	4649      	mov	r1, r9
  40371e:	2300      	movs	r3, #0
  403720:	3301      	adds	r3, #1
  403722:	f831 2f02 	ldrh.w	r2, [r1, #2]!
  403726:	2a20      	cmp	r2, #32
  403728:	d0fa      	beq.n	403720 <follow_path+0xe8>
  40372a:	2a2e      	cmp	r2, #46	; 0x2e
  40372c:	d0f8      	beq.n	403720 <follow_path+0xe8>
	if (si) cf |= NS_LOSS | NS_LFN;
  40372e:	b10b      	cbz	r3, 403734 <follow_path+0xfc>
  403730:	f046 0603 	orr.w	r6, r6, #3
	while (di && lfn[di - 1] != '.') di--;	/* Find extension (di<=si: no extension) */
  403734:	3f02      	subs	r7, #2
  403736:	eb09 0207 	add.w	r2, r9, r7
  40373a:	f839 1007 	ldrh.w	r1, [r9, r7]
  40373e:	292e      	cmp	r1, #46	; 0x2e
  403740:	d005      	beq.n	40374e <follow_path+0x116>
  403742:	3c01      	subs	r4, #1
  403744:	d003      	beq.n	40374e <follow_path+0x116>
  403746:	f832 1d02 	ldrh.w	r1, [r2, #-2]!
  40374a:	292e      	cmp	r1, #46	; 0x2e
  40374c:	d1f9      	bne.n	403742 <follow_path+0x10a>
		dj->fn[i++] = (BYTE)w;
  40374e:	2208      	movs	r2, #8
  403750:	9200      	str	r2, [sp, #0]
  403752:	f04f 0800 	mov.w	r8, #0
  403756:	f8cd 8004 	str.w	r8, [sp, #4]
  40375a:	e004      	b.n	403766 <follow_path+0x12e>
	for (si = 0; lfn[si] == ' ' || lfn[si] == '.'; si++) ;	/* Strip leading spaces and dots */
  40375c:	2300      	movs	r3, #0
  40375e:	e7e9      	b.n	403734 <follow_path+0xfc>
			cf |= NS_LOSS | NS_LFN; continue;
  403760:	f046 0603 	orr.w	r6, r6, #3
		w = lfn[si++];					/* Get an LFN char */
  403764:	463b      	mov	r3, r7
  403766:	1c5f      	adds	r7, r3, #1
  403768:	f839 0013 	ldrh.w	r0, [r9, r3, lsl #1]
		if (!w) break;					/* Break on end of the LFN */
  40376c:	2800      	cmp	r0, #0
  40376e:	d066      	beq.n	40383e <follow_path+0x206>
		if (w == ' ' || (w == '.' && si != di)) {	/* Remove spaces and dots */
  403770:	2820      	cmp	r0, #32
  403772:	d0f5      	beq.n	403760 <follow_path+0x128>
  403774:	282e      	cmp	r0, #46	; 0x2e
  403776:	d101      	bne.n	40377c <follow_path+0x144>
  403778:	42a7      	cmp	r7, r4
  40377a:	d1f1      	bne.n	403760 <follow_path+0x128>
		if (i >= ni || si == di) {		/* Extension or end of SFN */
  40377c:	9b00      	ldr	r3, [sp, #0]
  40377e:	4598      	cmp	r8, r3
  403780:	d218      	bcs.n	4037b4 <follow_path+0x17c>
  403782:	42a7      	cmp	r7, r4
  403784:	d016      	beq.n	4037b4 <follow_path+0x17c>
		if (w >= 0x80) {				/* Non ASCII char */
  403786:	287f      	cmp	r0, #127	; 0x7f
  403788:	d831      	bhi.n	4037ee <follow_path+0x1b6>
	while (*str && *str != chr) str++;
  40378a:	282b      	cmp	r0, #43	; 0x2b
  40378c:	d03d      	beq.n	40380a <follow_path+0x1d2>
  40378e:	232c      	movs	r3, #44	; 0x2c
  403790:	496e      	ldr	r1, [pc, #440]	; (40394c <follow_path+0x314>)
  403792:	b29a      	uxth	r2, r3
  403794:	4282      	cmp	r2, r0
  403796:	d043      	beq.n	403820 <follow_path+0x1e8>
  403798:	f811 3f01 	ldrb.w	r3, [r1, #1]!
  40379c:	2b00      	cmp	r3, #0
  40379e:	d1f8      	bne.n	403792 <follow_path+0x15a>
				if (IsUpper(w)) {		/* ASCII large capital */
  4037a0:	f1a0 0341 	sub.w	r3, r0, #65	; 0x41
  4037a4:	b29b      	uxth	r3, r3
  4037a6:	2b19      	cmp	r3, #25
  4037a8:	d83d      	bhi.n	403826 <follow_path+0x1ee>
					b |= 2;
  4037aa:	9b01      	ldr	r3, [sp, #4]
  4037ac:	f043 0302 	orr.w	r3, r3, #2
  4037b0:	9301      	str	r3, [sp, #4]
  4037b2:	e02d      	b.n	403810 <follow_path+0x1d8>
			if (ni == 11) {				/* Long extension */
  4037b4:	9b00      	ldr	r3, [sp, #0]
  4037b6:	2b0b      	cmp	r3, #11
  4037b8:	d00f      	beq.n	4037da <follow_path+0x1a2>
			if (si != di) cf |= NS_LOSS | NS_LFN;	/* Out of 8.3 format */
  4037ba:	42a7      	cmp	r7, r4
  4037bc:	bf18      	it	ne
  4037be:	f046 0603 	orrne.w	r6, r6, #3
			if (si > di) break;			/* No extension */
  4037c2:	42a7      	cmp	r7, r4
  4037c4:	d83b      	bhi.n	40383e <follow_path+0x206>
			b <<= 2; continue;
  4037c6:	9b01      	ldr	r3, [sp, #4]
  4037c8:	009b      	lsls	r3, r3, #2
  4037ca:	b2db      	uxtb	r3, r3
  4037cc:	9301      	str	r3, [sp, #4]
  4037ce:	4623      	mov	r3, r4
			si = di; i = 8; ni = 11;	/* Enter extension section */
  4037d0:	220b      	movs	r2, #11
  4037d2:	9200      	str	r2, [sp, #0]
  4037d4:	f04f 0808 	mov.w	r8, #8
  4037d8:	e7c5      	b.n	403766 <follow_path+0x12e>
				cf |= NS_LOSS | NS_LFN; break;
  4037da:	f046 0603 	orr.w	r6, r6, #3
	if (dj->fn[0] == DDE) dj->fn[0] = NDDE;	/* If the first char collides with deleted mark, replace it with 0x05 */
  4037de:	f8da 3018 	ldr.w	r3, [sl, #24]
  4037e2:	781a      	ldrb	r2, [r3, #0]
  4037e4:	2ae5      	cmp	r2, #229	; 0xe5
  4037e6:	d132      	bne.n	40384e <follow_path+0x216>
  4037e8:	2205      	movs	r2, #5
  4037ea:	701a      	strb	r2, [r3, #0]
  4037ec:	e02c      	b.n	403848 <follow_path+0x210>
			w = ff_convert(w, 0);		/* Unicode -> OEM code */
  4037ee:	2100      	movs	r1, #0
  4037f0:	47d8      	blx	fp
			if (w) w = excvt[w - 0x80];	/* Convert extended char to upper (SBCS) */
  4037f2:	4603      	mov	r3, r0
  4037f4:	2800      	cmp	r0, #0
  4037f6:	f000 809f 	beq.w	403938 <follow_path+0x300>
  4037fa:	4a55      	ldr	r2, [pc, #340]	; (403950 <follow_path+0x318>)
  4037fc:	4413      	add	r3, r2
  4037fe:	f813 0c80 	ldrb.w	r0, [r3, #-128]
			cf |= NS_LFN;				/* Force create LFN entry */
  403802:	f046 0602 	orr.w	r6, r6, #2
			if (!w || chk_chr("+,;=[]", w)) {	/* Replace illegal chars for SFN */
  403806:	2800      	cmp	r0, #0
  403808:	d1bf      	bne.n	40378a <follow_path+0x152>
				w = '_'; cf |= NS_LOSS | NS_LFN;/* Lossy conversion */
  40380a:	f046 0603 	orr.w	r6, r6, #3
  40380e:	205f      	movs	r0, #95	; 0x5f
		dj->fn[i++] = (BYTE)w;
  403810:	f8da 3018 	ldr.w	r3, [sl, #24]
  403814:	f803 0008 	strb.w	r0, [r3, r8]
		w = lfn[si++];					/* Get an LFN char */
  403818:	463b      	mov	r3, r7
		dj->fn[i++] = (BYTE)w;
  40381a:	f108 0801 	add.w	r8, r8, #1
  40381e:	e7a2      	b.n	403766 <follow_path+0x12e>
			if (!w || chk_chr("+,;=[]", w)) {	/* Replace illegal chars for SFN */
  403820:	2b00      	cmp	r3, #0
  403822:	d1f2      	bne.n	40380a <follow_path+0x1d2>
  403824:	e7bc      	b.n	4037a0 <follow_path+0x168>
					if (IsLower(w)) {	/* ASCII small capital */
  403826:	f1a0 0361 	sub.w	r3, r0, #97	; 0x61
  40382a:	b29b      	uxth	r3, r3
  40382c:	2b19      	cmp	r3, #25
  40382e:	d8ef      	bhi.n	403810 <follow_path+0x1d8>
						b |= 1; w -= 0x20;
  403830:	9b01      	ldr	r3, [sp, #4]
  403832:	f043 0301 	orr.w	r3, r3, #1
  403836:	9301      	str	r3, [sp, #4]
  403838:	3820      	subs	r0, #32
  40383a:	b280      	uxth	r0, r0
  40383c:	e7e8      	b.n	403810 <follow_path+0x1d8>
	if (dj->fn[0] == DDE) dj->fn[0] = NDDE;	/* If the first char collides with deleted mark, replace it with 0x05 */
  40383e:	f8da 3018 	ldr.w	r3, [sl, #24]
  403842:	781a      	ldrb	r2, [r3, #0]
  403844:	2ae5      	cmp	r2, #229	; 0xe5
  403846:	d0cf      	beq.n	4037e8 <follow_path+0x1b0>
	if (ni == 8) b <<= 2;
  403848:	9b00      	ldr	r3, [sp, #0]
  40384a:	2b08      	cmp	r3, #8
  40384c:	d052      	beq.n	4038f4 <follow_path+0x2bc>
  40384e:	9a01      	ldr	r2, [sp, #4]
  403850:	f002 030c 	and.w	r3, r2, #12
	if ((b & 0x0C) == 0x0C || (b & 0x03) == 0x03)	/* Create LFN entry when there are composite capitals */
  403854:	2b0c      	cmp	r3, #12
  403856:	d054      	beq.n	403902 <follow_path+0x2ca>
  403858:	f002 0203 	and.w	r2, r2, #3
  40385c:	2a03      	cmp	r2, #3
  40385e:	d050      	beq.n	403902 <follow_path+0x2ca>
	if (!(cf & NS_LFN)) {						/* When LFN is in 8.3 format without extended char, NT flags are created */
  403860:	f016 0f02 	tst.w	r6, #2
  403864:	d10b      	bne.n	40387e <follow_path+0x246>
		if ((b & 0x03) == 0x01) cf |= NS_EXT;	/* NT flag (Extension has only small capital) */
  403866:	9a01      	ldr	r2, [sp, #4]
  403868:	f002 0903 	and.w	r9, r2, #3
  40386c:	f1b9 0f01 	cmp.w	r9, #1
  403870:	bf08      	it	eq
  403872:	f046 0610 	orreq.w	r6, r6, #16
		if ((b & 0x0C) == 0x04) cf |= NS_BODY;	/* NT flag (Filename has only small capital) */
  403876:	2b04      	cmp	r3, #4
  403878:	bf08      	it	eq
  40387a:	f046 0608 	orreq.w	r6, r6, #8
	dj->fn[NS] = cf;	/* SFN is created */
  40387e:	f8da 3018 	ldr.w	r3, [sl, #24]
  403882:	72de      	strb	r6, [r3, #11]
			res = dir_find(dj);				/* Find it */
  403884:	4650      	mov	r0, sl
  403886:	4b33      	ldr	r3, [pc, #204]	; (403954 <follow_path+0x31c>)
  403888:	4798      	blx	r3
			ns = *(dj->fn+NS);
  40388a:	f8da 3018 	ldr.w	r3, [sl, #24]
  40388e:	7ada      	ldrb	r2, [r3, #11]
			if (res != FR_OK) {				/* Failed to find the object */
  403890:	4603      	mov	r3, r0
  403892:	2800      	cmp	r0, #0
  403894:	d138      	bne.n	403908 <follow_path+0x2d0>
			if (ns & NS_LAST) break;			/* Last segment match. Function completed. */
  403896:	f012 0f04 	tst.w	r2, #4
  40389a:	d146      	bne.n	40392a <follow_path+0x2f2>
			dir = dj->dir;						/* There is next segment. Follow the sub directory */
  40389c:	f8da 3014 	ldr.w	r3, [sl, #20]
			if (!(dir[DIR_Attr] & AM_DIR)) {	/* Cannot follow because it is a file */
  4038a0:	7ada      	ldrb	r2, [r3, #11]
  4038a2:	f012 0f10 	tst.w	r2, #16
  4038a6:	d038      	beq.n	40391a <follow_path+0x2e2>
			dj->sclust = LD_CLUST(dir);
  4038a8:	7d59      	ldrb	r1, [r3, #21]
  4038aa:	7d1a      	ldrb	r2, [r3, #20]
  4038ac:	ea42 2201 	orr.w	r2, r2, r1, lsl #8
  4038b0:	7ed9      	ldrb	r1, [r3, #27]
  4038b2:	7e9b      	ldrb	r3, [r3, #26]
  4038b4:	ea43 2301 	orr.w	r3, r3, r1, lsl #8
  4038b8:	ea43 4302 	orr.w	r3, r3, r2, lsl #16
  4038bc:	f8ca 3008 	str.w	r3, [sl, #8]
	for (p = *path; *p == '/' || *p == '\\'; p++) ;	/* Strip duplicated separator */
  4038c0:	782b      	ldrb	r3, [r5, #0]
  4038c2:	2b2f      	cmp	r3, #47	; 0x2f
  4038c4:	d001      	beq.n	4038ca <follow_path+0x292>
  4038c6:	2b5c      	cmp	r3, #92	; 0x5c
  4038c8:	d105      	bne.n	4038d6 <follow_path+0x29e>
  4038ca:	f815 3f01 	ldrb.w	r3, [r5, #1]!
  4038ce:	2b2f      	cmp	r3, #47	; 0x2f
  4038d0:	d0fb      	beq.n	4038ca <follow_path+0x292>
  4038d2:	2b5c      	cmp	r3, #92	; 0x5c
  4038d4:	d0f9      	beq.n	4038ca <follow_path+0x292>
	lfn = dj->lfn;
  4038d6:	f8da 901c 	ldr.w	r9, [sl, #28]
		w = p[si++];					/* Get a character */
  4038da:	7828      	ldrb	r0, [r5, #0]
		if (w < ' ' || w == '/' || w == '\\') break;	/* Break on end of segment */
  4038dc:	282f      	cmp	r0, #47	; 0x2f
  4038de:	bf18      	it	ne
  4038e0:	281f      	cmpne	r0, #31
  4038e2:	d91e      	bls.n	403922 <follow_path+0x2ea>
  4038e4:	285c      	cmp	r0, #92	; 0x5c
  4038e6:	d01c      	beq.n	403922 <follow_path+0x2ea>
  4038e8:	f1a9 0702 	sub.w	r7, r9, #2
  4038ec:	462e      	mov	r6, r5
  4038ee:	2401      	movs	r4, #1
		w = ff_convert(w, 1);			/* Convert ANSI/OEM to Unicode */
  4038f0:	46a0      	mov	r8, r4
  4038f2:	e6d2      	b.n	40369a <follow_path+0x62>
	if (ni == 8) b <<= 2;
  4038f4:	9b01      	ldr	r3, [sp, #4]
  4038f6:	ea4f 0983 	mov.w	r9, r3, lsl #2
  4038fa:	fa5f f389 	uxtb.w	r3, r9
  4038fe:	9301      	str	r3, [sp, #4]
  403900:	e7a5      	b.n	40384e <follow_path+0x216>
		cf |= NS_LFN;
  403902:	f046 0602 	orr.w	r6, r6, #2
  403906:	e7ab      	b.n	403860 <follow_path+0x228>
				if (res != FR_NO_FILE) break;	/* Abort if any hard error occured */
  403908:	2804      	cmp	r0, #4
  40390a:	d10e      	bne.n	40392a <follow_path+0x2f2>
					if (!(ns & NS_LAST)) res = FR_NO_PATH;
  40390c:	f002 0204 	and.w	r2, r2, #4
  403910:	2a00      	cmp	r2, #0
  403912:	bf14      	ite	ne
  403914:	4603      	movne	r3, r0
  403916:	2305      	moveq	r3, #5
  403918:	e007      	b.n	40392a <follow_path+0x2f2>
				res = FR_NO_PATH; break;
  40391a:	2305      	movs	r3, #5
  40391c:	e005      	b.n	40392a <follow_path+0x2f2>
					if (!(ns & NS_LAST)) res = FR_NO_PATH;
  40391e:	2306      	movs	r3, #6
	return res;
  403920:	e003      	b.n	40392a <follow_path+0x2f2>
	*path = &p[si];						/* Return pointer to the next segment */
  403922:	3501      	adds	r5, #1
	cf = (w < ' ') ? NS_LAST : 0;		/* Set last segment flag if end of path */
  403924:	281f      	cmp	r0, #31
  403926:	d804      	bhi.n	403932 <follow_path+0x2fa>
  403928:	2306      	movs	r3, #6
}
  40392a:	4618      	mov	r0, r3
  40392c:	b003      	add	sp, #12
  40392e:	e8bd 8ff0 	ldmia.w	sp!, {r4, r5, r6, r7, r8, r9, sl, fp, pc}
	si = di = 0;
  403932:	2400      	movs	r4, #0
	cf = (w < ' ') ? NS_LAST : 0;		/* Set last segment flag if end of path */
  403934:	4626      	mov	r6, r4
  403936:	e6ca      	b.n	4036ce <follow_path+0x96>
			cf |= NS_LFN;				/* Force create LFN entry */
  403938:	f046 0602 	orr.w	r6, r6, #2
  40393c:	e765      	b.n	40380a <follow_path+0x1d2>
  40393e:	bf00      	nop
  403940:	00402c9d 	.word	0x00402c9d
  403944:	00409931 	.word	0x00409931
  403948:	004026ad 	.word	0x004026ad
  40394c:	0040993d 	.word	0x0040993d
  403950:	004098b0 	.word	0x004098b0
  403954:	004030e9 	.word	0x004030e9
  403958:	00404289 	.word	0x00404289

0040395c <f_mount>:
)
{
	FATFS *rfs;


	if (vol >= _VOLUMES)		/* Check if the drive number is valid */
  40395c:	2807      	cmp	r0, #7
  40395e:	d901      	bls.n	403964 <f_mount+0x8>
		return FR_INVALID_DRIVE;
  403960:	200b      	movs	r0, #11
#endif
	}
	FatFs[vol] = fs;			/* Register new fs object */

	return FR_OK;
}
  403962:	4770      	bx	lr
	rfs = FatFs[vol];			/* Get current fs object */
  403964:	4b06      	ldr	r3, [pc, #24]	; (403980 <f_mount+0x24>)
  403966:	f853 3020 	ldr.w	r3, [r3, r0, lsl #2]
	if (rfs) {
  40396a:	b10b      	cbz	r3, 403970 <f_mount+0x14>
		rfs->fs_type = 0;		/* Clear old fs object */
  40396c:	2200      	movs	r2, #0
  40396e:	701a      	strb	r2, [r3, #0]
	if (fs) {
  403970:	b109      	cbz	r1, 403976 <f_mount+0x1a>
		fs->fs_type = 0;		/* Clear new fs object */
  403972:	2300      	movs	r3, #0
  403974:	700b      	strb	r3, [r1, #0]
	FatFs[vol] = fs;			/* Register new fs object */
  403976:	4b02      	ldr	r3, [pc, #8]	; (403980 <f_mount+0x24>)
  403978:	f843 1020 	str.w	r1, [r3, r0, lsl #2]
	return FR_OK;
  40397c:	2000      	movs	r0, #0
  40397e:	4770      	bx	lr
  403980:	20400a94 	.word	0x20400a94

00403984 <f_open>:
FRESULT f_open (
	FIL *fp,			/* Pointer to the blank file object */
	const TCHAR *path,	/* Pointer to the file name */
	BYTE mode			/* Access mode and file open mode flags */
)
{
  403984:	e92d 41f0 	stmdb	sp!, {r4, r5, r6, r7, r8, lr}
  403988:	f5ad 7d0e 	sub.w	sp, sp, #568	; 0x238
  40398c:	4605      	mov	r5, r0
  40398e:	9101      	str	r1, [sp, #4]
  403990:	4616      	mov	r6, r2
	DIR dj;
	BYTE *dir;
	DEF_NAMEBUF;


	fp->fs = 0;			/* Clear file object */
  403992:	2300      	movs	r3, #0
  403994:	6003      	str	r3, [r0, #0]

#if !_FS_READONLY
	mode &= FA_READ | FA_WRITE | FA_CREATE_ALWAYS | FA_OPEN_ALWAYS | FA_CREATE_NEW;
  403996:	f002 071f 	and.w	r7, r2, #31
	res = chk_mounted(&path, &dj.fs, (BYTE)(mode & ~FA_READ));
  40399a:	f002 021e 	and.w	r2, r2, #30
  40399e:	a985      	add	r1, sp, #532	; 0x214
  4039a0:	a801      	add	r0, sp, #4
  4039a2:	4b58      	ldr	r3, [pc, #352]	; (403b04 <f_open+0x180>)
  4039a4:	4798      	blx	r3
#else
	mode &= FA_READ;
	res = chk_mounted(&path, &dj.fs, 0);
#endif
	INIT_BUF(dj);
  4039a6:	ab82      	add	r3, sp, #520	; 0x208
  4039a8:	938b      	str	r3, [sp, #556]	; 0x22c
  4039aa:	ab02      	add	r3, sp, #8
  4039ac:	938c      	str	r3, [sp, #560]	; 0x230
	if (res == FR_OK)
  4039ae:	b168      	cbz	r0, 4039cc <f_open+0x48>
  4039b0:	4603      	mov	r3, r0
		res = follow_path(&dj, path);	/* Follow the file path */
	dir = dj.dir;
  4039b2:	9c8a      	ldr	r4, [sp, #552]	; 0x228
		else
			res = chk_lock(&dj, (mode & ~FA_READ) ? 1 : 0);
#endif
	}
	/* Create or Open a file */
	if (mode & (FA_CREATE_ALWAYS | FA_OPEN_ALWAYS | FA_CREATE_NEW)) {
  4039b4:	f016 0f1c 	tst.w	r6, #28
  4039b8:	d158      	bne.n	403a6c <f_open+0xe8>
				}
			}
		}
	}
	else {	/* Open an existing file */
		if (res == FR_OK) {						/* Follow succeeded */
  4039ba:	2b00      	cmp	r3, #0
  4039bc:	f040 8096 	bne.w	403aec <f_open+0x168>
			if (dir[DIR_Attr] & AM_DIR) {		/* It is a directory */
  4039c0:	7ae3      	ldrb	r3, [r4, #11]
  4039c2:	f013 0f10 	tst.w	r3, #16
  4039c6:	d062      	beq.n	403a8e <f_open+0x10a>
				res = FR_NO_FILE;
  4039c8:	2304      	movs	r3, #4
  4039ca:	e08f      	b.n	403aec <f_open+0x168>
		res = follow_path(&dj, path);	/* Follow the file path */
  4039cc:	9901      	ldr	r1, [sp, #4]
  4039ce:	a885      	add	r0, sp, #532	; 0x214
  4039d0:	4b4d      	ldr	r3, [pc, #308]	; (403b08 <f_open+0x184>)
  4039d2:	4798      	blx	r3
  4039d4:	4603      	mov	r3, r0
	dir = dj.dir;
  4039d6:	9c8a      	ldr	r4, [sp, #552]	; 0x228
		if (!dir)	/* Current dir itself */
  4039d8:	b934      	cbnz	r4, 4039e8 <f_open+0x64>
  4039da:	b928      	cbnz	r0, 4039e8 <f_open+0x64>
	if (mode & (FA_CREATE_ALWAYS | FA_OPEN_ALWAYS | FA_CREATE_NEW)) {
  4039dc:	f016 0f1c 	tst.w	r6, #28
  4039e0:	f040 8089 	bne.w	403af6 <f_open+0x172>
			res = FR_INVALID_NAME;
  4039e4:	2306      	movs	r3, #6
  4039e6:	e046      	b.n	403a76 <f_open+0xf2>
	if (mode & (FA_CREATE_ALWAYS | FA_OPEN_ALWAYS | FA_CREATE_NEW)) {
  4039e8:	f016 0f1c 	tst.w	r6, #28
  4039ec:	d0e5      	beq.n	4039ba <f_open+0x36>
		if (res != FR_OK) {					/* No file, create new */
  4039ee:	2b00      	cmp	r3, #0
  4039f0:	d13c      	bne.n	403a6c <f_open+0xe8>
			if (dir[DIR_Attr] & (AM_RDO | AM_DIR)) {	/* Cannot overwrite it (R/O or DIR) */
  4039f2:	7ae3      	ldrb	r3, [r4, #11]
  4039f4:	f013 0f11 	tst.w	r3, #17
  4039f8:	d17f      	bne.n	403afa <f_open+0x176>
				if (mode & FA_CREATE_NEW)	/* Cannot create as new file */
  4039fa:	f016 0f04 	tst.w	r6, #4
  4039fe:	d17e      	bne.n	403afe <f_open+0x17a>
		if (res == FR_OK && (mode & FA_CREATE_ALWAYS)) {	/* Truncate it if overwrite mode */
  403a00:	f017 0f08 	tst.w	r7, #8
  403a04:	d050      	beq.n	403aa8 <f_open+0x124>
			dw = get_fattime();					/* Created time */
  403a06:	4b41      	ldr	r3, [pc, #260]	; (403b0c <f_open+0x188>)
  403a08:	4798      	blx	r3
			ST_DWORD(dir+DIR_CrtTime, dw);
  403a0a:	73a0      	strb	r0, [r4, #14]
  403a0c:	f3c0 2307 	ubfx	r3, r0, #8, #8
  403a10:	73e3      	strb	r3, [r4, #15]
  403a12:	0c03      	lsrs	r3, r0, #16
  403a14:	7423      	strb	r3, [r4, #16]
  403a16:	0e00      	lsrs	r0, r0, #24
  403a18:	7460      	strb	r0, [r4, #17]
			dir[DIR_Attr] = 0;					/* Reset attribute */
  403a1a:	2300      	movs	r3, #0
  403a1c:	72e3      	strb	r3, [r4, #11]
			ST_DWORD(dir+DIR_FileSize, 0);		/* size = 0 */
  403a1e:	7723      	strb	r3, [r4, #28]
  403a20:	7763      	strb	r3, [r4, #29]
  403a22:	77a3      	strb	r3, [r4, #30]
  403a24:	77e3      	strb	r3, [r4, #31]
			cl = LD_CLUST(dir);					/* Get start cluster */
  403a26:	7d62      	ldrb	r2, [r4, #21]
  403a28:	7d26      	ldrb	r6, [r4, #20]
  403a2a:	ea46 2602 	orr.w	r6, r6, r2, lsl #8
  403a2e:	7ee1      	ldrb	r1, [r4, #27]
  403a30:	7ea2      	ldrb	r2, [r4, #26]
  403a32:	ea42 2201 	orr.w	r2, r2, r1, lsl #8
			ST_CLUST(dir, 0);					/* cluster = 0 */
  403a36:	76a3      	strb	r3, [r4, #26]
  403a38:	76e3      	strb	r3, [r4, #27]
  403a3a:	7523      	strb	r3, [r4, #20]
  403a3c:	7563      	strb	r3, [r4, #21]
			dj.fs->wflag = 1;
  403a3e:	9885      	ldr	r0, [sp, #532]	; 0x214
  403a40:	2301      	movs	r3, #1
  403a42:	7103      	strb	r3, [r0, #4]
			if (cl) {							/* Remove the cluster chain if exist */
  403a44:	ea52 4606 	orrs.w	r6, r2, r6, lsl #16
  403a48:	d02c      	beq.n	403aa4 <f_open+0x120>
				dw = dj.fs->winsect;
  403a4a:	f8d0 802c 	ldr.w	r8, [r0, #44]	; 0x2c
				res = remove_chain(dj.fs, cl);
  403a4e:	4631      	mov	r1, r6
  403a50:	4b2f      	ldr	r3, [pc, #188]	; (403b10 <f_open+0x18c>)
  403a52:	4798      	blx	r3
				if (res == FR_OK) {
  403a54:	4603      	mov	r3, r0
  403a56:	2800      	cmp	r0, #0
  403a58:	d148      	bne.n	403aec <f_open+0x168>
					dj.fs->last_clust = cl - 1;	/* Reuse the cluster hole */
  403a5a:	9885      	ldr	r0, [sp, #532]	; 0x214
  403a5c:	3e01      	subs	r6, #1
  403a5e:	60c6      	str	r6, [r0, #12]
					res = move_window(dj.fs, dw);
  403a60:	4641      	mov	r1, r8
  403a62:	4b2c      	ldr	r3, [pc, #176]	; (403b14 <f_open+0x190>)
  403a64:	4798      	blx	r3
				if ((mode & FA_WRITE) && (dir[DIR_Attr] & AM_RDO)) /* R/O violation */
					res = FR_DENIED;
			}
		}
	}
	if (res == FR_OK) {
  403a66:	4603      	mov	r3, r0
  403a68:	b1e0      	cbz	r0, 403aa4 <f_open+0x120>
  403a6a:	e03f      	b.n	403aec <f_open+0x168>
			if (res == FR_NO_FILE)			/* There is no file to open, create a new entry */
  403a6c:	2b04      	cmp	r3, #4
  403a6e:	d004      	beq.n	403a7a <f_open+0xf6>
			mode |= FA_CREATE_ALWAYS;		/* File is created */
  403a70:	f047 0708 	orr.w	r7, r7, #8
			dir = dj.dir;					/* New entry */
  403a74:	9c8a      	ldr	r4, [sp, #552]	; 0x228
		}
	}
#endif
	FREE_BUF();

	if (res == FR_OK) {
  403a76:	b1db      	cbz	r3, 403ab0 <f_open+0x12c>
  403a78:	e038      	b.n	403aec <f_open+0x168>
				res = dir_register(&dj);
  403a7a:	a885      	add	r0, sp, #532	; 0x214
  403a7c:	4b26      	ldr	r3, [pc, #152]	; (403b18 <f_open+0x194>)
  403a7e:	4798      	blx	r3
			mode |= FA_CREATE_ALWAYS;		/* File is created */
  403a80:	f047 0708 	orr.w	r7, r7, #8
			dir = dj.dir;					/* New entry */
  403a84:	9c8a      	ldr	r4, [sp, #552]	; 0x228
		if (res == FR_OK && (mode & FA_CREATE_ALWAYS)) {	/* Truncate it if overwrite mode */
  403a86:	4603      	mov	r3, r0
  403a88:	2800      	cmp	r0, #0
  403a8a:	d0b9      	beq.n	403a00 <f_open+0x7c>
  403a8c:	e02e      	b.n	403aec <f_open+0x168>
				if ((mode & FA_WRITE) && (dir[DIR_Attr] & AM_RDO)) /* R/O violation */
  403a8e:	f016 0f02 	tst.w	r6, #2
  403a92:	d004      	beq.n	403a9e <f_open+0x11a>
  403a94:	f013 0f01 	tst.w	r3, #1
  403a98:	d001      	beq.n	403a9e <f_open+0x11a>
					res = FR_DENIED;
  403a9a:	2307      	movs	r3, #7
		fp->cltbl = 0;						/* Normal seek mode */
#endif
		fp->fs = dj.fs; fp->id = dj.fs->id;	/* Validate file object */
	}

	LEAVE_FF(dj.fs, res);
  403a9c:	e026      	b.n	403aec <f_open+0x168>
		if (mode & FA_CREATE_ALWAYS)			/* Set file change flag if created or overwritten */
  403a9e:	f016 0f08 	tst.w	r6, #8
  403aa2:	d001      	beq.n	403aa8 <f_open+0x124>
			mode |= FA__WRITTEN;
  403aa4:	f047 0720 	orr.w	r7, r7, #32
		fp->dir_sect = dj.fs->winsect;			/* Pointer to the directory entry */
  403aa8:	9b85      	ldr	r3, [sp, #532]	; 0x214
  403aaa:	6adb      	ldr	r3, [r3, #44]	; 0x2c
  403aac:	61eb      	str	r3, [r5, #28]
		fp->dir_ptr = dir;
  403aae:	622c      	str	r4, [r5, #32]
		fp->flag = mode;					/* File access mode */
  403ab0:	71af      	strb	r7, [r5, #6]
		fp->sclust = LD_CLUST(dir);			/* File start cluster */
  403ab2:	7d62      	ldrb	r2, [r4, #21]
  403ab4:	7d23      	ldrb	r3, [r4, #20]
  403ab6:	ea43 2202 	orr.w	r2, r3, r2, lsl #8
  403aba:	7ee1      	ldrb	r1, [r4, #27]
  403abc:	7ea3      	ldrb	r3, [r4, #26]
  403abe:	ea43 2301 	orr.w	r3, r3, r1, lsl #8
  403ac2:	ea43 4302 	orr.w	r3, r3, r2, lsl #16
  403ac6:	612b      	str	r3, [r5, #16]
		fp->fsize = LD_DWORD(dir+DIR_FileSize);	/* File size */
  403ac8:	7fe2      	ldrb	r2, [r4, #31]
  403aca:	7fa3      	ldrb	r3, [r4, #30]
  403acc:	041b      	lsls	r3, r3, #16
  403ace:	ea43 6302 	orr.w	r3, r3, r2, lsl #24
  403ad2:	7f22      	ldrb	r2, [r4, #28]
  403ad4:	4313      	orrs	r3, r2
  403ad6:	7f62      	ldrb	r2, [r4, #29]
  403ad8:	ea43 2302 	orr.w	r3, r3, r2, lsl #8
  403adc:	60eb      	str	r3, [r5, #12]
		fp->fptr = 0;						/* File pointer */
  403ade:	2300      	movs	r3, #0
  403ae0:	60ab      	str	r3, [r5, #8]
		fp->dsect = 0;
  403ae2:	61ab      	str	r3, [r5, #24]
		fp->fs = dj.fs; fp->id = dj.fs->id;	/* Validate file object */
  403ae4:	9a85      	ldr	r2, [sp, #532]	; 0x214
  403ae6:	602a      	str	r2, [r5, #0]
  403ae8:	88d2      	ldrh	r2, [r2, #6]
  403aea:	80aa      	strh	r2, [r5, #4]
}
  403aec:	4618      	mov	r0, r3
  403aee:	f50d 7d0e 	add.w	sp, sp, #568	; 0x238
  403af2:	e8bd 81f0 	ldmia.w	sp!, {r4, r5, r6, r7, r8, pc}
			res = FR_INVALID_NAME;
  403af6:	2306      	movs	r3, #6
  403af8:	e7ba      	b.n	403a70 <f_open+0xec>
				res = FR_DENIED;
  403afa:	2307      	movs	r3, #7
  403afc:	e7f6      	b.n	403aec <f_open+0x168>
					res = FR_EXIST;
  403afe:	2308      	movs	r3, #8
  403b00:	e7f4      	b.n	403aec <f_open+0x168>
  403b02:	bf00      	nop
  403b04:	004027b5 	.word	0x004027b5
  403b08:	00403639 	.word	0x00403639
  403b0c:	00402641 	.word	0x00402641
  403b10:	00402f35 	.word	0x00402f35
  403b14:	00402b25 	.word	0x00402b25
  403b18:	00403291 	.word	0x00403291

00403b1c <f_write>:
	FIL *fp,			/* Pointer to the file object */
	const void *buff,	/* Pointer to the data to be written */
	UINT btw,			/* Number of bytes to write */
	UINT *bw			/* Pointer to number of bytes written */
)
{
  403b1c:	e92d 4ff0 	stmdb	sp!, {r4, r5, r6, r7, r8, r9, sl, fp, lr}
  403b20:	b083      	sub	sp, #12
  403b22:	4604      	mov	r4, r0
  403b24:	4689      	mov	r9, r1
  403b26:	4616      	mov	r6, r2
  403b28:	4698      	mov	r8, r3
	UINT wcnt, cc;
	const BYTE *wbuff = buff;
	BYTE csect;


	*bw = 0;	/* Initialize byte counter */
  403b2a:	2300      	movs	r3, #0
  403b2c:	f8c8 3000 	str.w	r3, [r8]

	res = validate(fp->fs, fp->id);			/* Check validity */
  403b30:	8881      	ldrh	r1, [r0, #4]
  403b32:	6800      	ldr	r0, [r0, #0]
  403b34:	4b75      	ldr	r3, [pc, #468]	; (403d0c <f_write+0x1f0>)
  403b36:	4798      	blx	r3
	if (res != FR_OK) LEAVE_FF(fp->fs, res);
  403b38:	9001      	str	r0, [sp, #4]
  403b3a:	2800      	cmp	r0, #0
  403b3c:	f040 80e2 	bne.w	403d04 <f_write+0x1e8>
	if (fp->flag & FA__ERROR)				/* Aborted file? */
  403b40:	79a3      	ldrb	r3, [r4, #6]
  403b42:	f013 0f80 	tst.w	r3, #128	; 0x80
  403b46:	f040 80db 	bne.w	403d00 <f_write+0x1e4>
		LEAVE_FF(fp->fs, FR_INT_ERR);
	if (!(fp->flag & FA_WRITE))				/* Check access mode */
  403b4a:	f013 0f02 	tst.w	r3, #2
  403b4e:	d102      	bne.n	403b56 <f_write+0x3a>
		LEAVE_FF(fp->fs, FR_DENIED);
  403b50:	2307      	movs	r3, #7
  403b52:	9301      	str	r3, [sp, #4]
  403b54:	e0d6      	b.n	403d04 <f_write+0x1e8>
	if ((DWORD)(fp->fsize + btw) < fp->fsize) btw = 0;	/* File size cannot reach 4GB */
  403b56:	68e3      	ldr	r3, [r4, #12]
  403b58:	42f3      	cmn	r3, r6
  403b5a:	d20e      	bcs.n	403b7a <f_write+0x5e>

	for ( ;  btw;							/* Repeat until all data written */
  403b5c:	2e00      	cmp	r6, #0
  403b5e:	d174      	bne.n	403c4a <f_write+0x12e>
  403b60:	e00b      	b.n	403b7a <f_write+0x5e>
			csect = (BYTE)(fp->fptr / SS(fp->fs) & (fp->fs->csize - 1));	/* Sector offset in the cluster */
			if (!csect) {					/* On the cluster boundary? */
				if (fp->fptr == 0) {		/* On the top of the file? */
					clst = fp->sclust;		/* Follow from the origin */
					if (clst == 0)			/* When no cluster is allocated, */
						fp->sclust = clst = create_chain(fp->fs, 0);	/* Create a new cluster chain */
  403b62:	2100      	movs	r1, #0
  403b64:	4b6a      	ldr	r3, [pc, #424]	; (403d10 <f_write+0x1f4>)
  403b66:	4798      	blx	r3
  403b68:	4603      	mov	r3, r0
  403b6a:	6120      	str	r0, [r4, #16]
  403b6c:	e003      	b.n	403b76 <f_write+0x5a>
#if _USE_FASTSEEK
					if (fp->cltbl)
						clst = clmt_clust(fp, fp->fptr);	/* Get cluster# from the CLMT */
					else
#endif
						clst = create_chain(fp->fs, fp->clust);	/* Follow or stretch cluster chain on the FAT */
  403b6e:	6961      	ldr	r1, [r4, #20]
  403b70:	4b67      	ldr	r3, [pc, #412]	; (403d10 <f_write+0x1f4>)
  403b72:	4798      	blx	r3
  403b74:	4603      	mov	r3, r0
				}
				if (clst == 0) break;		/* Could not allocate a new cluster (disk full) */
  403b76:	2b00      	cmp	r3, #0
  403b78:	d17a      	bne.n	403c70 <f_write+0x154>
		mem_cpy(&fp->buf[fp->fptr % SS(fp->fs)], wbuff, wcnt);	/* Fit partial sector */
		fp->flag |= FA__DIRTY;
#endif
	}

	if (fp->fptr > fp->fsize) fp->fsize = fp->fptr;	/* Update file size if needed */
  403b7a:	68a3      	ldr	r3, [r4, #8]
  403b7c:	68e2      	ldr	r2, [r4, #12]
  403b7e:	4293      	cmp	r3, r2
  403b80:	bf88      	it	hi
  403b82:	60e3      	strhi	r3, [r4, #12]
	fp->flag |= FA__WRITTEN;						/* Set file change flag */
  403b84:	79a3      	ldrb	r3, [r4, #6]
  403b86:	f043 0320 	orr.w	r3, r3, #32
  403b8a:	71a3      	strb	r3, [r4, #6]

	LEAVE_FF(fp->fs, FR_OK);
  403b8c:	e0ba      	b.n	403d04 <f_write+0x1e8>
				if (clst == 1) ABORT(fp->fs, FR_INT_ERR);
  403b8e:	79a3      	ldrb	r3, [r4, #6]
  403b90:	f063 037f 	orn	r3, r3, #127	; 0x7f
  403b94:	71a3      	strb	r3, [r4, #6]
  403b96:	2302      	movs	r3, #2
  403b98:	9301      	str	r3, [sp, #4]
  403b9a:	e0b3      	b.n	403d04 <f_write+0x1e8>
				if (clst == 0xFFFFFFFF) ABORT(fp->fs, FR_DISK_ERR);
  403b9c:	79a3      	ldrb	r3, [r4, #6]
  403b9e:	f063 037f 	orn	r3, r3, #127	; 0x7f
  403ba2:	71a3      	strb	r3, [r4, #6]
  403ba4:	2301      	movs	r3, #1
  403ba6:	9301      	str	r3, [sp, #4]
  403ba8:	e0ac      	b.n	403d04 <f_write+0x1e8>
			if (fp->fs->winsect == fp->dsect && move_window(fp->fs, 0))	/* Write-back sector cache */
  403baa:	2100      	movs	r1, #0
  403bac:	4b59      	ldr	r3, [pc, #356]	; (403d14 <f_write+0x1f8>)
  403bae:	4798      	blx	r3
  403bb0:	2800      	cmp	r0, #0
  403bb2:	d068      	beq.n	403c86 <f_write+0x16a>
				ABORT(fp->fs, FR_DISK_ERR);
  403bb4:	79a3      	ldrb	r3, [r4, #6]
  403bb6:	f063 037f 	orn	r3, r3, #127	; 0x7f
  403bba:	71a3      	strb	r3, [r4, #6]
  403bbc:	2301      	movs	r3, #1
  403bbe:	9301      	str	r3, [sp, #4]
  403bc0:	e0a0      	b.n	403d04 <f_write+0x1e8>
			if (!sect) ABORT(fp->fs, FR_INT_ERR);
  403bc2:	79a3      	ldrb	r3, [r4, #6]
  403bc4:	f063 037f 	orn	r3, r3, #127	; 0x7f
  403bc8:	71a3      	strb	r3, [r4, #6]
  403bca:	2302      	movs	r3, #2
  403bcc:	9301      	str	r3, [sp, #4]
  403bce:	e099      	b.n	403d04 <f_write+0x1e8>
					ABORT(fp->fs, FR_DISK_ERR);
  403bd0:	79a3      	ldrb	r3, [r4, #6]
  403bd2:	f063 037f 	orn	r3, r3, #127	; 0x7f
  403bd6:	71a3      	strb	r3, [r4, #6]
  403bd8:	2301      	movs	r3, #1
  403bda:	9301      	str	r3, [sp, #4]
  403bdc:	e092      	b.n	403d04 <f_write+0x1e8>
					mem_cpy(fp->fs->win, wbuff + ((fp->fs->winsect - sect) * SS(fp->fs)), SS(fp->fs));
  403bde:	f44f 7200 	mov.w	r2, #512	; 0x200
  403be2:	eb09 2141 	add.w	r1, r9, r1, lsl #9
  403be6:	3030      	adds	r0, #48	; 0x30
  403be8:	4b4b      	ldr	r3, [pc, #300]	; (403d18 <f_write+0x1fc>)
  403bea:	4798      	blx	r3
					fp->fs->wflag = 0;
  403bec:	6823      	ldr	r3, [r4, #0]
  403bee:	2200      	movs	r2, #0
  403bf0:	711a      	strb	r2, [r3, #4]
  403bf2:	e06c      	b.n	403cce <f_write+0x1b2>
			if (fp->fptr >= fp->fsize) {	/* Avoid silly cache filling at growing edge */
  403bf4:	68a2      	ldr	r2, [r4, #8]
  403bf6:	68e3      	ldr	r3, [r4, #12]
  403bf8:	429a      	cmp	r2, r3
  403bfa:	d26b      	bcs.n	403cd4 <f_write+0x1b8>
			fp->dsect = sect;
  403bfc:	61a5      	str	r5, [r4, #24]
		wcnt = SS(fp->fs) - (fp->fptr % SS(fp->fs));/* Put partial sector into file I/O buffer */
  403bfe:	68a5      	ldr	r5, [r4, #8]
  403c00:	f3c5 0508 	ubfx	r5, r5, #0, #9
  403c04:	f5c5 7500 	rsb	r5, r5, #512	; 0x200
  403c08:	42b5      	cmp	r5, r6
  403c0a:	bf28      	it	cs
  403c0c:	4635      	movcs	r5, r6
		if (move_window(fp->fs, fp->dsect))	/* Move sector window */
  403c0e:	69a1      	ldr	r1, [r4, #24]
  403c10:	6820      	ldr	r0, [r4, #0]
  403c12:	4b40      	ldr	r3, [pc, #256]	; (403d14 <f_write+0x1f8>)
  403c14:	4798      	blx	r3
  403c16:	2800      	cmp	r0, #0
  403c18:	d16b      	bne.n	403cf2 <f_write+0x1d6>
		mem_cpy(&fp->fs->win[fp->fptr % SS(fp->fs)], wbuff, wcnt);	/* Fit partial sector */
  403c1a:	68a0      	ldr	r0, [r4, #8]
  403c1c:	f3c0 0008 	ubfx	r0, r0, #0, #9
  403c20:	3030      	adds	r0, #48	; 0x30
  403c22:	6823      	ldr	r3, [r4, #0]
  403c24:	462a      	mov	r2, r5
  403c26:	4649      	mov	r1, r9
  403c28:	4418      	add	r0, r3
  403c2a:	4b3b      	ldr	r3, [pc, #236]	; (403d18 <f_write+0x1fc>)
  403c2c:	4798      	blx	r3
		fp->fs->wflag = 1;
  403c2e:	6823      	ldr	r3, [r4, #0]
  403c30:	2201      	movs	r2, #1
  403c32:	711a      	strb	r2, [r3, #4]
		wbuff += wcnt, fp->fptr += wcnt, *bw += wcnt, btw -= wcnt) {
  403c34:	44a9      	add	r9, r5
  403c36:	68a3      	ldr	r3, [r4, #8]
  403c38:	442b      	add	r3, r5
  403c3a:	60a3      	str	r3, [r4, #8]
  403c3c:	f8d8 3000 	ldr.w	r3, [r8]
  403c40:	442b      	add	r3, r5
  403c42:	f8c8 3000 	str.w	r3, [r8]
	for ( ;  btw;							/* Repeat until all data written */
  403c46:	1b76      	subs	r6, r6, r5
  403c48:	d097      	beq.n	403b7a <f_write+0x5e>
		if ((fp->fptr % SS(fp->fs)) == 0) {	/* On the sector boundary? */
  403c4a:	68a2      	ldr	r2, [r4, #8]
  403c4c:	f3c2 0308 	ubfx	r3, r2, #0, #9
  403c50:	2b00      	cmp	r3, #0
  403c52:	d1d4      	bne.n	403bfe <f_write+0xe2>
			csect = (BYTE)(fp->fptr / SS(fp->fs) & (fp->fs->csize - 1));	/* Sector offset in the cluster */
  403c54:	6820      	ldr	r0, [r4, #0]
  403c56:	7883      	ldrb	r3, [r0, #2]
  403c58:	3b01      	subs	r3, #1
  403c5a:	ea03 2352 	and.w	r3, r3, r2, lsr #9
			if (!csect) {					/* On the cluster boundary? */
  403c5e:	f013 07ff 	ands.w	r7, r3, #255	; 0xff
  403c62:	d10b      	bne.n	403c7c <f_write+0x160>
				if (fp->fptr == 0) {		/* On the top of the file? */
  403c64:	2a00      	cmp	r2, #0
  403c66:	d182      	bne.n	403b6e <f_write+0x52>
					clst = fp->sclust;		/* Follow from the origin */
  403c68:	6923      	ldr	r3, [r4, #16]
					if (clst == 0)			/* When no cluster is allocated, */
  403c6a:	2b00      	cmp	r3, #0
  403c6c:	f43f af79 	beq.w	403b62 <f_write+0x46>
				if (clst == 1) ABORT(fp->fs, FR_INT_ERR);
  403c70:	2b01      	cmp	r3, #1
  403c72:	d08c      	beq.n	403b8e <f_write+0x72>
				if (clst == 0xFFFFFFFF) ABORT(fp->fs, FR_DISK_ERR);
  403c74:	f1b3 3fff 	cmp.w	r3, #4294967295
  403c78:	d090      	beq.n	403b9c <f_write+0x80>
				fp->clust = clst;			/* Update current cluster */
  403c7a:	6163      	str	r3, [r4, #20]
			if (fp->fs->winsect == fp->dsect && move_window(fp->fs, 0))	/* Write-back sector cache */
  403c7c:	6820      	ldr	r0, [r4, #0]
  403c7e:	6ac2      	ldr	r2, [r0, #44]	; 0x2c
  403c80:	69a3      	ldr	r3, [r4, #24]
  403c82:	429a      	cmp	r2, r3
  403c84:	d091      	beq.n	403baa <f_write+0x8e>
			sect = clust2sect(fp->fs, fp->clust);	/* Get current sector */
  403c86:	f8d4 a000 	ldr.w	sl, [r4]
  403c8a:	6961      	ldr	r1, [r4, #20]
  403c8c:	4650      	mov	r0, sl
  403c8e:	4b23      	ldr	r3, [pc, #140]	; (403d1c <f_write+0x200>)
  403c90:	4798      	blx	r3
			if (!sect) ABORT(fp->fs, FR_INT_ERR);
  403c92:	4605      	mov	r5, r0
  403c94:	2800      	cmp	r0, #0
  403c96:	d094      	beq.n	403bc2 <f_write+0xa6>
			sect += csect;
  403c98:	443d      	add	r5, r7
			if (cc) {						/* Write maximum contiguous sectors directly */
  403c9a:	ea5f 2b56 	movs.w	fp, r6, lsr #9
  403c9e:	d0a9      	beq.n	403bf4 <f_write+0xd8>
				if (csect + cc > fp->fs->csize)	/* Clip at cluster boundary */
  403ca0:	f89a 3002 	ldrb.w	r3, [sl, #2]
  403ca4:	eb07 020b 	add.w	r2, r7, fp
  403ca8:	429a      	cmp	r2, r3
					cc = fp->fs->csize - csect;
  403caa:	bf88      	it	hi
  403cac:	eba3 0b07 	subhi.w	fp, r3, r7
				if (disk_write(fp->fs->drv, wbuff, sect, (BYTE)cc) != RES_OK)
  403cb0:	fa5f f38b 	uxtb.w	r3, fp
  403cb4:	462a      	mov	r2, r5
  403cb6:	4649      	mov	r1, r9
  403cb8:	f89a 0001 	ldrb.w	r0, [sl, #1]
  403cbc:	4f18      	ldr	r7, [pc, #96]	; (403d20 <f_write+0x204>)
  403cbe:	47b8      	blx	r7
  403cc0:	2800      	cmp	r0, #0
  403cc2:	d185      	bne.n	403bd0 <f_write+0xb4>
				if (fp->fs->winsect - sect < cc) {	/* Refill sector cache if it gets invalidated by the direct write */
  403cc4:	6820      	ldr	r0, [r4, #0]
  403cc6:	6ac1      	ldr	r1, [r0, #44]	; 0x2c
  403cc8:	1b49      	subs	r1, r1, r5
  403cca:	458b      	cmp	fp, r1
  403ccc:	d887      	bhi.n	403bde <f_write+0xc2>
				wcnt = SS(fp->fs) * cc;		/* Number of bytes transferred */
  403cce:	ea4f 254b 	mov.w	r5, fp, lsl #9
				continue;
  403cd2:	e7af      	b.n	403c34 <f_write+0x118>
				if (move_window(fp->fs, 0)) ABORT(fp->fs, FR_DISK_ERR);
  403cd4:	2100      	movs	r1, #0
  403cd6:	4650      	mov	r0, sl
  403cd8:	4b0e      	ldr	r3, [pc, #56]	; (403d14 <f_write+0x1f8>)
  403cda:	4798      	blx	r3
  403cdc:	b910      	cbnz	r0, 403ce4 <f_write+0x1c8>
				fp->fs->winsect = sect;
  403cde:	6823      	ldr	r3, [r4, #0]
  403ce0:	62dd      	str	r5, [r3, #44]	; 0x2c
  403ce2:	e78b      	b.n	403bfc <f_write+0xe0>
				if (move_window(fp->fs, 0)) ABORT(fp->fs, FR_DISK_ERR);
  403ce4:	79a3      	ldrb	r3, [r4, #6]
  403ce6:	f063 037f 	orn	r3, r3, #127	; 0x7f
  403cea:	71a3      	strb	r3, [r4, #6]
  403cec:	2301      	movs	r3, #1
  403cee:	9301      	str	r3, [sp, #4]
  403cf0:	e008      	b.n	403d04 <f_write+0x1e8>
			ABORT(fp->fs, FR_DISK_ERR);
  403cf2:	79a3      	ldrb	r3, [r4, #6]
  403cf4:	f063 037f 	orn	r3, r3, #127	; 0x7f
  403cf8:	71a3      	strb	r3, [r4, #6]
  403cfa:	2301      	movs	r3, #1
  403cfc:	9301      	str	r3, [sp, #4]
  403cfe:	e001      	b.n	403d04 <f_write+0x1e8>
		LEAVE_FF(fp->fs, FR_INT_ERR);
  403d00:	2302      	movs	r3, #2
  403d02:	9301      	str	r3, [sp, #4]
}
  403d04:	9801      	ldr	r0, [sp, #4]
  403d06:	b003      	add	sp, #12
  403d08:	e8bd 8ff0 	ldmia.w	sp!, {r4, r5, r6, r7, r8, r9, sl, fp, pc}
  403d0c:	004026f1 	.word	0x004026f1
  403d10:	00402e75 	.word	0x00402e75
  403d14:	00402b25 	.word	0x00402b25
  403d18:	00402699 	.word	0x00402699
  403d1c:	004026bb 	.word	0x004026bb
  403d20:	00402561 	.word	0x00402561

00403d24 <f_sync>:
/*-----------------------------------------------------------------------*/

FRESULT f_sync (
	FIL *fp		/* Pointer to the file object */
)
{
  403d24:	b538      	push	{r3, r4, r5, lr}
  403d26:	4604      	mov	r4, r0
	FRESULT res;
	DWORD tim;
	BYTE *dir;


	res = validate(fp->fs, fp->id);		/* Check validity of the object */
  403d28:	8881      	ldrh	r1, [r0, #4]
  403d2a:	6800      	ldr	r0, [r0, #0]
  403d2c:	4b1f      	ldr	r3, [pc, #124]	; (403dac <f_sync+0x88>)
  403d2e:	4798      	blx	r3
	if (res == FR_OK) {
  403d30:	4603      	mov	r3, r0
  403d32:	b918      	cbnz	r0, 403d3c <f_sync+0x18>
		if (fp->flag & FA__WRITTEN) {	/* Has the file been written? */
  403d34:	79a2      	ldrb	r2, [r4, #6]
  403d36:	f012 0f20 	tst.w	r2, #32
  403d3a:	d101      	bne.n	403d40 <f_sync+0x1c>
			}
		}
	}

	LEAVE_FF(fp->fs, res);
}
  403d3c:	4618      	mov	r0, r3
  403d3e:	bd38      	pop	{r3, r4, r5, pc}
			res = move_window(fp->fs, fp->dir_sect);
  403d40:	69e1      	ldr	r1, [r4, #28]
  403d42:	6820      	ldr	r0, [r4, #0]
  403d44:	4b1a      	ldr	r3, [pc, #104]	; (403db0 <f_sync+0x8c>)
  403d46:	4798      	blx	r3
			if (res == FR_OK) {
  403d48:	4603      	mov	r3, r0
  403d4a:	2800      	cmp	r0, #0
  403d4c:	d1f6      	bne.n	403d3c <f_sync+0x18>
				dir = fp->dir_ptr;
  403d4e:	6a25      	ldr	r5, [r4, #32]
				dir[DIR_Attr] |= AM_ARC;					/* Set archive bit */
  403d50:	7aeb      	ldrb	r3, [r5, #11]
  403d52:	f043 0320 	orr.w	r3, r3, #32
  403d56:	72eb      	strb	r3, [r5, #11]
				ST_DWORD(dir+DIR_FileSize, fp->fsize);		/* Update file size */
  403d58:	68e3      	ldr	r3, [r4, #12]
  403d5a:	772b      	strb	r3, [r5, #28]
  403d5c:	89a3      	ldrh	r3, [r4, #12]
  403d5e:	0a1b      	lsrs	r3, r3, #8
  403d60:	776b      	strb	r3, [r5, #29]
  403d62:	89e3      	ldrh	r3, [r4, #14]
  403d64:	77ab      	strb	r3, [r5, #30]
  403d66:	7be3      	ldrb	r3, [r4, #15]
  403d68:	77eb      	strb	r3, [r5, #31]
				ST_CLUST(dir, fp->sclust);					/* Update start cluster */
  403d6a:	6923      	ldr	r3, [r4, #16]
  403d6c:	76ab      	strb	r3, [r5, #26]
  403d6e:	8a23      	ldrh	r3, [r4, #16]
  403d70:	0a1b      	lsrs	r3, r3, #8
  403d72:	76eb      	strb	r3, [r5, #27]
  403d74:	8a63      	ldrh	r3, [r4, #18]
  403d76:	752b      	strb	r3, [r5, #20]
  403d78:	8a63      	ldrh	r3, [r4, #18]
  403d7a:	0a1b      	lsrs	r3, r3, #8
  403d7c:	756b      	strb	r3, [r5, #21]
				tim = get_fattime();						/* Update updated time */
  403d7e:	4b0d      	ldr	r3, [pc, #52]	; (403db4 <f_sync+0x90>)
  403d80:	4798      	blx	r3
				ST_DWORD(dir+DIR_WrtTime, tim);
  403d82:	75a8      	strb	r0, [r5, #22]
  403d84:	f3c0 2307 	ubfx	r3, r0, #8, #8
  403d88:	75eb      	strb	r3, [r5, #23]
  403d8a:	0c03      	lsrs	r3, r0, #16
  403d8c:	762b      	strb	r3, [r5, #24]
  403d8e:	0e00      	lsrs	r0, r0, #24
  403d90:	7668      	strb	r0, [r5, #25]
				fp->flag &= ~FA__WRITTEN;
  403d92:	79a3      	ldrb	r3, [r4, #6]
  403d94:	f023 0320 	bic.w	r3, r3, #32
  403d98:	71a3      	strb	r3, [r4, #6]
				fp->fs->wflag = 1;
  403d9a:	6823      	ldr	r3, [r4, #0]
  403d9c:	2201      	movs	r2, #1
  403d9e:	711a      	strb	r2, [r3, #4]
				res = sync(fp->fs);
  403da0:	6820      	ldr	r0, [r4, #0]
  403da2:	4b05      	ldr	r3, [pc, #20]	; (403db8 <f_sync+0x94>)
  403da4:	4798      	blx	r3
  403da6:	4603      	mov	r3, r0
  403da8:	e7c8      	b.n	403d3c <f_sync+0x18>
  403daa:	bf00      	nop
  403dac:	004026f1 	.word	0x004026f1
  403db0:	00402b25 	.word	0x00402b25
  403db4:	00402641 	.word	0x00402641
  403db8:	0040356d 	.word	0x0040356d

00403dbc <f_close>:
/*-----------------------------------------------------------------------*/

FRESULT f_close (
	FIL *fp		/* Pointer to the file object to be closed */
)
{
  403dbc:	b510      	push	{r4, lr}
  403dbe:	4604      	mov	r4, r0
	res = validate(fs, fp->id);
	if (res == FR_OK) fp->fs = 0;	/* Discard file object */
	LEAVE_FF(fs, res);

#else
	res = f_sync(fp);		/* Flush cached data */
  403dc0:	4b03      	ldr	r3, [pc, #12]	; (403dd0 <f_close+0x14>)
  403dc2:	4798      	blx	r3
#else
		res = dec_lock(fp->lockid);
#endif
	}
#endif
	if (res == FR_OK) fp->fs = 0;	/* Discard file object */
  403dc4:	4603      	mov	r3, r0
  403dc6:	b908      	cbnz	r0, 403dcc <f_close+0x10>
  403dc8:	2200      	movs	r2, #0
  403dca:	6022      	str	r2, [r4, #0]
	return res;
#endif
}
  403dcc:	4618      	mov	r0, r3
  403dce:	bd10      	pop	{r4, pc}
  403dd0:	00403d25 	.word	0x00403d25

00403dd4 <f_lseek>:

FRESULT f_lseek (
	FIL *fp,		/* Pointer to the file object */
	DWORD ofs		/* File pointer from top of file */
)
{
  403dd4:	e92d 43f8 	stmdb	sp!, {r3, r4, r5, r6, r7, r8, r9, lr}
  403dd8:	4604      	mov	r4, r0
  403dda:	460d      	mov	r5, r1
	FRESULT res;


	res = validate(fp->fs, fp->id);		/* Check validity of the object */
  403ddc:	8881      	ldrh	r1, [r0, #4]
  403dde:	6800      	ldr	r0, [r0, #0]
  403de0:	4b4f      	ldr	r3, [pc, #316]	; (403f20 <f_lseek+0x14c>)
  403de2:	4798      	blx	r3
	if (res != FR_OK) LEAVE_FF(fp->fs, res);
  403de4:	4607      	mov	r7, r0
  403de6:	2800      	cmp	r0, #0
  403de8:	f040 8096 	bne.w	403f18 <f_lseek+0x144>
	if (fp->flag & FA__ERROR)			/* Check abort flag */
  403dec:	79a3      	ldrb	r3, [r4, #6]
  403dee:	f013 0f80 	tst.w	r3, #128	; 0x80
  403df2:	f040 8090 	bne.w	403f16 <f_lseek+0x142>

	/* Normal Seek */
	{
		DWORD clst, bcs, nsect, ifptr;

		if (ofs > fp->fsize					/* In read-only mode, clip offset with the file size */
  403df6:	68e2      	ldr	r2, [r4, #12]
  403df8:	42aa      	cmp	r2, r5
  403dfa:	d204      	bcs.n	403e06 <f_lseek+0x32>
#if !_FS_READONLY
			 && !(fp->flag & FA_WRITE)
  403dfc:	f003 0302 	and.w	r3, r3, #2
#endif
			) ofs = fp->fsize;
  403e00:	2b00      	cmp	r3, #0
  403e02:	bf08      	it	eq
  403e04:	4615      	moveq	r5, r2

		ifptr = fp->fptr;
  403e06:	68a3      	ldr	r3, [r4, #8]
		fp->fptr = nsect = 0;
  403e08:	2200      	movs	r2, #0
  403e0a:	60a2      	str	r2, [r4, #8]
		if (ofs) {
  403e0c:	2d00      	cmp	r5, #0
  403e0e:	f000 8083 	beq.w	403f18 <f_lseek+0x144>
			bcs = (DWORD)fp->fs->csize * SS(fp->fs);	/* Cluster size (byte) */
  403e12:	6820      	ldr	r0, [r4, #0]
  403e14:	7886      	ldrb	r6, [r0, #2]
  403e16:	0276      	lsls	r6, r6, #9
			if (ifptr > 0 &&
  403e18:	b16b      	cbz	r3, 403e36 <f_lseek+0x62>
				(ofs - 1) / bcs >= (ifptr - 1) / bcs) {	/* When seek to same or following cluster, */
  403e1a:	3b01      	subs	r3, #1
  403e1c:	1e6a      	subs	r2, r5, #1
  403e1e:	fbb2 f2f6 	udiv	r2, r2, r6
  403e22:	fbb3 f1f6 	udiv	r1, r3, r6
			if (ifptr > 0 &&
  403e26:	428a      	cmp	r2, r1
  403e28:	d305      	bcc.n	403e36 <f_lseek+0x62>
				fp->fptr = (ifptr - 1) & ~(bcs - 1);	/* start from the current cluster */
  403e2a:	4272      	negs	r2, r6
  403e2c:	4013      	ands	r3, r2
  403e2e:	60a3      	str	r3, [r4, #8]
				ofs -= fp->fptr;
  403e30:	1aed      	subs	r5, r5, r3
				clst = fp->clust;
  403e32:	6961      	ldr	r1, [r4, #20]
  403e34:	e002      	b.n	403e3c <f_lseek+0x68>
			} else {									/* When seek to back cluster, */
				clst = fp->sclust;						/* start from the first cluster */
  403e36:	6921      	ldr	r1, [r4, #16]
#if !_FS_READONLY
				if (clst == 0) {						/* If no cluster chain, create a new chain */
  403e38:	b149      	cbz	r1, 403e4e <f_lseek+0x7a>
					if (clst == 1) ABORT(fp->fs, FR_INT_ERR);
					if (clst == 0xFFFFFFFF) ABORT(fp->fs, FR_DISK_ERR);
					fp->sclust = clst;
				}
#endif
				fp->clust = clst;
  403e3a:	6161      	str	r1, [r4, #20]
			}
			if (clst != 0) {
  403e3c:	2900      	cmp	r1, #0
  403e3e:	d059      	beq.n	403ef4 <f_lseek+0x120>
				while (ofs > bcs) {						/* Cluster following loop */
  403e40:	42b5      	cmp	r5, r6
  403e42:	d937      	bls.n	403eb4 <f_lseek+0xe0>
#if !_FS_READONLY
					if (fp->flag & FA_WRITE) {			/* Check if in write mode or not */
						clst = create_chain(fp->fs, clst);	/* Force stretch if in write mode */
  403e44:	f8df 90dc 	ldr.w	r9, [pc, #220]	; 403f24 <f_lseek+0x150>
						if (clst == 0) {				/* When disk gets full, clip file size */
							ofs = bcs; break;
						}
					} else
#endif
						clst = get_fat(fp->fs, clst);	/* Follow cluster chain if not in write mode */
  403e48:	f8df 80e0 	ldr.w	r8, [pc, #224]	; 403f2c <f_lseek+0x158>
  403e4c:	e028      	b.n	403ea0 <f_lseek+0xcc>
					clst = create_chain(fp->fs, 0);
  403e4e:	4b35      	ldr	r3, [pc, #212]	; (403f24 <f_lseek+0x150>)
  403e50:	4798      	blx	r3
  403e52:	4601      	mov	r1, r0
					if (clst == 1) ABORT(fp->fs, FR_INT_ERR);
  403e54:	2801      	cmp	r0, #1
  403e56:	d004      	beq.n	403e62 <f_lseek+0x8e>
					if (clst == 0xFFFFFFFF) ABORT(fp->fs, FR_DISK_ERR);
  403e58:	f1b0 3fff 	cmp.w	r0, #4294967295
  403e5c:	d007      	beq.n	403e6e <f_lseek+0x9a>
					fp->sclust = clst;
  403e5e:	6120      	str	r0, [r4, #16]
  403e60:	e7eb      	b.n	403e3a <f_lseek+0x66>
					if (clst == 1) ABORT(fp->fs, FR_INT_ERR);
  403e62:	79a3      	ldrb	r3, [r4, #6]
  403e64:	f063 037f 	orn	r3, r3, #127	; 0x7f
  403e68:	71a3      	strb	r3, [r4, #6]
  403e6a:	2702      	movs	r7, #2
  403e6c:	e054      	b.n	403f18 <f_lseek+0x144>
					if (clst == 0xFFFFFFFF) ABORT(fp->fs, FR_DISK_ERR);
  403e6e:	79a3      	ldrb	r3, [r4, #6]
  403e70:	f063 037f 	orn	r3, r3, #127	; 0x7f
  403e74:	71a3      	strb	r3, [r4, #6]
  403e76:	2701      	movs	r7, #1
  403e78:	e04e      	b.n	403f18 <f_lseek+0x144>
						clst = get_fat(fp->fs, clst);	/* Follow cluster chain if not in write mode */
  403e7a:	6820      	ldr	r0, [r4, #0]
  403e7c:	47c0      	blx	r8
  403e7e:	4601      	mov	r1, r0
					if (clst == 0xFFFFFFFF) ABORT(fp->fs, FR_DISK_ERR);
  403e80:	f1b1 3fff 	cmp.w	r1, #4294967295
  403e84:	d026      	beq.n	403ed4 <f_lseek+0x100>
					if (clst <= 1 || clst >= fp->fs->n_fatent) ABORT(fp->fs, FR_INT_ERR);
  403e86:	2901      	cmp	r1, #1
  403e88:	d92a      	bls.n	403ee0 <f_lseek+0x10c>
  403e8a:	6823      	ldr	r3, [r4, #0]
  403e8c:	699b      	ldr	r3, [r3, #24]
  403e8e:	4299      	cmp	r1, r3
  403e90:	d226      	bcs.n	403ee0 <f_lseek+0x10c>
					fp->clust = clst;
  403e92:	6161      	str	r1, [r4, #20]
					fp->fptr += bcs;
  403e94:	68a3      	ldr	r3, [r4, #8]
  403e96:	4433      	add	r3, r6
  403e98:	60a3      	str	r3, [r4, #8]
					ofs -= bcs;
  403e9a:	1bad      	subs	r5, r5, r6
				while (ofs > bcs) {						/* Cluster following loop */
  403e9c:	42ae      	cmp	r6, r5
  403e9e:	d209      	bcs.n	403eb4 <f_lseek+0xe0>
					if (fp->flag & FA_WRITE) {			/* Check if in write mode or not */
  403ea0:	79a3      	ldrb	r3, [r4, #6]
  403ea2:	f013 0f02 	tst.w	r3, #2
  403ea6:	d0e8      	beq.n	403e7a <f_lseek+0xa6>
						clst = create_chain(fp->fs, clst);	/* Force stretch if in write mode */
  403ea8:	6820      	ldr	r0, [r4, #0]
  403eaa:	47c8      	blx	r9
						if (clst == 0) {				/* When disk gets full, clip file size */
  403eac:	4601      	mov	r1, r0
  403eae:	2800      	cmp	r0, #0
  403eb0:	d1e6      	bne.n	403e80 <f_lseek+0xac>
							ofs = bcs; break;
  403eb2:	4635      	mov	r5, r6
				}
				fp->fptr += ofs;
  403eb4:	68a3      	ldr	r3, [r4, #8]
  403eb6:	442b      	add	r3, r5
  403eb8:	60a3      	str	r3, [r4, #8]
				if (ofs % SS(fp->fs)) {
  403eba:	f3c5 0308 	ubfx	r3, r5, #0, #9
  403ebe:	b1c3      	cbz	r3, 403ef2 <f_lseek+0x11e>
					nsect = clust2sect(fp->fs, clst);	/* Current sector */
  403ec0:	6820      	ldr	r0, [r4, #0]
  403ec2:	4b19      	ldr	r3, [pc, #100]	; (403f28 <f_lseek+0x154>)
  403ec4:	4798      	blx	r3
					if (!nsect) ABORT(fp->fs, FR_INT_ERR);
  403ec6:	b988      	cbnz	r0, 403eec <f_lseek+0x118>
  403ec8:	79a3      	ldrb	r3, [r4, #6]
  403eca:	f063 037f 	orn	r3, r3, #127	; 0x7f
  403ece:	71a3      	strb	r3, [r4, #6]
  403ed0:	2702      	movs	r7, #2
  403ed2:	e021      	b.n	403f18 <f_lseek+0x144>
					if (clst == 0xFFFFFFFF) ABORT(fp->fs, FR_DISK_ERR);
  403ed4:	79a3      	ldrb	r3, [r4, #6]
  403ed6:	f063 037f 	orn	r3, r3, #127	; 0x7f
  403eda:	71a3      	strb	r3, [r4, #6]
  403edc:	2701      	movs	r7, #1
  403ede:	e01b      	b.n	403f18 <f_lseek+0x144>
					if (clst <= 1 || clst >= fp->fs->n_fatent) ABORT(fp->fs, FR_INT_ERR);
  403ee0:	79a3      	ldrb	r3, [r4, #6]
  403ee2:	f063 037f 	orn	r3, r3, #127	; 0x7f
  403ee6:	71a3      	strb	r3, [r4, #6]
  403ee8:	2702      	movs	r7, #2
  403eea:	e015      	b.n	403f18 <f_lseek+0x144>
					nsect += ofs / SS(fp->fs);
  403eec:	eb00 2155 	add.w	r1, r0, r5, lsr #9
  403ef0:	e000      	b.n	403ef4 <f_lseek+0x120>
		fp->fptr = nsect = 0;
  403ef2:	2100      	movs	r1, #0
				}
			}
		}
		if (fp->fptr % SS(fp->fs) && nsect != fp->dsect) {	/* Fill sector cache if needed */
  403ef4:	68a3      	ldr	r3, [r4, #8]
  403ef6:	f3c3 0208 	ubfx	r2, r3, #0, #9
  403efa:	b11a      	cbz	r2, 403f04 <f_lseek+0x130>
  403efc:	69a2      	ldr	r2, [r4, #24]
  403efe:	4291      	cmp	r1, r2
			}
#endif
			if (disk_read(fp->fs->drv, fp->buf, nsect, 1) != RES_OK)	/* Fill sector cache */
				ABORT(fp->fs, FR_DISK_ERR);
#endif
			fp->dsect = nsect;
  403f00:	bf18      	it	ne
  403f02:	61a1      	strne	r1, [r4, #24]
		}
#if !_FS_READONLY
		if (fp->fptr > fp->fsize) {			/* Set file change flag if the file size is extended */
  403f04:	68e2      	ldr	r2, [r4, #12]
  403f06:	4293      	cmp	r3, r2
  403f08:	d906      	bls.n	403f18 <f_lseek+0x144>
			fp->fsize = fp->fptr;
  403f0a:	60e3      	str	r3, [r4, #12]
			fp->flag |= FA__WRITTEN;
  403f0c:	79a3      	ldrb	r3, [r4, #6]
  403f0e:	f043 0320 	orr.w	r3, r3, #32
  403f12:	71a3      	strb	r3, [r4, #6]
  403f14:	e000      	b.n	403f18 <f_lseek+0x144>
		LEAVE_FF(fp->fs, FR_INT_ERR);
  403f16:	2702      	movs	r7, #2
		}
#endif
	}

	LEAVE_FF(fp->fs, res);
}
  403f18:	4638      	mov	r0, r7
  403f1a:	e8bd 83f8 	ldmia.w	sp!, {r3, r4, r5, r6, r7, r8, r9, pc}
  403f1e:	bf00      	nop
  403f20:	004026f1 	.word	0x004026f1
  403f24:	00402e75 	.word	0x00402e75
  403f28:	004026bb 	.word	0x004026bb
  403f2c:	00402bb5 	.word	0x00402bb5

00403f30 <f_putc>:
/*-----------------------------------------------------------------------*/
int f_putc (
	TCHAR c,	/* A character to be output */
	FIL* fil	/* Pointer to the file object */
)
{
  403f30:	b510      	push	{r4, lr}
  403f32:	b082      	sub	sp, #8
  403f34:	460c      	mov	r4, r1
			s[2] = (BYTE)(0x80 | (c & 0x3F));
			btw = 3;
		}
	}
#else				/* Write the character without conversion */
	s[0] = (BYTE)c;
  403f36:	f88d 0000 	strb.w	r0, [sp]
	btw = 1;
#endif
	f_write(fil, s, btw, &bw);		/* Write the char to the file */
  403f3a:	ab01      	add	r3, sp, #4
  403f3c:	2201      	movs	r2, #1
  403f3e:	4669      	mov	r1, sp
  403f40:	4620      	mov	r0, r4
  403f42:	4c05      	ldr	r4, [pc, #20]	; (403f58 <f_putc+0x28>)
  403f44:	47a0      	blx	r4
	return (bw == btw) ? 1 : EOF;	/* Return the result */
  403f46:	9b01      	ldr	r3, [sp, #4]
  403f48:	2b01      	cmp	r3, #1
}
  403f4a:	bf0c      	ite	eq
  403f4c:	2001      	moveq	r0, #1
  403f4e:	f04f 30ff 	movne.w	r0, #4294967295
  403f52:	b002      	add	sp, #8
  403f54:	bd10      	pop	{r4, pc}
  403f56:	bf00      	nop
  403f58:	00403b1d 	.word	0x00403b1d

00403f5c <f_puts>:
/*-----------------------------------------------------------------------*/
int f_puts (
	const TCHAR* str,	/* Pointer to the string to be output */
	FIL* fil			/* Pointer to the file object */
)
{
  403f5c:	b5f8      	push	{r3, r4, r5, r6, r7, lr}
	int n;


	for (n = 0; *str; str++, n++) {
  403f5e:	7803      	ldrb	r3, [r0, #0]
  403f60:	b17b      	cbz	r3, 403f82 <f_puts+0x26>
  403f62:	460e      	mov	r6, r1
  403f64:	4605      	mov	r5, r0
  403f66:	1c44      	adds	r4, r0, #1
		if (f_putc(*str, fil) == EOF) return EOF;
  403f68:	4f07      	ldr	r7, [pc, #28]	; (403f88 <f_puts+0x2c>)
  403f6a:	4631      	mov	r1, r6
  403f6c:	4618      	mov	r0, r3
  403f6e:	47b8      	blx	r7
  403f70:	f1b0 3fff 	cmp.w	r0, #4294967295
  403f74:	d006      	beq.n	403f84 <f_puts+0x28>
  403f76:	1b60      	subs	r0, r4, r5
	for (n = 0; *str; str++, n++) {
  403f78:	f814 3b01 	ldrb.w	r3, [r4], #1
  403f7c:	2b00      	cmp	r3, #0
  403f7e:	d1f4      	bne.n	403f6a <f_puts+0xe>
  403f80:	bdf8      	pop	{r3, r4, r5, r6, r7, pc}
  403f82:	2000      	movs	r0, #0
	}
	return n;
}
  403f84:	bdf8      	pop	{r3, r4, r5, r6, r7, pc}
  403f86:	bf00      	nop
  403f88:	00403f31 	.word	0x00403f31

00403f8c <f_printf>:
int f_printf (
	FIL* fil,			/* Pointer to the file object */
	const TCHAR* str,	/* Pointer to the format string */
	...					/* Optional arguments... */
)
{
  403f8c:	b40e      	push	{r1, r2, r3}
  403f8e:	e92d 4ff0 	stmdb	sp!, {r4, r5, r6, r7, r8, r9, sl, fp, lr}
  403f92:	b088      	sub	sp, #32
  403f94:	9001      	str	r0, [sp, #4]
  403f96:	ab11      	add	r3, sp, #68	; 0x44
  403f98:	f853 7b04 	ldr.w	r7, [r3], #4
	ULONG v;
	TCHAR c, d, s[16], *p;
	int res, chc, cc;


	va_start(arp, str);
  403f9c:	9307      	str	r3, [sp, #28]

	for (cc = res = 0; cc != EOF; res += cc) {
		c = *str++;
  403f9e:	7838      	ldrb	r0, [r7, #0]
		if (c == 0) break;			/* End of string */
  403fa0:	2800      	cmp	r0, #0
  403fa2:	f000 8164 	beq.w	40426e <f_printf+0x2e2>
  403fa6:	1c7c      	adds	r4, r7, #1
  403fa8:	2500      	movs	r5, #0
  403faa:	462e      	mov	r6, r5
		} while (v && i < sizeof(s) / sizeof(s[0]));
		if (f & 8) s[i++] = '-';
		j = i; d = (f & 1) ? '0' : ' ';
		res = 0;
		while (!(f & 2) && j++ < w) res += (cc = f_putc(d, fil));
		do res += (cc = f_putc(s[--i], fil)); while(i);
  403fac:	f8df 82d4 	ldr.w	r8, [pc, #724]	; 404284 <f_printf+0x2f8>
  403fb0:	e130      	b.n	404214 <f_printf+0x288>
		c = *str++;
  403fb2:	7878      	ldrb	r0, [r7, #1]
		if (c == '0') {				/* Flag: '0' padding */
  403fb4:	2830      	cmp	r0, #48	; 0x30
  403fb6:	d046      	beq.n	404046 <f_printf+0xba>
			if (c == '-') {			/* Flag: left justified */
  403fb8:	282d      	cmp	r0, #45	; 0x2d
  403fba:	d049      	beq.n	404050 <f_printf+0xc4>
		c = *str++;
  403fbc:	3702      	adds	r7, #2
		w = f = 0;
  403fbe:	f04f 0e00 	mov.w	lr, #0
		while (IsDigit(c)) {		/* Precision */
  403fc2:	f1a0 0330 	sub.w	r3, r0, #48	; 0x30
  403fc6:	b2db      	uxtb	r3, r3
  403fc8:	2b09      	cmp	r3, #9
  403fca:	d846      	bhi.n	40405a <f_printf+0xce>
  403fcc:	2400      	movs	r4, #0
			w = w * 10 + c - '0';
  403fce:	eb04 0484 	add.w	r4, r4, r4, lsl #2
  403fd2:	eb00 0444 	add.w	r4, r0, r4, lsl #1
  403fd6:	3c30      	subs	r4, #48	; 0x30
			c = *str++;
  403fd8:	f817 0b01 	ldrb.w	r0, [r7], #1
		while (IsDigit(c)) {		/* Precision */
  403fdc:	f1a0 0330 	sub.w	r3, r0, #48	; 0x30
  403fe0:	b2db      	uxtb	r3, r3
  403fe2:	2b09      	cmp	r3, #9
  403fe4:	d9f3      	bls.n	403fce <f_printf+0x42>
		if (c == 'l' || c == 'L') {	/* Prefix: Size is long int */
  403fe6:	f000 03df 	and.w	r3, r0, #223	; 0xdf
  403fea:	2b4c      	cmp	r3, #76	; 0x4c
  403fec:	d103      	bne.n	403ff6 <f_printf+0x6a>
			f |= 4; c = *str++;
  403fee:	f04e 0e04 	orr.w	lr, lr, #4
  403ff2:	7838      	ldrb	r0, [r7, #0]
  403ff4:	3701      	adds	r7, #1
		if (!c) break;
  403ff6:	2800      	cmp	r0, #0
  403ff8:	f000 8120 	beq.w	40423c <f_printf+0x2b0>
		if (IsLower(d)) d -= 0x20;
  403ffc:	f1a0 0361 	sub.w	r3, r0, #97	; 0x61
  404000:	b2db      	uxtb	r3, r3
  404002:	2b19      	cmp	r3, #25
  404004:	d82b      	bhi.n	40405e <f_printf+0xd2>
  404006:	f1a0 0320 	sub.w	r3, r0, #32
  40400a:	b2db      	uxtb	r3, r3
		switch (d) {				/* Type is... */
  40400c:	f1a3 0242 	sub.w	r2, r3, #66	; 0x42
  404010:	2a16      	cmp	r2, #22
  404012:	d87d      	bhi.n	404110 <f_printf+0x184>
  404014:	e8df f012 	tbh	[pc, r2, lsl #1]
  404018:	0074012d 	.word	0x0074012d
  40401c:	007c0080 	.word	0x007c0080
  404020:	007c007c 	.word	0x007c007c
  404024:	007c007c 	.word	0x007c007c
  404028:	007c007c 	.word	0x007c007c
  40402c:	007c007c 	.word	0x007c007c
  404030:	0117007c 	.word	0x0117007c
  404034:	007c007c 	.word	0x007c007c
  404038:	0027007c 	.word	0x0027007c
  40403c:	0080007c 	.word	0x0080007c
  404040:	007c007c 	.word	0x007c007c
  404044:	0025      	.short	0x0025
			f = 1; c = *str++;
  404046:	78b8      	ldrb	r0, [r7, #2]
  404048:	3703      	adds	r7, #3
  40404a:	f04f 0e01 	mov.w	lr, #1
  40404e:	e7b8      	b.n	403fc2 <f_printf+0x36>
				f = 2; c = *str++;
  404050:	78b8      	ldrb	r0, [r7, #2]
  404052:	3703      	adds	r7, #3
  404054:	f04f 0e02 	mov.w	lr, #2
  404058:	e7b3      	b.n	403fc2 <f_printf+0x36>
		while (IsDigit(c)) {		/* Precision */
  40405a:	2400      	movs	r4, #0
  40405c:	e7c3      	b.n	403fe6 <f_printf+0x5a>
		d = c;
  40405e:	4603      	mov	r3, r0
  404060:	e7d4      	b.n	40400c <f_printf+0x80>
			r = 16; break;
  404062:	2610      	movs	r6, #16
  404064:	e0f0      	b.n	404248 <f_printf+0x2bc>
			p = va_arg(arp, TCHAR*);
  404066:	9b07      	ldr	r3, [sp, #28]
  404068:	1d1a      	adds	r2, r3, #4
  40406a:	9207      	str	r2, [sp, #28]
  40406c:	f8d3 b000 	ldr.w	fp, [r3]
			for (j = 0; p[j]; j++) ;
  404070:	f89b 3000 	ldrb.w	r3, [fp]
  404074:	b1eb      	cbz	r3, 4040b2 <f_printf+0x126>
  404076:	465b      	mov	r3, fp
  404078:	f04f 0900 	mov.w	r9, #0
  40407c:	f109 0901 	add.w	r9, r9, #1
  404080:	f813 2f01 	ldrb.w	r2, [r3, #1]!
  404084:	2a00      	cmp	r2, #0
  404086:	d1f9      	bne.n	40407c <f_printf+0xf0>
			if (!(f & 2)) {
  404088:	f01e 0f02 	tst.w	lr, #2
  40408c:	d114      	bne.n	4040b8 <f_printf+0x12c>
				while (j++ < w) chc += (cc = f_putc(' ', fil));
  40408e:	f109 0a01 	add.w	sl, r9, #1
  404092:	45a1      	cmp	r9, r4
  404094:	d231      	bcs.n	4040fa <f_printf+0x16e>
  404096:	f104 0901 	add.w	r9, r4, #1
  40409a:	2500      	movs	r5, #0
  40409c:	9901      	ldr	r1, [sp, #4]
  40409e:	2020      	movs	r0, #32
  4040a0:	47c0      	blx	r8
  4040a2:	4405      	add	r5, r0
  4040a4:	f10a 0a01 	add.w	sl, sl, #1
  4040a8:	45ca      	cmp	sl, r9
  4040aa:	d1f7      	bne.n	40409c <f_printf+0x110>
  4040ac:	f104 0901 	add.w	r9, r4, #1
  4040b0:	e003      	b.n	4040ba <f_printf+0x12e>
			for (j = 0; p[j]; j++) ;
  4040b2:	f04f 0900 	mov.w	r9, #0
  4040b6:	e7e7      	b.n	404088 <f_printf+0xfc>
			chc = 0;
  4040b8:	2500      	movs	r5, #0
			chc += (cc = f_puts(p, fil));
  4040ba:	9901      	ldr	r1, [sp, #4]
  4040bc:	4658      	mov	r0, fp
  4040be:	4b70      	ldr	r3, [pc, #448]	; (404280 <f_printf+0x2f4>)
  4040c0:	4798      	blx	r3
  4040c2:	4405      	add	r5, r0
			while (j++ < w) chc += (cc = f_putc(' ', fil));
  4040c4:	f109 0a01 	add.w	sl, r9, #1
  4040c8:	45a1      	cmp	r9, r4
  4040ca:	d20a      	bcs.n	4040e2 <f_printf+0x156>
  4040cc:	3401      	adds	r4, #1
  4040ce:	f04f 0920 	mov.w	r9, #32
  4040d2:	9901      	ldr	r1, [sp, #4]
  4040d4:	4648      	mov	r0, r9
  4040d6:	47c0      	blx	r8
  4040d8:	4405      	add	r5, r0
  4040da:	f10a 0a01 	add.w	sl, sl, #1
  4040de:	4554      	cmp	r4, sl
  4040e0:	d1f7      	bne.n	4040d2 <f_printf+0x146>
			if (cc != EOF) cc = chc;
  4040e2:	f1b0 3fff 	cmp.w	r0, #4294967295
  4040e6:	f040 808c 	bne.w	404202 <f_printf+0x276>
  4040ea:	f04f 36ff 	mov.w	r6, #4294967295
		if (cc != EOF) cc = res;
	}

	va_end(arp);
	return (cc == EOF) ? cc : res;
}
  4040ee:	4630      	mov	r0, r6
  4040f0:	b008      	add	sp, #32
  4040f2:	e8bd 4ff0 	ldmia.w	sp!, {r4, r5, r6, r7, r8, r9, sl, fp, lr}
  4040f6:	b003      	add	sp, #12
  4040f8:	4770      	bx	lr
				while (j++ < w) chc += (cc = f_putc(' ', fil));
  4040fa:	46d1      	mov	r9, sl
  4040fc:	2500      	movs	r5, #0
  4040fe:	e7dc      	b.n	4040ba <f_printf+0x12e>
			cc = f_putc((TCHAR)va_arg(arp, int), fil); continue;
  404100:	9b07      	ldr	r3, [sp, #28]
  404102:	1d1a      	adds	r2, r3, #4
  404104:	9207      	str	r2, [sp, #28]
  404106:	9901      	ldr	r1, [sp, #4]
  404108:	7818      	ldrb	r0, [r3, #0]
  40410a:	47c0      	blx	r8
  40410c:	4605      	mov	r5, r0
  40410e:	e078      	b.n	404202 <f_printf+0x276>
			cc = f_putc(c, fil); continue;
  404110:	9901      	ldr	r1, [sp, #4]
  404112:	47c0      	blx	r8
  404114:	4605      	mov	r5, r0
  404116:	e074      	b.n	404202 <f_printf+0x276>
		v = (f & 4) ? (ULONG)va_arg(arp, long) : ((d == 'D') ? (ULONG)(long)va_arg(arp, int) : (ULONG)va_arg(arp, unsigned int));
  404118:	f01e 0f04 	tst.w	lr, #4
  40411c:	d107      	bne.n	40412e <f_printf+0x1a2>
  40411e:	2b44      	cmp	r3, #68	; 0x44
  404120:	d116      	bne.n	404150 <f_printf+0x1c4>
  404122:	9a07      	ldr	r2, [sp, #28]
  404124:	1d11      	adds	r1, r2, #4
  404126:	9107      	str	r1, [sp, #28]
  404128:	6812      	ldr	r2, [r2, #0]
			r = 10; break;
  40412a:	260a      	movs	r6, #10
  40412c:	e006      	b.n	40413c <f_printf+0x1b0>
  40412e:	260a      	movs	r6, #10
  404130:	e000      	b.n	404134 <f_printf+0x1a8>
			r = 2; break;
  404132:	2602      	movs	r6, #2
		v = (f & 4) ? (ULONG)va_arg(arp, long) : ((d == 'D') ? (ULONG)(long)va_arg(arp, int) : (ULONG)va_arg(arp, unsigned int));
  404134:	9a07      	ldr	r2, [sp, #28]
  404136:	1d11      	adds	r1, r2, #4
  404138:	9107      	str	r1, [sp, #28]
  40413a:	6812      	ldr	r2, [r2, #0]
		if (d == 'D' && (v & 0x80000000)) {
  40413c:	2b44      	cmp	r3, #68	; 0x44
  40413e:	f040 808b 	bne.w	404258 <f_printf+0x2cc>
  404142:	2a00      	cmp	r2, #0
  404144:	f280 8088 	bge.w	404258 <f_printf+0x2cc>
			v = 0 - v;
  404148:	4252      	negs	r2, r2
			f |= 8;
  40414a:	f04e 0e08 	orr.w	lr, lr, #8
  40414e:	e083      	b.n	404258 <f_printf+0x2cc>
			r = 10; break;
  404150:	260a      	movs	r6, #10
  404152:	e07d      	b.n	404250 <f_printf+0x2c4>
			s[i++] = d + '0';
  404154:	f10c 0501 	add.w	r5, ip, #1
  404158:	3330      	adds	r3, #48	; 0x30
  40415a:	f800 3f01 	strb.w	r3, [r0, #1]!
		} while (v && i < sizeof(s) / sizeof(s[0]));
  40415e:	b169      	cbz	r1, 40417c <f_printf+0x1f0>
  404160:	2d0f      	cmp	r5, #15
  404162:	d80b      	bhi.n	40417c <f_printf+0x1f0>
			s[i++] = d + '0';
  404164:	46ac      	mov	ip, r5
			d = (TCHAR)(v % r); v /= r;
  404166:	fbb2 f1f6 	udiv	r1, r2, r6
  40416a:	fb06 2311 	mls	r3, r6, r1, r2
  40416e:	b2db      	uxtb	r3, r3
  404170:	460a      	mov	r2, r1
			if (d > 9) d += (c == 'x') ? 0x27 : 0x07;
  404172:	2b09      	cmp	r3, #9
  404174:	d9ee      	bls.n	404154 <f_printf+0x1c8>
  404176:	444b      	add	r3, r9
  404178:	b2db      	uxtb	r3, r3
  40417a:	e7eb      	b.n	404154 <f_printf+0x1c8>
		if (f & 8) s[i++] = '-';
  40417c:	f01e 0f08 	tst.w	lr, #8
  404180:	d006      	beq.n	404190 <f_printf+0x204>
  404182:	ab08      	add	r3, sp, #32
  404184:	441d      	add	r5, r3
  404186:	232d      	movs	r3, #45	; 0x2d
  404188:	f805 3c14 	strb.w	r3, [r5, #-20]
  40418c:	f10c 0502 	add.w	r5, ip, #2
		j = i; d = (f & 1) ? '0' : ' ';
  404190:	f00e 0301 	and.w	r3, lr, #1
  404194:	2b00      	cmp	r3, #0
  404196:	bf14      	ite	ne
  404198:	f04f 0a30 	movne.w	sl, #48	; 0x30
  40419c:	f04f 0a20 	moveq.w	sl, #32
		while (!(f & 2) && j++ < w) res += (cc = f_putc(d, fil));
  4041a0:	f01e 0f02 	tst.w	lr, #2
  4041a4:	d143      	bne.n	40422e <f_printf+0x2a2>
  4041a6:	f105 0901 	add.w	r9, r5, #1
  4041aa:	42a5      	cmp	r5, r4
  4041ac:	d242      	bcs.n	404234 <f_printf+0x2a8>
  4041ae:	f104 0b01 	add.w	fp, r4, #1
  4041b2:	2600      	movs	r6, #0
  4041b4:	9901      	ldr	r1, [sp, #4]
  4041b6:	4650      	mov	r0, sl
  4041b8:	47c0      	blx	r8
  4041ba:	4406      	add	r6, r0
  4041bc:	f109 0901 	add.w	r9, r9, #1
  4041c0:	45cb      	cmp	fp, r9
  4041c2:	d1f7      	bne.n	4041b4 <f_printf+0x228>
  4041c4:	f104 0901 	add.w	r9, r4, #1
  4041c8:	ab03      	add	r3, sp, #12
  4041ca:	441d      	add	r5, r3
		do res += (cc = f_putc(s[--i], fil)); while(i);
  4041cc:	469a      	mov	sl, r3
  4041ce:	9901      	ldr	r1, [sp, #4]
  4041d0:	f815 0d01 	ldrb.w	r0, [r5, #-1]!
  4041d4:	47c0      	blx	r8
  4041d6:	4406      	add	r6, r0
  4041d8:	45aa      	cmp	sl, r5
  4041da:	d1f8      	bne.n	4041ce <f_printf+0x242>
		while (j++ < w) res += (cc = f_putc(' ', fil));
  4041dc:	f109 0501 	add.w	r5, r9, #1
  4041e0:	45a1      	cmp	r9, r4
  4041e2:	d209      	bcs.n	4041f8 <f_printf+0x26c>
  4041e4:	3401      	adds	r4, #1
  4041e6:	f04f 0920 	mov.w	r9, #32
  4041ea:	9901      	ldr	r1, [sp, #4]
  4041ec:	4648      	mov	r0, r9
  4041ee:	47c0      	blx	r8
  4041f0:	4406      	add	r6, r0
  4041f2:	3501      	adds	r5, #1
  4041f4:	42ac      	cmp	r4, r5
  4041f6:	d1f8      	bne.n	4041ea <f_printf+0x25e>
		if (cc != EOF) cc = res;
  4041f8:	f1b0 3fff 	cmp.w	r0, #4294967295
  4041fc:	f43f af75 	beq.w	4040ea <f_printf+0x15e>
  404200:	4635      	mov	r5, r6
	for (cc = res = 0; cc != EOF; res += cc) {
  404202:	442e      	add	r6, r5
  404204:	f1b5 3fff 	cmp.w	r5, #4294967295
  404208:	d016      	beq.n	404238 <f_printf+0x2ac>
		c = *str++;
  40420a:	1c7c      	adds	r4, r7, #1
  40420c:	7838      	ldrb	r0, [r7, #0]
		if (c == 0) break;			/* End of string */
  40420e:	2800      	cmp	r0, #0
  404210:	f43f af6d 	beq.w	4040ee <f_printf+0x162>
		if (c != '%') {				/* Non escape character */
  404214:	2825      	cmp	r0, #37	; 0x25
  404216:	f43f aecc 	beq.w	403fb2 <f_printf+0x26>
			cc = f_putc(c, fil);
  40421a:	9901      	ldr	r1, [sp, #4]
  40421c:	47c0      	blx	r8
			if (cc != EOF) cc = 1;
  40421e:	f1b0 3fff 	cmp.w	r0, #4294967295
  404222:	f43f af62 	beq.w	4040ea <f_printf+0x15e>
	for (cc = res = 0; cc != EOF; res += cc) {
  404226:	3601      	adds	r6, #1
  404228:	4627      	mov	r7, r4
			if (cc != EOF) cc = 1;
  40422a:	2501      	movs	r5, #1
  40422c:	e7ed      	b.n	40420a <f_printf+0x27e>
		j = i; d = (f & 1) ? '0' : ' ';
  40422e:	46a9      	mov	r9, r5
		res = 0;
  404230:	2600      	movs	r6, #0
  404232:	e7c9      	b.n	4041c8 <f_printf+0x23c>
  404234:	2600      	movs	r6, #0
  404236:	e7c7      	b.n	4041c8 <f_printf+0x23c>
  404238:	462e      	mov	r6, r5
  40423a:	e758      	b.n	4040ee <f_printf+0x162>
  40423c:	f1b5 3fff 	cmp.w	r5, #4294967295
  404240:	bf08      	it	eq
  404242:	462e      	moveq	r6, r5
  404244:	e753      	b.n	4040ee <f_printf+0x162>
			r = 8; break;
  404246:	2608      	movs	r6, #8
		v = (f & 4) ? (ULONG)va_arg(arp, long) : ((d == 'D') ? (ULONG)(long)va_arg(arp, int) : (ULONG)va_arg(arp, unsigned int));
  404248:	f01e 0f04 	tst.w	lr, #4
  40424c:	f47f af72 	bne.w	404134 <f_printf+0x1a8>
  404250:	9b07      	ldr	r3, [sp, #28]
  404252:	1d1a      	adds	r2, r3, #4
  404254:	9207      	str	r2, [sp, #28]
  404256:	681a      	ldr	r2, [r3, #0]
  404258:	2878      	cmp	r0, #120	; 0x78
  40425a:	bf0c      	ite	eq
  40425c:	f04f 0927 	moveq.w	r9, #39	; 0x27
  404260:	f04f 0907 	movne.w	r9, #7
  404264:	f10d 000b 	add.w	r0, sp, #11
		i = 0;
  404268:	f04f 0c00 	mov.w	ip, #0
  40426c:	e77b      	b.n	404166 <f_printf+0x1da>
	for (cc = res = 0; cc != EOF; res += cc) {
  40426e:	2600      	movs	r6, #0
  404270:	e73d      	b.n	4040ee <f_printf+0x162>
		v = (f & 4) ? (ULONG)va_arg(arp, long) : ((d == 'D') ? (ULONG)(long)va_arg(arp, int) : (ULONG)va_arg(arp, unsigned int));
  404272:	f01e 0f04 	tst.w	lr, #4
  404276:	f47f af5c 	bne.w	404132 <f_printf+0x1a6>
			r = 2; break;
  40427a:	2602      	movs	r6, #2
  40427c:	e7e8      	b.n	404250 <f_printf+0x2c4>
  40427e:	bf00      	nop
  404280:	00403f5d 	.word	0x00403f5d
  404284:	00403f31 	.word	0x00403f31

00404288 <ff_convert>:
)
{
	WCHAR c;


	if (src < 0x80) {	/* ASCII */
  404288:	287f      	cmp	r0, #127	; 0x7f
  40428a:	d919      	bls.n	4042c0 <ff_convert+0x38>
		c = src;

	} else {
		if (dir) {		/* OEMCP to Unicode */
  40428c:	b971      	cbnz	r1, 4042ac <ff_convert+0x24>
			c = (src >= 0x100) ? 0 : Tbl[src - 0x80];

		} else {		/* Unicode to OEMCP */
			for (c = 0; c < 0x80; c++) {
				if (src == Tbl[c]) break;
  40428e:	28c7      	cmp	r0, #199	; 0xc7
  404290:	d013      	beq.n	4042ba <ff_convert+0x32>
  404292:	4a0c      	ldr	r2, [pc, #48]	; (4042c4 <ff_convert+0x3c>)
			for (c = 0; c < 0x80; c++) {
  404294:	2301      	movs	r3, #1
				if (src == Tbl[c]) break;
  404296:	f832 1f02 	ldrh.w	r1, [r2, #2]!
  40429a:	4281      	cmp	r1, r0
  40429c:	d003      	beq.n	4042a6 <ff_convert+0x1e>
			for (c = 0; c < 0x80; c++) {
  40429e:	3301      	adds	r3, #1
  4042a0:	b29b      	uxth	r3, r3
  4042a2:	2b80      	cmp	r3, #128	; 0x80
  4042a4:	d1f7      	bne.n	404296 <ff_convert+0xe>
			}
			c = (c + 0x80) & 0xFF;
  4042a6:	3380      	adds	r3, #128	; 0x80
  4042a8:	b2d8      	uxtb	r0, r3
  4042aa:	4770      	bx	lr
			c = (src >= 0x100) ? 0 : Tbl[src - 0x80];
  4042ac:	28ff      	cmp	r0, #255	; 0xff
  4042ae:	d806      	bhi.n	4042be <ff_convert+0x36>
  4042b0:	3880      	subs	r0, #128	; 0x80
  4042b2:	4b04      	ldr	r3, [pc, #16]	; (4042c4 <ff_convert+0x3c>)
  4042b4:	f833 0010 	ldrh.w	r0, [r3, r0, lsl #1]
  4042b8:	4770      	bx	lr
				if (src == Tbl[c]) break;
  4042ba:	2300      	movs	r3, #0
  4042bc:	e7f3      	b.n	4042a6 <ff_convert+0x1e>
			c = (src >= 0x100) ? 0 : Tbl[src - 0x80];
  4042be:	2000      	movs	r0, #0
		}
	}

	return c;
}
  4042c0:	4770      	bx	lr
  4042c2:	bf00      	nop
  4042c4:	00409944 	.word	0x00409944

004042c8 <ff_wtoupper>:
	static const WCHAR tbl_lower[] = { 0x61, 0x62, 0x63, 0x64, 0x65, 0x66, 0x67, 0x68, 0x69, 0x6A, 0x6B, 0x6C, 0x6D, 0x6E, 0x6F, 0x70, 0x71, 0x72, 0x73, 0x74, 0x75, 0x76, 0x77, 0x78, 0x79, 0x7A, 0xA1, 0x00A2, 0x00A3, 0x00A5, 0x00AC, 0x00AF, 0xE0, 0xE1, 0xE2, 0xE3, 0xE4, 0xE5, 0xE6, 0xE7, 0xE8, 0xE9, 0xEA, 0xEB, 0xEC, 0xED, 0xEE, 0xEF, 0xF0, 0xF1, 0xF2, 0xF3, 0xF4, 0xF5, 0xF6, 0xF8, 0xF9, 0xFA, 0xFB, 0xFC, 0xFD, 0xFE, 0x0FF, 0x101, 0x103, 0x105, 0x107, 0x109, 0x10B, 0x10D, 0x10F, 0x111, 0x113, 0x115, 0x117, 0x119, 0x11B, 0x11D, 0x11F, 0x121, 0x123, 0x125, 0x127, 0x129, 0x12B, 0x12D, 0x12F, 0x131, 0x133, 0x135, 0x137, 0x13A, 0x13C, 0x13E, 0x140, 0x142, 0x144, 0x146, 0x148, 0x14B, 0x14D, 0x14F, 0x151, 0x153, 0x155, 0x157, 0x159, 0x15B, 0x15D, 0x15F, 0x161, 0x163, 0x165, 0x167, 0x169, 0x16B, 0x16D, 0x16F, 0x171, 0x173, 0x175, 0x177, 0x17A, 0x17C, 0x17E, 0x192, 0x3B1, 0x3B2, 0x3B3, 0x3B4, 0x3B5, 0x3B6, 0x3B7, 0x3B8, 0x3B9, 0x3BA, 0x3BB, 0x3BC, 0x3BD, 0x3BE, 0x3BF, 0x3C0, 0x3C1, 0x3C3, 0x3C4, 0x3C5, 0x3C6, 0x3C7, 0x3C8, 0x3C9, 0x3CA, 0x430, 0x431, 0x432, 0x433, 0x434, 0x435, 0x436, 0x437, 0x438, 0x439, 0x43A, 0x43B, 0x43C, 0x43D, 0x43E, 0x43F, 0x440, 0x441, 0x442, 0x443, 0x444, 0x445, 0x446, 0x447, 0x448, 0x449, 0x44A, 0x44B, 0x44C, 0x44D, 0x44E, 0x44F, 0x451, 0x452, 0x453, 0x454, 0x455, 0x456, 0x457, 0x458, 0x459, 0x45A, 0x45B, 0x45C, 0x45E, 0x45F, 0x2170, 0x2171, 0x2172, 0x2173, 0x2174, 0x2175, 0x2176, 0x2177, 0x2178, 0x2179, 0x217A, 0x217B, 0x217C, 0x217D, 0x217E, 0x217F, 0xFF41, 0xFF42, 0xFF43, 0xFF44, 0xFF45, 0xFF46, 0xFF47, 0xFF48, 0xFF49, 0xFF4A, 0xFF4B, 0xFF4C, 0xFF4D, 0xFF4E, 0xFF4F, 0xFF50, 0xFF51, 0xFF52, 0xFF53, 0xFF54, 0xFF55, 0xFF56, 0xFF57, 0xFF58, 0xFF59, 0xFF5A, 0 };
	static const WCHAR tbl_upper[] = { 0x41, 0x42, 0x43, 0x44, 0x45, 0x46, 0x47, 0x48, 0x49, 0x4A, 0x4B, 0x4C, 0x4D, 0x4E, 0x4F, 0x50, 0x51, 0x52, 0x53, 0x54, 0x55, 0x56, 0x57, 0x58, 0x59, 0x5A, 0x21, 0xFFE0, 0xFFE1, 0xFFE5, 0xFFE2, 0xFFE3, 0xC0, 0xC1, 0xC2, 0xC3, 0xC4, 0xC5, 0xC6, 0xC7, 0xC8, 0xC9, 0xCA, 0xCB, 0xCC, 0xCD, 0xCE, 0xCF, 0xD0, 0xD1, 0xD2, 0xD3, 0xD4, 0xD5, 0xD6, 0xD8, 0xD9, 0xDA, 0xDB, 0xDC, 0xDD, 0xDE, 0x178, 0x100, 0x102, 0x104, 0x106, 0x108, 0x10A, 0x10C, 0x10E, 0x110, 0x112, 0x114, 0x116, 0x118, 0x11A, 0x11C, 0x11E, 0x120, 0x122, 0x124, 0x126, 0x128, 0x12A, 0x12C, 0x12E, 0x130, 0x132, 0x134, 0x136, 0x139, 0x13B, 0x13D, 0x13F, 0x141, 0x143, 0x145, 0x147, 0x14A, 0x14C, 0x14E, 0x150, 0x152, 0x154, 0x156, 0x158, 0x15A, 0x15C, 0x15E, 0x160, 0x162, 0x164, 0x166, 0x168, 0x16A, 0x16C, 0x16E, 0x170, 0x172, 0x174, 0x176, 0x179, 0x17B, 0x17D, 0x191, 0x391, 0x392, 0x393, 0x394, 0x395, 0x396, 0x397, 0x398, 0x399, 0x39A, 0x39B, 0x39C, 0x39D, 0x39E, 0x39F, 0x3A0, 0x3A1, 0x3A3, 0x3A4, 0x3A5, 0x3A6, 0x3A7, 0x3A8, 0x3A9, 0x3AA, 0x410, 0x411, 0x412, 0x413, 0x414, 0x415, 0x416, 0x417, 0x418, 0x419, 0x41A, 0x41B, 0x41C, 0x41D, 0x41E, 0x41F, 0x420, 0x421, 0x422, 0x423, 0x424, 0x425, 0x426, 0x427, 0x428, 0x429, 0x42A, 0x42B, 0x42C, 0x42D, 0x42E, 0x42F, 0x401, 0x402, 0x403, 0x404, 0x405, 0x406, 0x407, 0x408, 0x409, 0x40A, 0x40B, 0x40C, 0x40E, 0x40F, 0x2160, 0x2161, 0x2162, 0x2163, 0x2164, 0x2165, 0x2166, 0x2167, 0x2168, 0x2169, 0x216A, 0x216B, 0x216C, 0x216D, 0x216E, 0x216F, 0xFF21, 0xFF22, 0xFF23, 0xFF24, 0xFF25, 0xFF26, 0xFF27, 0xFF28, 0xFF29, 0xFF2A, 0xFF2B, 0xFF2C, 0xFF2D, 0xFF2E, 0xFF2F, 0xFF30, 0xFF31, 0xFF32, 0xFF33, 0xFF34, 0xFF35, 0xFF36, 0xFF37, 0xFF38, 0xFF39, 0xFF3A, 0 };
	int i;


	for (i = 0; tbl_lower[i] && chr != tbl_lower[i]; i++) ;
  4042c8:	2861      	cmp	r0, #97	; 0x61
  4042ca:	d00e      	beq.n	4042ea <ff_wtoupper+0x22>
  4042cc:	4908      	ldr	r1, [pc, #32]	; (4042f0 <ff_wtoupper+0x28>)
  4042ce:	2200      	movs	r2, #0
  4042d0:	3201      	adds	r2, #1
  4042d2:	f831 3f02 	ldrh.w	r3, [r1, #2]!
  4042d6:	4283      	cmp	r3, r0
  4042d8:	d001      	beq.n	4042de <ff_wtoupper+0x16>
  4042da:	2b00      	cmp	r3, #0
  4042dc:	d1f8      	bne.n	4042d0 <ff_wtoupper+0x8>

	return tbl_lower[i] ? tbl_upper[i] : chr;
  4042de:	b11b      	cbz	r3, 4042e8 <ff_wtoupper+0x20>
  4042e0:	4b04      	ldr	r3, [pc, #16]	; (4042f4 <ff_wtoupper+0x2c>)
  4042e2:	f833 0012 	ldrh.w	r0, [r3, r2, lsl #1]
}
  4042e6:	4770      	bx	lr
  4042e8:	4770      	bx	lr
	for (i = 0; tbl_lower[i] && chr != tbl_lower[i]; i++) ;
  4042ea:	2200      	movs	r2, #0
  4042ec:	e7f8      	b.n	4042e0 <ff_wtoupper+0x18>
  4042ee:	bf00      	nop
  4042f0:	00409a44 	.word	0x00409a44
  4042f4:	00409c24 	.word	0x00409c24

004042f8 <vListInitialise>:
void vListInitialise( List_t * const pxList )
{
	/* The list structure contains a list item which is used to mark the
	end of the list.  To initialise the list the list end is inserted
	as the only list entry. */
	pxList->pxIndex = ( ListItem_t * ) &( pxList->xListEnd );			/*lint !e826 !e740 The mini list structure is used as the list end to save RAM.  This is checked and valid. */
  4042f8:	f100 0308 	add.w	r3, r0, #8
  4042fc:	6043      	str	r3, [r0, #4]

	/* The list end value is the highest possible value in the list to
	ensure it remains at the end of the list. */
	pxList->xListEnd.xItemValue = portMAX_DELAY;
  4042fe:	f04f 32ff 	mov.w	r2, #4294967295
  404302:	6082      	str	r2, [r0, #8]

	/* The list end next and previous pointers point to itself so we know
	when the list is empty. */
	pxList->xListEnd.pxNext = ( ListItem_t * ) &( pxList->xListEnd );	/*lint !e826 !e740 The mini list structure is used as the list end to save RAM.  This is checked and valid. */
  404304:	60c3      	str	r3, [r0, #12]
	pxList->xListEnd.pxPrevious = ( ListItem_t * ) &( pxList->xListEnd );/*lint !e826 !e740 The mini list structure is used as the list end to save RAM.  This is checked and valid. */
  404306:	6103      	str	r3, [r0, #16]

	pxList->uxNumberOfItems = ( UBaseType_t ) 0U;
  404308:	2300      	movs	r3, #0
  40430a:	6003      	str	r3, [r0, #0]
  40430c:	4770      	bx	lr

0040430e <vListInitialiseItem>:
/*-----------------------------------------------------------*/

void vListInitialiseItem( ListItem_t * const pxItem )
{
	/* Make sure the list item is not recorded as being on a list. */
	pxItem->pvContainer = NULL;
  40430e:	2300      	movs	r3, #0
  404310:	6103      	str	r3, [r0, #16]
  404312:	4770      	bx	lr

00404314 <vListInsertEnd>:
}
/*-----------------------------------------------------------*/

void vListInsertEnd( List_t * const pxList, ListItem_t * const pxNewListItem )
{
ListItem_t * const pxIndex = pxList->pxIndex;
  404314:	6843      	ldr	r3, [r0, #4]
	listTEST_LIST_ITEM_INTEGRITY( pxNewListItem );

	/* Insert a new list item into pxList, but rather than sort the list,
	makes the new list item the last item to be removed by a call to
	listGET_OWNER_OF_NEXT_ENTRY(). */
	pxNewListItem->pxNext = pxIndex;
  404316:	604b      	str	r3, [r1, #4]
	pxNewListItem->pxPrevious = pxIndex->pxPrevious;
  404318:	689a      	ldr	r2, [r3, #8]
  40431a:	608a      	str	r2, [r1, #8]

	/* Only used during decision coverage testing. */
	mtCOVERAGE_TEST_DELAY();

	pxIndex->pxPrevious->pxNext = pxNewListItem;
  40431c:	689a      	ldr	r2, [r3, #8]
  40431e:	6051      	str	r1, [r2, #4]
	pxIndex->pxPrevious = pxNewListItem;
  404320:	6099      	str	r1, [r3, #8]

	/* Remember which list the item is in. */
	pxNewListItem->pvContainer = ( void * ) pxList;
  404322:	6108      	str	r0, [r1, #16]

	( pxList->uxNumberOfItems )++;
  404324:	6803      	ldr	r3, [r0, #0]
  404326:	3301      	adds	r3, #1
  404328:	6003      	str	r3, [r0, #0]
  40432a:	4770      	bx	lr

0040432c <vListInsert>:
}
/*-----------------------------------------------------------*/

void vListInsert( List_t * const pxList, ListItem_t * const pxNewListItem )
{
  40432c:	b430      	push	{r4, r5}
ListItem_t *pxIterator;
const TickType_t xValueOfInsertion = pxNewListItem->xItemValue;
  40432e:	680d      	ldr	r5, [r1, #0]
	new list item should be placed after it.  This ensures that TCB's which are
	stored in ready lists (all of which have the same xItemValue value) get a
	share of the CPU.  However, if the xItemValue is the same as the back marker
	the iteration loop below will not end.  Therefore the value is checked
	first, and the algorithm slightly modified if necessary. */
	if( xValueOfInsertion == portMAX_DELAY )
  404330:	f1b5 3fff 	cmp.w	r5, #4294967295
  404334:	d002      	beq.n	40433c <vListInsert+0x10>
			4) Using a queue or semaphore before it has been initialised or
			   before the scheduler has been started (are interrupts firing
			   before vTaskStartScheduler() has been called?).
		**********************************************************************/

		for( pxIterator = ( ListItem_t * ) &( pxList->xListEnd ); pxIterator->pxNext->xItemValue <= xValueOfInsertion; pxIterator = pxIterator->pxNext ) /*lint !e826 !e740 The mini list structure is used as the list end to save RAM.  This is checked and valid. */
  404336:	f100 0208 	add.w	r2, r0, #8
  40433a:	e002      	b.n	404342 <vListInsert+0x16>
		pxIterator = pxList->xListEnd.pxPrevious;
  40433c:	6902      	ldr	r2, [r0, #16]
  40433e:	e004      	b.n	40434a <vListInsert+0x1e>
		for( pxIterator = ( ListItem_t * ) &( pxList->xListEnd ); pxIterator->pxNext->xItemValue <= xValueOfInsertion; pxIterator = pxIterator->pxNext ) /*lint !e826 !e740 The mini list structure is used as the list end to save RAM.  This is checked and valid. */
  404340:	461a      	mov	r2, r3
  404342:	6853      	ldr	r3, [r2, #4]
  404344:	681c      	ldr	r4, [r3, #0]
  404346:	42a5      	cmp	r5, r4
  404348:	d2fa      	bcs.n	404340 <vListInsert+0x14>
			/* There is nothing to do here, just iterating to the wanted
			insertion position. */
		}
	}

	pxNewListItem->pxNext = pxIterator->pxNext;
  40434a:	6853      	ldr	r3, [r2, #4]
  40434c:	604b      	str	r3, [r1, #4]
	pxNewListItem->pxNext->pxPrevious = pxNewListItem;
  40434e:	6099      	str	r1, [r3, #8]
	pxNewListItem->pxPrevious = pxIterator;
  404350:	608a      	str	r2, [r1, #8]
	pxIterator->pxNext = pxNewListItem;
  404352:	6051      	str	r1, [r2, #4]

	/* Remember which list the item is in.  This allows fast removal of the
	item later. */
	pxNewListItem->pvContainer = ( void * ) pxList;
  404354:	6108      	str	r0, [r1, #16]

	( pxList->uxNumberOfItems )++;
  404356:	6803      	ldr	r3, [r0, #0]
  404358:	3301      	adds	r3, #1
  40435a:	6003      	str	r3, [r0, #0]
}
  40435c:	bc30      	pop	{r4, r5}
  40435e:	4770      	bx	lr

00404360 <uxListRemove>:

UBaseType_t uxListRemove( ListItem_t * const pxItemToRemove )
{
/* The list item knows which list it is in.  Obtain the list from the list
item. */
List_t * const pxList = ( List_t * ) pxItemToRemove->pvContainer;
  404360:	6903      	ldr	r3, [r0, #16]

	pxItemToRemove->pxNext->pxPrevious = pxItemToRemove->pxPrevious;
  404362:	6842      	ldr	r2, [r0, #4]
  404364:	6881      	ldr	r1, [r0, #8]
  404366:	6091      	str	r1, [r2, #8]
	pxItemToRemove->pxPrevious->pxNext = pxItemToRemove->pxNext;
  404368:	6882      	ldr	r2, [r0, #8]
  40436a:	6841      	ldr	r1, [r0, #4]
  40436c:	6051      	str	r1, [r2, #4]

	/* Only used during decision coverage testing. */
	mtCOVERAGE_TEST_DELAY();

	/* Make sure the index is left pointing to a valid item. */
	if( pxList->pxIndex == pxItemToRemove )
  40436e:	685a      	ldr	r2, [r3, #4]
  404370:	4290      	cmp	r0, r2
  404372:	d005      	beq.n	404380 <uxListRemove+0x20>
	else
	{
		mtCOVERAGE_TEST_MARKER();
	}

	pxItemToRemove->pvContainer = NULL;
  404374:	2200      	movs	r2, #0
  404376:	6102      	str	r2, [r0, #16]
	( pxList->uxNumberOfItems )--;
  404378:	6818      	ldr	r0, [r3, #0]
  40437a:	3801      	subs	r0, #1
  40437c:	6018      	str	r0, [r3, #0]

	return pxList->uxNumberOfItems;
}
  40437e:	4770      	bx	lr
		pxList->pxIndex = pxItemToRemove->pxPrevious;
  404380:	6882      	ldr	r2, [r0, #8]
  404382:	605a      	str	r2, [r3, #4]
  404384:	e7f6      	b.n	404374 <uxListRemove+0x14>
	...

00404388 <prvTaskExitError>:
	its caller as there is nothing to return to.  If a task wants to exit it
	should instead call vTaskDelete( NULL ).

	Artificially force an assert() to be triggered if configASSERT() is
	defined, then stop here so application writers can catch the error. */
	configASSERT( uxCriticalNesting == ~0UL );
  404388:	4b0d      	ldr	r3, [pc, #52]	; (4043c0 <prvTaskExitError+0x38>)
  40438a:	681b      	ldr	r3, [r3, #0]
  40438c:	f1b3 3fff 	cmp.w	r3, #4294967295
  404390:	d00a      	beq.n	4043a8 <prvTaskExitError+0x20>

portFORCE_INLINE static void vPortRaiseBASEPRI( void )
{
uint32_t ulNewBASEPRI;

	__asm volatile
  404392:	f04f 0380 	mov.w	r3, #128	; 0x80
  404396:	b672      	cpsid	i
  404398:	f383 8811 	msr	BASEPRI, r3
  40439c:	f3bf 8f6f 	isb	sy
  4043a0:	f3bf 8f4f 	dsb	sy
  4043a4:	b662      	cpsie	i
  4043a6:	e7fe      	b.n	4043a6 <prvTaskExitError+0x1e>
  4043a8:	f04f 0380 	mov.w	r3, #128	; 0x80
  4043ac:	b672      	cpsid	i
  4043ae:	f383 8811 	msr	BASEPRI, r3
  4043b2:	f3bf 8f6f 	isb	sy
  4043b6:	f3bf 8f4f 	dsb	sy
  4043ba:	b662      	cpsie	i
  4043bc:	e7fe      	b.n	4043bc <prvTaskExitError+0x34>
  4043be:	bf00      	nop
  4043c0:	20400038 	.word	0x20400038

004043c4 <prvPortStartFirstTask>:
}
/*-----------------------------------------------------------*/

static void prvPortStartFirstTask( void )
{
	__asm volatile(
  4043c4:	4806      	ldr	r0, [pc, #24]	; (4043e0 <prvPortStartFirstTask+0x1c>)
  4043c6:	6800      	ldr	r0, [r0, #0]
  4043c8:	6800      	ldr	r0, [r0, #0]
  4043ca:	f380 8808 	msr	MSP, r0
  4043ce:	b662      	cpsie	i
  4043d0:	b661      	cpsie	f
  4043d2:	f3bf 8f4f 	dsb	sy
  4043d6:	f3bf 8f6f 	isb	sy
  4043da:	df00      	svc	0
  4043dc:	bf00      	nop
  4043de:	0000      	.short	0x0000
  4043e0:	e000ed08 	.word	0xe000ed08

004043e4 <vPortEnableVFP>:
/*-----------------------------------------------------------*/

/* This is a naked function. */
static void vPortEnableVFP( void )
{
	__asm volatile
  4043e4:	f8df 000c 	ldr.w	r0, [pc, #12]	; 4043f4 <vPortEnableVFP+0x10>
  4043e8:	6801      	ldr	r1, [r0, #0]
  4043ea:	f441 0170 	orr.w	r1, r1, #15728640	; 0xf00000
  4043ee:	6001      	str	r1, [r0, #0]
  4043f0:	4770      	bx	lr
  4043f2:	0000      	.short	0x0000
  4043f4:	e000ed88 	.word	0xe000ed88

004043f8 <pxPortInitialiseStack>:
	*pxTopOfStack = portINITIAL_XPSR;	/* xPSR */
  4043f8:	f04f 7380 	mov.w	r3, #16777216	; 0x1000000
  4043fc:	f840 3c04 	str.w	r3, [r0, #-4]
	*pxTopOfStack = ( StackType_t ) pxCode;	/* PC */
  404400:	f840 1c08 	str.w	r1, [r0, #-8]
	*pxTopOfStack = ( StackType_t ) portTASK_RETURN_ADDRESS;	/* LR */
  404404:	4b05      	ldr	r3, [pc, #20]	; (40441c <pxPortInitialiseStack+0x24>)
  404406:	f840 3c0c 	str.w	r3, [r0, #-12]
	*pxTopOfStack = ( StackType_t ) pvParameters;	/* R0 */
  40440a:	f840 2c20 	str.w	r2, [r0, #-32]
	*pxTopOfStack = portINITIAL_EXEC_RETURN;
  40440e:	f06f 0302 	mvn.w	r3, #2
  404412:	f840 3c24 	str.w	r3, [r0, #-36]
}
  404416:	3844      	subs	r0, #68	; 0x44
  404418:	4770      	bx	lr
  40441a:	bf00      	nop
  40441c:	00404389 	.word	0x00404389

00404420 <SVC_Handler>:
	__asm volatile (
  404420:	4b06      	ldr	r3, [pc, #24]	; (40443c <pxCurrentTCBConst2>)
  404422:	6819      	ldr	r1, [r3, #0]
  404424:	6808      	ldr	r0, [r1, #0]
  404426:	e8b0 4ff0 	ldmia.w	r0!, {r4, r5, r6, r7, r8, r9, sl, fp, lr}
  40442a:	f380 8809 	msr	PSP, r0
  40442e:	f3bf 8f6f 	isb	sy
  404432:	f04f 0000 	mov.w	r0, #0
  404436:	f380 8811 	msr	BASEPRI, r0
  40443a:	4770      	bx	lr

0040443c <pxCurrentTCBConst2>:
  40443c:	2040c2c4 	.word	0x2040c2c4
  404440:	4770      	bx	lr
  404442:	bf00      	nop

00404444 <vPortEnterCritical>:
  404444:	f04f 0380 	mov.w	r3, #128	; 0x80
  404448:	b672      	cpsid	i
  40444a:	f383 8811 	msr	BASEPRI, r3
  40444e:	f3bf 8f6f 	isb	sy
  404452:	f3bf 8f4f 	dsb	sy
  404456:	b662      	cpsie	i
	uxCriticalNesting++;
  404458:	4a0b      	ldr	r2, [pc, #44]	; (404488 <vPortEnterCritical+0x44>)
  40445a:	6813      	ldr	r3, [r2, #0]
  40445c:	3301      	adds	r3, #1
  40445e:	6013      	str	r3, [r2, #0]
	if( uxCriticalNesting == 1 )
  404460:	2b01      	cmp	r3, #1
  404462:	d10f      	bne.n	404484 <vPortEnterCritical+0x40>
		configASSERT( ( portNVIC_INT_CTRL_REG & portVECTACTIVE_MASK ) == 0 );
  404464:	4b09      	ldr	r3, [pc, #36]	; (40448c <vPortEnterCritical+0x48>)
  404466:	681b      	ldr	r3, [r3, #0]
  404468:	f013 0fff 	tst.w	r3, #255	; 0xff
  40446c:	d00a      	beq.n	404484 <vPortEnterCritical+0x40>
  40446e:	f04f 0380 	mov.w	r3, #128	; 0x80
  404472:	b672      	cpsid	i
  404474:	f383 8811 	msr	BASEPRI, r3
  404478:	f3bf 8f6f 	isb	sy
  40447c:	f3bf 8f4f 	dsb	sy
  404480:	b662      	cpsie	i
  404482:	e7fe      	b.n	404482 <vPortEnterCritical+0x3e>
  404484:	4770      	bx	lr
  404486:	bf00      	nop
  404488:	20400038 	.word	0x20400038
  40448c:	e000ed04 	.word	0xe000ed04

00404490 <vPortExitCritical>:
	configASSERT( uxCriticalNesting );
  404490:	4b0a      	ldr	r3, [pc, #40]	; (4044bc <vPortExitCritical+0x2c>)
  404492:	681b      	ldr	r3, [r3, #0]
  404494:	b953      	cbnz	r3, 4044ac <vPortExitCritical+0x1c>
  404496:	f04f 0380 	mov.w	r3, #128	; 0x80
  40449a:	b672      	cpsid	i
  40449c:	f383 8811 	msr	BASEPRI, r3
  4044a0:	f3bf 8f6f 	isb	sy
  4044a4:	f3bf 8f4f 	dsb	sy
  4044a8:	b662      	cpsie	i
  4044aa:	e7fe      	b.n	4044aa <vPortExitCritical+0x1a>
	uxCriticalNesting--;
  4044ac:	3b01      	subs	r3, #1
  4044ae:	4a03      	ldr	r2, [pc, #12]	; (4044bc <vPortExitCritical+0x2c>)
  4044b0:	6013      	str	r3, [r2, #0]
	if( uxCriticalNesting == 0 )
  4044b2:	b90b      	cbnz	r3, 4044b8 <vPortExitCritical+0x28>
}
/*-----------------------------------------------------------*/

portFORCE_INLINE static void vPortSetBASEPRI( uint32_t ulNewMaskValue )
{
	__asm volatile
  4044b4:	f383 8811 	msr	BASEPRI, r3
  4044b8:	4770      	bx	lr
  4044ba:	bf00      	nop
  4044bc:	20400038 	.word	0x20400038

004044c0 <PendSV_Handler>:
	__asm volatile
  4044c0:	f3ef 8009 	mrs	r0, PSP
  4044c4:	f3bf 8f6f 	isb	sy
  4044c8:	4b15      	ldr	r3, [pc, #84]	; (404520 <pxCurrentTCBConst>)
  4044ca:	681a      	ldr	r2, [r3, #0]
  4044cc:	f01e 0f10 	tst.w	lr, #16
  4044d0:	bf08      	it	eq
  4044d2:	ed20 8a10 	vstmdbeq	r0!, {s16-s31}
  4044d6:	e920 4ff0 	stmdb	r0!, {r4, r5, r6, r7, r8, r9, sl, fp, lr}
  4044da:	6010      	str	r0, [r2, #0]
  4044dc:	f84d 3d04 	str.w	r3, [sp, #-4]!
  4044e0:	f04f 0080 	mov.w	r0, #128	; 0x80
  4044e4:	b672      	cpsid	i
  4044e6:	f380 8811 	msr	BASEPRI, r0
  4044ea:	f3bf 8f4f 	dsb	sy
  4044ee:	f3bf 8f6f 	isb	sy
  4044f2:	b662      	cpsie	i
  4044f4:	f001 f8aa 	bl	40564c <vTaskSwitchContext>
  4044f8:	f04f 0000 	mov.w	r0, #0
  4044fc:	f380 8811 	msr	BASEPRI, r0
  404500:	bc08      	pop	{r3}
  404502:	6819      	ldr	r1, [r3, #0]
  404504:	6808      	ldr	r0, [r1, #0]
  404506:	e8b0 4ff0 	ldmia.w	r0!, {r4, r5, r6, r7, r8, r9, sl, fp, lr}
  40450a:	f01e 0f10 	tst.w	lr, #16
  40450e:	bf08      	it	eq
  404510:	ecb0 8a10 	vldmiaeq	r0!, {s16-s31}
  404514:	f380 8809 	msr	PSP, r0
  404518:	f3bf 8f6f 	isb	sy
  40451c:	4770      	bx	lr
  40451e:	bf00      	nop

00404520 <pxCurrentTCBConst>:
  404520:	2040c2c4 	.word	0x2040c2c4
  404524:	4770      	bx	lr
  404526:	bf00      	nop

00404528 <SysTick_Handler>:
{
  404528:	b508      	push	{r3, lr}
	__asm volatile
  40452a:	f3ef 8311 	mrs	r3, BASEPRI
  40452e:	f04f 0280 	mov.w	r2, #128	; 0x80
  404532:	b672      	cpsid	i
  404534:	f382 8811 	msr	BASEPRI, r2
  404538:	f3bf 8f6f 	isb	sy
  40453c:	f3bf 8f4f 	dsb	sy
  404540:	b662      	cpsie	i
		if( xTaskIncrementTick() != pdFALSE )
  404542:	4b05      	ldr	r3, [pc, #20]	; (404558 <SysTick_Handler+0x30>)
  404544:	4798      	blx	r3
  404546:	b118      	cbz	r0, 404550 <SysTick_Handler+0x28>
			portNVIC_INT_CTRL_REG = portNVIC_PENDSVSET_BIT;
  404548:	f04f 5280 	mov.w	r2, #268435456	; 0x10000000
  40454c:	4b03      	ldr	r3, [pc, #12]	; (40455c <SysTick_Handler+0x34>)
  40454e:	601a      	str	r2, [r3, #0]
	__asm volatile
  404550:	2300      	movs	r3, #0
  404552:	f383 8811 	msr	BASEPRI, r3
  404556:	bd08      	pop	{r3, pc}
  404558:	004052b9 	.word	0x004052b9
  40455c:	e000ed04 	.word	0xe000ed04

00404560 <vPortSetupTimerInterrupt>:
	portNVIC_SYSTICK_LOAD_REG = ( configSYSTICK_CLOCK_HZ / configTICK_RATE_HZ ) - 1UL;
  404560:	4a03      	ldr	r2, [pc, #12]	; (404570 <vPortSetupTimerInterrupt+0x10>)
  404562:	4b04      	ldr	r3, [pc, #16]	; (404574 <vPortSetupTimerInterrupt+0x14>)
  404564:	601a      	str	r2, [r3, #0]
	portNVIC_SYSTICK_CTRL_REG = ( portNVIC_SYSTICK_CLK_BIT | portNVIC_SYSTICK_INT_BIT | portNVIC_SYSTICK_ENABLE_BIT );
  404566:	2207      	movs	r2, #7
  404568:	3b04      	subs	r3, #4
  40456a:	601a      	str	r2, [r3, #0]
  40456c:	4770      	bx	lr
  40456e:	bf00      	nop
  404570:	0003a97f 	.word	0x0003a97f
  404574:	e000e014 	.word	0xe000e014

00404578 <xPortStartScheduler>:
{
  404578:	b500      	push	{lr}
  40457a:	b083      	sub	sp, #12
		ulOriginalPriority = *pucFirstUserPriorityRegister;
  40457c:	4b25      	ldr	r3, [pc, #148]	; (404614 <xPortStartScheduler+0x9c>)
  40457e:	781a      	ldrb	r2, [r3, #0]
  404580:	b2d2      	uxtb	r2, r2
  404582:	9201      	str	r2, [sp, #4]
		*pucFirstUserPriorityRegister = portMAX_8_BIT_VALUE;
  404584:	22ff      	movs	r2, #255	; 0xff
  404586:	701a      	strb	r2, [r3, #0]
		ucMaxPriorityValue = *pucFirstUserPriorityRegister;
  404588:	781b      	ldrb	r3, [r3, #0]
  40458a:	b2db      	uxtb	r3, r3
  40458c:	f88d 3003 	strb.w	r3, [sp, #3]
		ucMaxSysCallPriority = configMAX_SYSCALL_INTERRUPT_PRIORITY & ucMaxPriorityValue;
  404590:	f89d 3003 	ldrb.w	r3, [sp, #3]
  404594:	f003 0380 	and.w	r3, r3, #128	; 0x80
  404598:	4a1f      	ldr	r2, [pc, #124]	; (404618 <xPortStartScheduler+0xa0>)
  40459a:	7013      	strb	r3, [r2, #0]
		ulMaxPRIGROUPValue = portMAX_PRIGROUP_BITS;
  40459c:	2207      	movs	r2, #7
  40459e:	4b1f      	ldr	r3, [pc, #124]	; (40461c <xPortStartScheduler+0xa4>)
  4045a0:	601a      	str	r2, [r3, #0]
		while( ( ucMaxPriorityValue & portTOP_BIT_OF_BYTE ) == portTOP_BIT_OF_BYTE )
  4045a2:	f89d 3003 	ldrb.w	r3, [sp, #3]
  4045a6:	f013 0f80 	tst.w	r3, #128	; 0x80
  4045aa:	d010      	beq.n	4045ce <xPortStartScheduler+0x56>
  4045ac:	2206      	movs	r2, #6
  4045ae:	e000      	b.n	4045b2 <xPortStartScheduler+0x3a>
  4045b0:	460a      	mov	r2, r1
			ucMaxPriorityValue <<= ( uint8_t ) 0x01;
  4045b2:	f89d 3003 	ldrb.w	r3, [sp, #3]
  4045b6:	005b      	lsls	r3, r3, #1
  4045b8:	b2db      	uxtb	r3, r3
  4045ba:	f88d 3003 	strb.w	r3, [sp, #3]
		while( ( ucMaxPriorityValue & portTOP_BIT_OF_BYTE ) == portTOP_BIT_OF_BYTE )
  4045be:	f89d 3003 	ldrb.w	r3, [sp, #3]
  4045c2:	1e51      	subs	r1, r2, #1
  4045c4:	f013 0f80 	tst.w	r3, #128	; 0x80
  4045c8:	d1f2      	bne.n	4045b0 <xPortStartScheduler+0x38>
  4045ca:	4b14      	ldr	r3, [pc, #80]	; (40461c <xPortStartScheduler+0xa4>)
  4045cc:	601a      	str	r2, [r3, #0]
		ulMaxPRIGROUPValue &= portPRIORITY_GROUP_MASK;
  4045ce:	4a13      	ldr	r2, [pc, #76]	; (40461c <xPortStartScheduler+0xa4>)
		ulMaxPRIGROUPValue <<= portPRIGROUP_SHIFT;
  4045d0:	6813      	ldr	r3, [r2, #0]
  4045d2:	021b      	lsls	r3, r3, #8
		ulMaxPRIGROUPValue &= portPRIORITY_GROUP_MASK;
  4045d4:	f403 63e0 	and.w	r3, r3, #1792	; 0x700
  4045d8:	6013      	str	r3, [r2, #0]
		*pucFirstUserPriorityRegister = ulOriginalPriority;
  4045da:	9b01      	ldr	r3, [sp, #4]
  4045dc:	b2db      	uxtb	r3, r3
  4045de:	4a0d      	ldr	r2, [pc, #52]	; (404614 <xPortStartScheduler+0x9c>)
  4045e0:	7013      	strb	r3, [r2, #0]
	portNVIC_SYSPRI2_REG |= portNVIC_PENDSV_PRI;
  4045e2:	4b0f      	ldr	r3, [pc, #60]	; (404620 <xPortStartScheduler+0xa8>)
  4045e4:	681a      	ldr	r2, [r3, #0]
  4045e6:	f442 0260 	orr.w	r2, r2, #14680064	; 0xe00000
  4045ea:	601a      	str	r2, [r3, #0]
	portNVIC_SYSPRI2_REG |= portNVIC_SYSTICK_PRI;
  4045ec:	681a      	ldr	r2, [r3, #0]
  4045ee:	f042 4260 	orr.w	r2, r2, #3758096384	; 0xe0000000
  4045f2:	601a      	str	r2, [r3, #0]
	vPortSetupTimerInterrupt();
  4045f4:	4b0b      	ldr	r3, [pc, #44]	; (404624 <xPortStartScheduler+0xac>)
  4045f6:	4798      	blx	r3
	uxCriticalNesting = 0;
  4045f8:	2200      	movs	r2, #0
  4045fa:	4b0b      	ldr	r3, [pc, #44]	; (404628 <xPortStartScheduler+0xb0>)
  4045fc:	601a      	str	r2, [r3, #0]
	vPortEnableVFP();
  4045fe:	4b0b      	ldr	r3, [pc, #44]	; (40462c <xPortStartScheduler+0xb4>)
  404600:	4798      	blx	r3
	*( portFPCCR ) |= portASPEN_AND_LSPEN_BITS;
  404602:	4a0b      	ldr	r2, [pc, #44]	; (404630 <xPortStartScheduler+0xb8>)
  404604:	6813      	ldr	r3, [r2, #0]
  404606:	f043 4340 	orr.w	r3, r3, #3221225472	; 0xc0000000
  40460a:	6013      	str	r3, [r2, #0]
	prvPortStartFirstTask();
  40460c:	4b09      	ldr	r3, [pc, #36]	; (404634 <xPortStartScheduler+0xbc>)
  40460e:	4798      	blx	r3
	prvTaskExitError();
  404610:	4b09      	ldr	r3, [pc, #36]	; (404638 <xPortStartScheduler+0xc0>)
  404612:	4798      	blx	r3
  404614:	e000e400 	.word	0xe000e400
  404618:	20400ab6 	.word	0x20400ab6
  40461c:	20400ab8 	.word	0x20400ab8
  404620:	e000ed20 	.word	0xe000ed20
  404624:	00404561 	.word	0x00404561
  404628:	20400038 	.word	0x20400038
  40462c:	004043e5 	.word	0x004043e5
  404630:	e000ef34 	.word	0xe000ef34
  404634:	004043c5 	.word	0x004043c5
  404638:	00404389 	.word	0x00404389

0040463c <vPortValidateInterruptPriority>:
	{
	uint32_t ulCurrentInterrupt;
	uint8_t ucCurrentPriority;

		/* Obtain the number of the currently executing interrupt. */
		__asm volatile( "mrs %0, ipsr" : "=r"( ulCurrentInterrupt ) );
  40463c:	f3ef 8305 	mrs	r3, IPSR

		/* Is the interrupt number a user defined interrupt? */
		if( ulCurrentInterrupt >= portFIRST_USER_INTERRUPT_NUMBER )
  404640:	2b0f      	cmp	r3, #15
  404642:	d911      	bls.n	404668 <vPortValidateInterruptPriority+0x2c>
		{
			/* Look up the interrupt's priority. */
			ucCurrentPriority = pcInterruptPriorityRegisters[ ulCurrentInterrupt ];
  404644:	4a12      	ldr	r2, [pc, #72]	; (404690 <vPortValidateInterruptPriority+0x54>)
  404646:	5c9b      	ldrb	r3, [r3, r2]
  404648:	b2db      	uxtb	r3, r3
			interrupt entry is as fast and simple as possible.

			The following links provide detailed information:
			http://www.freertos.org/RTOS-Cortex-M3-M4.html
			http://www.freertos.org/FAQHelp.html */
			configASSERT( ucCurrentPriority >= ucMaxSysCallPriority );
  40464a:	4a12      	ldr	r2, [pc, #72]	; (404694 <vPortValidateInterruptPriority+0x58>)
  40464c:	7812      	ldrb	r2, [r2, #0]
  40464e:	429a      	cmp	r2, r3
  404650:	d90a      	bls.n	404668 <vPortValidateInterruptPriority+0x2c>
	__asm volatile
  404652:	f04f 0380 	mov.w	r3, #128	; 0x80
  404656:	b672      	cpsid	i
  404658:	f383 8811 	msr	BASEPRI, r3
  40465c:	f3bf 8f6f 	isb	sy
  404660:	f3bf 8f4f 	dsb	sy
  404664:	b662      	cpsie	i
  404666:	e7fe      	b.n	404666 <vPortValidateInterruptPriority+0x2a>
		configuration then the correct setting can be achieved on all Cortex-M
		devices by calling NVIC_SetPriorityGrouping( 0 ); before starting the
		scheduler.  Note however that some vendor specific peripheral libraries
		assume a non-zero priority group setting, in which cases using a value
		of zero will result in unpredicable behaviour. */
		configASSERT( ( portAIRCR_REG & portPRIORITY_GROUP_MASK ) <= ulMaxPRIGROUPValue );
  404668:	4b0b      	ldr	r3, [pc, #44]	; (404698 <vPortValidateInterruptPriority+0x5c>)
  40466a:	681b      	ldr	r3, [r3, #0]
  40466c:	f403 63e0 	and.w	r3, r3, #1792	; 0x700
  404670:	4a0a      	ldr	r2, [pc, #40]	; (40469c <vPortValidateInterruptPriority+0x60>)
  404672:	6812      	ldr	r2, [r2, #0]
  404674:	4293      	cmp	r3, r2
  404676:	d90a      	bls.n	40468e <vPortValidateInterruptPriority+0x52>
  404678:	f04f 0380 	mov.w	r3, #128	; 0x80
  40467c:	b672      	cpsid	i
  40467e:	f383 8811 	msr	BASEPRI, r3
  404682:	f3bf 8f6f 	isb	sy
  404686:	f3bf 8f4f 	dsb	sy
  40468a:	b662      	cpsie	i
  40468c:	e7fe      	b.n	40468c <vPortValidateInterruptPriority+0x50>
  40468e:	4770      	bx	lr
  404690:	e000e3f0 	.word	0xe000e3f0
  404694:	20400ab6 	.word	0x20400ab6
  404698:	e000ed0c 	.word	0xe000ed0c
  40469c:	20400ab8 	.word	0x20400ab8

004046a0 <pvPortMalloc>:
static size_t xNextFreeByte = ( size_t ) 0;

/*-----------------------------------------------------------*/

void *pvPortMalloc( size_t xWantedSize )
{
  4046a0:	b538      	push	{r3, r4, r5, lr}
  4046a2:	4604      	mov	r4, r0
void *pvReturn = NULL;
static uint8_t *pucAlignedHeap = NULL;

	/* Ensure that blocks are always aligned to the required number of bytes. */
	#if portBYTE_ALIGNMENT != 1
		if( xWantedSize & portBYTE_ALIGNMENT_MASK )
  4046a4:	f010 0f07 	tst.w	r0, #7
  4046a8:	d002      	beq.n	4046b0 <pvPortMalloc+0x10>
		{
			/* Byte alignment required. */
			xWantedSize += ( portBYTE_ALIGNMENT - ( xWantedSize & portBYTE_ALIGNMENT_MASK ) );
  4046aa:	f020 0407 	bic.w	r4, r0, #7
  4046ae:	3408      	adds	r4, #8
		}
	#endif

	vTaskSuspendAll();
  4046b0:	4b11      	ldr	r3, [pc, #68]	; (4046f8 <pvPortMalloc+0x58>)
  4046b2:	4798      	blx	r3
	{
		if( pucAlignedHeap == NULL )
  4046b4:	4b11      	ldr	r3, [pc, #68]	; (4046fc <pvPortMalloc+0x5c>)
  4046b6:	681b      	ldr	r3, [r3, #0]
  4046b8:	b193      	cbz	r3, 4046e0 <pvPortMalloc+0x40>
			/* Ensure the heap starts on a correctly aligned boundary. */
			pucAlignedHeap = ( uint8_t * ) ( ( ( portPOINTER_SIZE_TYPE ) &ucHeap[ portBYTE_ALIGNMENT ] ) & ( ~( ( portPOINTER_SIZE_TYPE ) portBYTE_ALIGNMENT_MASK ) ) );
		}

		/* Check there is enough room left for the allocation. */
		if( ( ( xNextFreeByte + xWantedSize ) < configADJUSTED_HEAP_SIZE ) &&
  4046ba:	4b11      	ldr	r3, [pc, #68]	; (404700 <pvPortMalloc+0x60>)
  4046bc:	681b      	ldr	r3, [r3, #0]
  4046be:	441c      	add	r4, r3
  4046c0:	42a3      	cmp	r3, r4
  4046c2:	d213      	bcs.n	4046ec <pvPortMalloc+0x4c>
  4046c4:	f24b 72f7 	movw	r2, #47095	; 0xb7f7
  4046c8:	4294      	cmp	r4, r2
  4046ca:	d80f      	bhi.n	4046ec <pvPortMalloc+0x4c>
			( ( xNextFreeByte + xWantedSize ) > xNextFreeByte )	)/* Check for overflow. */
		{
			/* Return the next free byte then increment the index past this
			block. */
			pvReturn = pucAlignedHeap + xNextFreeByte;
  4046cc:	4a0b      	ldr	r2, [pc, #44]	; (4046fc <pvPortMalloc+0x5c>)
  4046ce:	6815      	ldr	r5, [r2, #0]
  4046d0:	441d      	add	r5, r3
			xNextFreeByte += xWantedSize;
  4046d2:	4b0b      	ldr	r3, [pc, #44]	; (404700 <pvPortMalloc+0x60>)
  4046d4:	601c      	str	r4, [r3, #0]
		}

		traceMALLOC( pvReturn, xWantedSize );
	}
	( void ) xTaskResumeAll();
  4046d6:	4b0b      	ldr	r3, [pc, #44]	; (404704 <pvPortMalloc+0x64>)
  4046d8:	4798      	blx	r3

	#if( configUSE_MALLOC_FAILED_HOOK == 1 )
	{
		if( pvReturn == NULL )
  4046da:	b14d      	cbz	r5, 4046f0 <pvPortMalloc+0x50>
		}
	}
	#endif

	return pvReturn;
}
  4046dc:	4628      	mov	r0, r5
  4046de:	bd38      	pop	{r3, r4, r5, pc}
			pucAlignedHeap = ( uint8_t * ) ( ( ( portPOINTER_SIZE_TYPE ) &ucHeap[ portBYTE_ALIGNMENT ] ) & ( ~( ( portPOINTER_SIZE_TYPE ) portBYTE_ALIGNMENT_MASK ) ) );
  4046e0:	4b09      	ldr	r3, [pc, #36]	; (404708 <pvPortMalloc+0x68>)
  4046e2:	f023 0307 	bic.w	r3, r3, #7
  4046e6:	4a05      	ldr	r2, [pc, #20]	; (4046fc <pvPortMalloc+0x5c>)
  4046e8:	6013      	str	r3, [r2, #0]
  4046ea:	e7e6      	b.n	4046ba <pvPortMalloc+0x1a>
	( void ) xTaskResumeAll();
  4046ec:	4b05      	ldr	r3, [pc, #20]	; (404704 <pvPortMalloc+0x64>)
  4046ee:	4798      	blx	r3
			vApplicationMallocFailedHook();
  4046f0:	4b06      	ldr	r3, [pc, #24]	; (40470c <pvPortMalloc+0x6c>)
  4046f2:	4798      	blx	r3
  4046f4:	2500      	movs	r5, #0
	return pvReturn;
  4046f6:	e7f1      	b.n	4046dc <pvPortMalloc+0x3c>
  4046f8:	0040529d 	.word	0x0040529d
  4046fc:	20400abc 	.word	0x20400abc
  404700:	2040c2c0 	.word	0x2040c2c0
  404704:	00405405 	.word	0x00405405
  404708:	20400ac8 	.word	0x20400ac8
  40470c:	004065fb 	.word	0x004065fb

00404710 <vPortFree>:
	heap_4.c for alternative implementations, and the memory management pages of
	http://www.FreeRTOS.org for more information. */
	( void ) pv;

	/* Force an assert as it is invalid to call this function. */
	configASSERT( pv == NULL );
  404710:	b150      	cbz	r0, 404728 <vPortFree+0x18>
  404712:	f04f 0380 	mov.w	r3, #128	; 0x80
  404716:	b672      	cpsid	i
  404718:	f383 8811 	msr	BASEPRI, r3
  40471c:	f3bf 8f6f 	isb	sy
  404720:	f3bf 8f4f 	dsb	sy
  404724:	b662      	cpsie	i
  404726:	e7fe      	b.n	404726 <vPortFree+0x16>
  404728:	4770      	bx	lr
	...

0040472c <prvCopyDataToQueue>:

#endif /* configUSE_TRACE_FACILITY */
/*-----------------------------------------------------------*/

static BaseType_t prvCopyDataToQueue( Queue_t * const pxQueue, const void *pvItemToQueue, const BaseType_t xPosition )
{
  40472c:	b538      	push	{r3, r4, r5, lr}
  40472e:	4604      	mov	r4, r0
  404730:	4615      	mov	r5, r2
BaseType_t xReturn = pdFALSE;

	if( pxQueue->uxItemSize == ( UBaseType_t ) 0 )
  404732:	6c02      	ldr	r2, [r0, #64]	; 0x40
  404734:	b95a      	cbnz	r2, 40474e <prvCopyDataToQueue+0x22>
	{
		#if ( configUSE_MUTEXES == 1 )
		{
			if( pxQueue->uxQueueType == queueQUEUE_IS_MUTEX )
  404736:	6803      	ldr	r3, [r0, #0]
  404738:	2b00      	cmp	r3, #0
  40473a:	d12e      	bne.n	40479a <prvCopyDataToQueue+0x6e>
			{
				/* The mutex is no longer being held. */
				xReturn = xTaskPriorityDisinherit( ( void * ) pxQueue->pxMutexHolder );
  40473c:	6840      	ldr	r0, [r0, #4]
  40473e:	4b1b      	ldr	r3, [pc, #108]	; (4047ac <prvCopyDataToQueue+0x80>)
  404740:	4798      	blx	r3
				pxQueue->pxMutexHolder = NULL;
  404742:	2300      	movs	r3, #0
  404744:	6063      	str	r3, [r4, #4]
		{
			mtCOVERAGE_TEST_MARKER();
		}
	}

	++( pxQueue->uxMessagesWaiting );
  404746:	6ba3      	ldr	r3, [r4, #56]	; 0x38
  404748:	3301      	adds	r3, #1
  40474a:	63a3      	str	r3, [r4, #56]	; 0x38

	return xReturn;
}
  40474c:	bd38      	pop	{r3, r4, r5, pc}
	else if( xPosition == queueSEND_TO_BACK )
  40474e:	b96d      	cbnz	r5, 40476c <prvCopyDataToQueue+0x40>
		( void ) memcpy( ( void * ) pxQueue->pcWriteTo, pvItemToQueue, ( size_t ) pxQueue->uxItemSize ); /*lint !e961 !e418 MISRA exception as the casts are only redundant for some ports, plus previous logic ensures a null pointer can only be passed to memcpy() if the copy size is 0. */
  404750:	6880      	ldr	r0, [r0, #8]
  404752:	4b17      	ldr	r3, [pc, #92]	; (4047b0 <prvCopyDataToQueue+0x84>)
  404754:	4798      	blx	r3
		pxQueue->pcWriteTo += pxQueue->uxItemSize;
  404756:	68a3      	ldr	r3, [r4, #8]
  404758:	6c22      	ldr	r2, [r4, #64]	; 0x40
  40475a:	4413      	add	r3, r2
  40475c:	60a3      	str	r3, [r4, #8]
		if( pxQueue->pcWriteTo >= pxQueue->pcTail ) /*lint !e946 MISRA exception justified as comparison of pointers is the cleanest solution. */
  40475e:	6862      	ldr	r2, [r4, #4]
  404760:	4293      	cmp	r3, r2
  404762:	d31c      	bcc.n	40479e <prvCopyDataToQueue+0x72>
			pxQueue->pcWriteTo = pxQueue->pcHead;
  404764:	6823      	ldr	r3, [r4, #0]
  404766:	60a3      	str	r3, [r4, #8]
BaseType_t xReturn = pdFALSE;
  404768:	2000      	movs	r0, #0
  40476a:	e7ec      	b.n	404746 <prvCopyDataToQueue+0x1a>
		( void ) memcpy( ( void * ) pxQueue->u.pcReadFrom, pvItemToQueue, ( size_t ) pxQueue->uxItemSize ); /*lint !e961 MISRA exception as the casts are only redundant for some ports. */
  40476c:	68c0      	ldr	r0, [r0, #12]
  40476e:	4b10      	ldr	r3, [pc, #64]	; (4047b0 <prvCopyDataToQueue+0x84>)
  404770:	4798      	blx	r3
		pxQueue->u.pcReadFrom -= pxQueue->uxItemSize;
  404772:	6c23      	ldr	r3, [r4, #64]	; 0x40
  404774:	425b      	negs	r3, r3
  404776:	68e2      	ldr	r2, [r4, #12]
  404778:	441a      	add	r2, r3
  40477a:	60e2      	str	r2, [r4, #12]
		if( pxQueue->u.pcReadFrom < pxQueue->pcHead ) /*lint !e946 MISRA exception justified as comparison of pointers is the cleanest solution. */
  40477c:	6821      	ldr	r1, [r4, #0]
  40477e:	428a      	cmp	r2, r1
  404780:	d202      	bcs.n	404788 <prvCopyDataToQueue+0x5c>
			pxQueue->u.pcReadFrom = ( pxQueue->pcTail - pxQueue->uxItemSize );
  404782:	6862      	ldr	r2, [r4, #4]
  404784:	4413      	add	r3, r2
  404786:	60e3      	str	r3, [r4, #12]
		if( xPosition == queueOVERWRITE )
  404788:	2d02      	cmp	r5, #2
  40478a:	d10a      	bne.n	4047a2 <prvCopyDataToQueue+0x76>
			if( pxQueue->uxMessagesWaiting > ( UBaseType_t ) 0 )
  40478c:	6ba3      	ldr	r3, [r4, #56]	; 0x38
  40478e:	b153      	cbz	r3, 4047a6 <prvCopyDataToQueue+0x7a>
				--( pxQueue->uxMessagesWaiting );
  404790:	6ba3      	ldr	r3, [r4, #56]	; 0x38
  404792:	3b01      	subs	r3, #1
  404794:	63a3      	str	r3, [r4, #56]	; 0x38
BaseType_t xReturn = pdFALSE;
  404796:	2000      	movs	r0, #0
  404798:	e7d5      	b.n	404746 <prvCopyDataToQueue+0x1a>
  40479a:	2000      	movs	r0, #0
  40479c:	e7d3      	b.n	404746 <prvCopyDataToQueue+0x1a>
  40479e:	2000      	movs	r0, #0
  4047a0:	e7d1      	b.n	404746 <prvCopyDataToQueue+0x1a>
  4047a2:	2000      	movs	r0, #0
  4047a4:	e7cf      	b.n	404746 <prvCopyDataToQueue+0x1a>
  4047a6:	2000      	movs	r0, #0
  4047a8:	e7cd      	b.n	404746 <prvCopyDataToQueue+0x1a>
  4047aa:	bf00      	nop
  4047ac:	00405a4d 	.word	0x00405a4d
  4047b0:	004068dd 	.word	0x004068dd

004047b4 <prvNotifyQueueSetContainer>:
/*-----------------------------------------------------------*/

#if ( configUSE_QUEUE_SETS == 1 )

	static BaseType_t prvNotifyQueueSetContainer( const Queue_t * const pxQueue, const BaseType_t xCopyPosition )
	{
  4047b4:	b530      	push	{r4, r5, lr}
  4047b6:	b083      	sub	sp, #12
  4047b8:	9001      	str	r0, [sp, #4]
	Queue_t *pxQueueSetContainer = pxQueue->pxQueueSetContainer;
  4047ba:	6d44      	ldr	r4, [r0, #84]	; 0x54
	BaseType_t xReturn = pdFALSE;

		/* This function must be called form a critical section. */

		configASSERT( pxQueueSetContainer );
  4047bc:	b174      	cbz	r4, 4047dc <prvNotifyQueueSetContainer+0x28>
		configASSERT( pxQueueSetContainer->uxMessagesWaiting < pxQueueSetContainer->uxLength );
  4047be:	6ba2      	ldr	r2, [r4, #56]	; 0x38
  4047c0:	6be3      	ldr	r3, [r4, #60]	; 0x3c
  4047c2:	429a      	cmp	r2, r3
  4047c4:	d315      	bcc.n	4047f2 <prvNotifyQueueSetContainer+0x3e>
  4047c6:	f04f 0380 	mov.w	r3, #128	; 0x80
  4047ca:	b672      	cpsid	i
  4047cc:	f383 8811 	msr	BASEPRI, r3
  4047d0:	f3bf 8f6f 	isb	sy
  4047d4:	f3bf 8f4f 	dsb	sy
  4047d8:	b662      	cpsie	i
  4047da:	e7fe      	b.n	4047da <prvNotifyQueueSetContainer+0x26>
  4047dc:	f04f 0380 	mov.w	r3, #128	; 0x80
  4047e0:	b672      	cpsid	i
  4047e2:	f383 8811 	msr	BASEPRI, r3
  4047e6:	f3bf 8f6f 	isb	sy
  4047ea:	f3bf 8f4f 	dsb	sy
  4047ee:	b662      	cpsie	i
  4047f0:	e7fe      	b.n	4047f0 <prvNotifyQueueSetContainer+0x3c>

		if( pxQueueSetContainer->uxMessagesWaiting < pxQueueSetContainer->uxLength )
  4047f2:	6ba2      	ldr	r2, [r4, #56]	; 0x38
  4047f4:	4293      	cmp	r3, r2
  4047f6:	d803      	bhi.n	404800 <prvNotifyQueueSetContainer+0x4c>
	BaseType_t xReturn = pdFALSE;
  4047f8:	2500      	movs	r5, #0
		{
			mtCOVERAGE_TEST_MARKER();
		}

		return xReturn;
	}
  4047fa:	4628      	mov	r0, r5
  4047fc:	b003      	add	sp, #12
  4047fe:	bd30      	pop	{r4, r5, pc}
  404800:	460a      	mov	r2, r1
			xReturn = prvCopyDataToQueue( pxQueueSetContainer, &pxQueue, xCopyPosition );
  404802:	a901      	add	r1, sp, #4
  404804:	4620      	mov	r0, r4
  404806:	4b0b      	ldr	r3, [pc, #44]	; (404834 <prvNotifyQueueSetContainer+0x80>)
  404808:	4798      	blx	r3
  40480a:	4605      	mov	r5, r0
			if( pxQueueSetContainer->xTxLock == queueUNLOCKED )
  40480c:	6ca3      	ldr	r3, [r4, #72]	; 0x48
  40480e:	f1b3 3fff 	cmp.w	r3, #4294967295
  404812:	d10a      	bne.n	40482a <prvNotifyQueueSetContainer+0x76>
				if( listLIST_IS_EMPTY( &( pxQueueSetContainer->xTasksWaitingToReceive ) ) == pdFALSE )
  404814:	6a63      	ldr	r3, [r4, #36]	; 0x24
  404816:	2b00      	cmp	r3, #0
  404818:	d0ef      	beq.n	4047fa <prvNotifyQueueSetContainer+0x46>
					if( xTaskRemoveFromEventList( &( pxQueueSetContainer->xTasksWaitingToReceive ) ) != pdFALSE )
  40481a:	f104 0024 	add.w	r0, r4, #36	; 0x24
  40481e:	4b06      	ldr	r3, [pc, #24]	; (404838 <prvNotifyQueueSetContainer+0x84>)
  404820:	4798      	blx	r3
  404822:	2800      	cmp	r0, #0
						xReturn = pdTRUE;
  404824:	bf18      	it	ne
  404826:	2501      	movne	r5, #1
  404828:	e7e7      	b.n	4047fa <prvNotifyQueueSetContainer+0x46>
				( pxQueueSetContainer->xTxLock )++;
  40482a:	6ca3      	ldr	r3, [r4, #72]	; 0x48
  40482c:	3301      	adds	r3, #1
  40482e:	64a3      	str	r3, [r4, #72]	; 0x48
  404830:	e7e3      	b.n	4047fa <prvNotifyQueueSetContainer+0x46>
  404832:	bf00      	nop
  404834:	0040472d 	.word	0x0040472d
  404838:	00405821 	.word	0x00405821

0040483c <prvCopyDataFromQueue>:
	if( pxQueue->uxItemSize != ( UBaseType_t ) 0 )
  40483c:	6c02      	ldr	r2, [r0, #64]	; 0x40
  40483e:	b172      	cbz	r2, 40485e <prvCopyDataFromQueue+0x22>
{
  404840:	b510      	push	{r4, lr}
  404842:	4603      	mov	r3, r0
		pxQueue->u.pcReadFrom += pxQueue->uxItemSize;
  404844:	68c4      	ldr	r4, [r0, #12]
  404846:	4414      	add	r4, r2
  404848:	60c4      	str	r4, [r0, #12]
		if( pxQueue->u.pcReadFrom >= pxQueue->pcTail ) /*lint !e946 MISRA exception justified as use of the relational operator is the cleanest solutions. */
  40484a:	6840      	ldr	r0, [r0, #4]
  40484c:	4284      	cmp	r4, r0
  40484e:	d301      	bcc.n	404854 <prvCopyDataFromQueue+0x18>
			pxQueue->u.pcReadFrom = pxQueue->pcHead;
  404850:	6818      	ldr	r0, [r3, #0]
  404852:	60d8      	str	r0, [r3, #12]
  404854:	4608      	mov	r0, r1
		( void ) memcpy( ( void * ) pvBuffer, ( void * ) pxQueue->u.pcReadFrom, ( size_t ) pxQueue->uxItemSize ); /*lint !e961 !e418 MISRA exception as the casts are only redundant for some ports.  Also previous logic ensures a null pointer can only be passed to memcpy() when the count is 0. */
  404856:	68d9      	ldr	r1, [r3, #12]
  404858:	4b01      	ldr	r3, [pc, #4]	; (404860 <prvCopyDataFromQueue+0x24>)
  40485a:	4798      	blx	r3
  40485c:	bd10      	pop	{r4, pc}
  40485e:	4770      	bx	lr
  404860:	004068dd 	.word	0x004068dd

00404864 <prvUnlockQueue>:
{
  404864:	b5f8      	push	{r3, r4, r5, r6, r7, lr}
  404866:	4604      	mov	r4, r0
	taskENTER_CRITICAL();
  404868:	4b22      	ldr	r3, [pc, #136]	; (4048f4 <prvUnlockQueue+0x90>)
  40486a:	4798      	blx	r3
		while( pxQueue->xTxLock > queueLOCKED_UNMODIFIED )
  40486c:	6ca3      	ldr	r3, [r4, #72]	; 0x48
  40486e:	2b00      	cmp	r3, #0
  404870:	dd1b      	ble.n	4048aa <prvUnlockQueue+0x46>
					if( prvNotifyQueueSetContainer( pxQueue, queueSEND_TO_BACK ) == pdTRUE )
  404872:	4d21      	ldr	r5, [pc, #132]	; (4048f8 <prvUnlockQueue+0x94>)
						vTaskMissedYield();
  404874:	4f21      	ldr	r7, [pc, #132]	; (4048fc <prvUnlockQueue+0x98>)
						if( xTaskRemoveFromEventList( &( pxQueue->xTasksWaitingToReceive ) ) != pdFALSE )
  404876:	4e22      	ldr	r6, [pc, #136]	; (404900 <prvUnlockQueue+0x9c>)
  404878:	e00b      	b.n	404892 <prvUnlockQueue+0x2e>
					if( listLIST_IS_EMPTY( &( pxQueue->xTasksWaitingToReceive ) ) == pdFALSE )
  40487a:	6a63      	ldr	r3, [r4, #36]	; 0x24
  40487c:	b1ab      	cbz	r3, 4048aa <prvUnlockQueue+0x46>
						if( xTaskRemoveFromEventList( &( pxQueue->xTasksWaitingToReceive ) ) != pdFALSE )
  40487e:	f104 0024 	add.w	r0, r4, #36	; 0x24
  404882:	47b0      	blx	r6
  404884:	b978      	cbnz	r0, 4048a6 <prvUnlockQueue+0x42>
			--( pxQueue->xTxLock );
  404886:	6ca3      	ldr	r3, [r4, #72]	; 0x48
  404888:	3b01      	subs	r3, #1
  40488a:	64a3      	str	r3, [r4, #72]	; 0x48
		while( pxQueue->xTxLock > queueLOCKED_UNMODIFIED )
  40488c:	6ca3      	ldr	r3, [r4, #72]	; 0x48
  40488e:	2b00      	cmp	r3, #0
  404890:	dd0b      	ble.n	4048aa <prvUnlockQueue+0x46>
				if( pxQueue->pxQueueSetContainer != NULL )
  404892:	6d63      	ldr	r3, [r4, #84]	; 0x54
  404894:	2b00      	cmp	r3, #0
  404896:	d0f0      	beq.n	40487a <prvUnlockQueue+0x16>
					if( prvNotifyQueueSetContainer( pxQueue, queueSEND_TO_BACK ) == pdTRUE )
  404898:	2100      	movs	r1, #0
  40489a:	4620      	mov	r0, r4
  40489c:	47a8      	blx	r5
  40489e:	2801      	cmp	r0, #1
  4048a0:	d1f1      	bne.n	404886 <prvUnlockQueue+0x22>
						vTaskMissedYield();
  4048a2:	47b8      	blx	r7
  4048a4:	e7ef      	b.n	404886 <prvUnlockQueue+0x22>
							vTaskMissedYield();
  4048a6:	47b8      	blx	r7
  4048a8:	e7ed      	b.n	404886 <prvUnlockQueue+0x22>
		pxQueue->xTxLock = queueUNLOCKED;
  4048aa:	f04f 33ff 	mov.w	r3, #4294967295
  4048ae:	64a3      	str	r3, [r4, #72]	; 0x48
	taskEXIT_CRITICAL();
  4048b0:	4b14      	ldr	r3, [pc, #80]	; (404904 <prvUnlockQueue+0xa0>)
  4048b2:	4798      	blx	r3
	taskENTER_CRITICAL();
  4048b4:	4b0f      	ldr	r3, [pc, #60]	; (4048f4 <prvUnlockQueue+0x90>)
  4048b6:	4798      	blx	r3
		while( pxQueue->xRxLock > queueLOCKED_UNMODIFIED )
  4048b8:	6c63      	ldr	r3, [r4, #68]	; 0x44
  4048ba:	2b00      	cmp	r3, #0
  4048bc:	dd14      	ble.n	4048e8 <prvUnlockQueue+0x84>
			if( listLIST_IS_EMPTY( &( pxQueue->xTasksWaitingToSend ) ) == pdFALSE )
  4048be:	6923      	ldr	r3, [r4, #16]
  4048c0:	b193      	cbz	r3, 4048e8 <prvUnlockQueue+0x84>
				if( xTaskRemoveFromEventList( &( pxQueue->xTasksWaitingToSend ) ) != pdFALSE )
  4048c2:	f104 0610 	add.w	r6, r4, #16
  4048c6:	4d0e      	ldr	r5, [pc, #56]	; (404900 <prvUnlockQueue+0x9c>)
					vTaskMissedYield();
  4048c8:	4f0c      	ldr	r7, [pc, #48]	; (4048fc <prvUnlockQueue+0x98>)
  4048ca:	e007      	b.n	4048dc <prvUnlockQueue+0x78>
				--( pxQueue->xRxLock );
  4048cc:	6c63      	ldr	r3, [r4, #68]	; 0x44
  4048ce:	3b01      	subs	r3, #1
  4048d0:	6463      	str	r3, [r4, #68]	; 0x44
		while( pxQueue->xRxLock > queueLOCKED_UNMODIFIED )
  4048d2:	6c63      	ldr	r3, [r4, #68]	; 0x44
  4048d4:	2b00      	cmp	r3, #0
  4048d6:	dd07      	ble.n	4048e8 <prvUnlockQueue+0x84>
			if( listLIST_IS_EMPTY( &( pxQueue->xTasksWaitingToSend ) ) == pdFALSE )
  4048d8:	6923      	ldr	r3, [r4, #16]
  4048da:	b12b      	cbz	r3, 4048e8 <prvUnlockQueue+0x84>
				if( xTaskRemoveFromEventList( &( pxQueue->xTasksWaitingToSend ) ) != pdFALSE )
  4048dc:	4630      	mov	r0, r6
  4048de:	47a8      	blx	r5
  4048e0:	2800      	cmp	r0, #0
  4048e2:	d0f3      	beq.n	4048cc <prvUnlockQueue+0x68>
					vTaskMissedYield();
  4048e4:	47b8      	blx	r7
  4048e6:	e7f1      	b.n	4048cc <prvUnlockQueue+0x68>
		pxQueue->xRxLock = queueUNLOCKED;
  4048e8:	f04f 33ff 	mov.w	r3, #4294967295
  4048ec:	6463      	str	r3, [r4, #68]	; 0x44
	taskEXIT_CRITICAL();
  4048ee:	4b05      	ldr	r3, [pc, #20]	; (404904 <prvUnlockQueue+0xa0>)
  4048f0:	4798      	blx	r3
  4048f2:	bdf8      	pop	{r3, r4, r5, r6, r7, pc}
  4048f4:	00404445 	.word	0x00404445
  4048f8:	004047b5 	.word	0x004047b5
  4048fc:	0040597d 	.word	0x0040597d
  404900:	00405821 	.word	0x00405821
  404904:	00404491 	.word	0x00404491

00404908 <xQueueGenericReset>:
{
  404908:	b538      	push	{r3, r4, r5, lr}
	configASSERT( pxQueue );
  40490a:	b308      	cbz	r0, 404950 <xQueueGenericReset+0x48>
  40490c:	4604      	mov	r4, r0
  40490e:	460d      	mov	r5, r1
	taskENTER_CRITICAL();
  404910:	4b1d      	ldr	r3, [pc, #116]	; (404988 <xQueueGenericReset+0x80>)
  404912:	4798      	blx	r3
		pxQueue->pcTail = pxQueue->pcHead + ( pxQueue->uxLength * pxQueue->uxItemSize );
  404914:	6822      	ldr	r2, [r4, #0]
  404916:	6c21      	ldr	r1, [r4, #64]	; 0x40
  404918:	6be3      	ldr	r3, [r4, #60]	; 0x3c
  40491a:	fb03 f301 	mul.w	r3, r3, r1
  40491e:	18d0      	adds	r0, r2, r3
  404920:	6060      	str	r0, [r4, #4]
		pxQueue->uxMessagesWaiting = ( UBaseType_t ) 0U;
  404922:	2000      	movs	r0, #0
  404924:	63a0      	str	r0, [r4, #56]	; 0x38
		pxQueue->pcWriteTo = pxQueue->pcHead;
  404926:	60a2      	str	r2, [r4, #8]
		pxQueue->u.pcReadFrom = pxQueue->pcHead + ( ( pxQueue->uxLength - ( UBaseType_t ) 1U ) * pxQueue->uxItemSize );
  404928:	1a5b      	subs	r3, r3, r1
  40492a:	4413      	add	r3, r2
  40492c:	60e3      	str	r3, [r4, #12]
		pxQueue->xRxLock = queueUNLOCKED;
  40492e:	f04f 33ff 	mov.w	r3, #4294967295
  404932:	6463      	str	r3, [r4, #68]	; 0x44
		pxQueue->xTxLock = queueUNLOCKED;
  404934:	64a3      	str	r3, [r4, #72]	; 0x48
		if( xNewQueue == pdFALSE )
  404936:	b9fd      	cbnz	r5, 404978 <xQueueGenericReset+0x70>
			if( listLIST_IS_EMPTY( &( pxQueue->xTasksWaitingToSend ) ) == pdFALSE )
  404938:	6923      	ldr	r3, [r4, #16]
  40493a:	b12b      	cbz	r3, 404948 <xQueueGenericReset+0x40>
				if( xTaskRemoveFromEventList( &( pxQueue->xTasksWaitingToSend ) ) == pdTRUE )
  40493c:	f104 0010 	add.w	r0, r4, #16
  404940:	4b12      	ldr	r3, [pc, #72]	; (40498c <xQueueGenericReset+0x84>)
  404942:	4798      	blx	r3
  404944:	2801      	cmp	r0, #1
  404946:	d00e      	beq.n	404966 <xQueueGenericReset+0x5e>
	taskEXIT_CRITICAL();
  404948:	4b11      	ldr	r3, [pc, #68]	; (404990 <xQueueGenericReset+0x88>)
  40494a:	4798      	blx	r3
}
  40494c:	2001      	movs	r0, #1
  40494e:	bd38      	pop	{r3, r4, r5, pc}
  404950:	f04f 0380 	mov.w	r3, #128	; 0x80
  404954:	b672      	cpsid	i
  404956:	f383 8811 	msr	BASEPRI, r3
  40495a:	f3bf 8f6f 	isb	sy
  40495e:	f3bf 8f4f 	dsb	sy
  404962:	b662      	cpsie	i
  404964:	e7fe      	b.n	404964 <xQueueGenericReset+0x5c>
					queueYIELD_IF_USING_PREEMPTION();
  404966:	f04f 5280 	mov.w	r2, #268435456	; 0x10000000
  40496a:	4b0a      	ldr	r3, [pc, #40]	; (404994 <xQueueGenericReset+0x8c>)
  40496c:	601a      	str	r2, [r3, #0]
  40496e:	f3bf 8f4f 	dsb	sy
  404972:	f3bf 8f6f 	isb	sy
  404976:	e7e7      	b.n	404948 <xQueueGenericReset+0x40>
			vListInitialise( &( pxQueue->xTasksWaitingToSend ) );
  404978:	f104 0010 	add.w	r0, r4, #16
  40497c:	4d06      	ldr	r5, [pc, #24]	; (404998 <xQueueGenericReset+0x90>)
  40497e:	47a8      	blx	r5
			vListInitialise( &( pxQueue->xTasksWaitingToReceive ) );
  404980:	f104 0024 	add.w	r0, r4, #36	; 0x24
  404984:	47a8      	blx	r5
  404986:	e7df      	b.n	404948 <xQueueGenericReset+0x40>
  404988:	00404445 	.word	0x00404445
  40498c:	00405821 	.word	0x00405821
  404990:	00404491 	.word	0x00404491
  404994:	e000ed04 	.word	0xe000ed04
  404998:	004042f9 	.word	0x004042f9

0040499c <xQueueGenericCreate>:
{
  40499c:	b5f8      	push	{r3, r4, r5, r6, r7, lr}
	configASSERT( uxQueueLength > ( UBaseType_t ) 0 );
  40499e:	b950      	cbnz	r0, 4049b6 <xQueueGenericCreate+0x1a>
  4049a0:	f04f 0380 	mov.w	r3, #128	; 0x80
  4049a4:	b672      	cpsid	i
  4049a6:	f383 8811 	msr	BASEPRI, r3
  4049aa:	f3bf 8f6f 	isb	sy
  4049ae:	f3bf 8f4f 	dsb	sy
  4049b2:	b662      	cpsie	i
  4049b4:	e7fe      	b.n	4049b4 <xQueueGenericCreate+0x18>
  4049b6:	4606      	mov	r6, r0
  4049b8:	4617      	mov	r7, r2
  4049ba:	460d      	mov	r5, r1
	if( uxItemSize == ( UBaseType_t ) 0 )
  4049bc:	b189      	cbz	r1, 4049e2 <xQueueGenericCreate+0x46>
		xQueueSizeInBytes = ( size_t ) ( uxQueueLength * uxItemSize ) + ( size_t ) 1; /*lint !e961 MISRA exception as the casts are only redundant for some ports. */
  4049be:	fb01 f000 	mul.w	r0, r1, r0
	pxNewQueue = ( Queue_t * ) pvPortMalloc( sizeof( Queue_t ) + xQueueSizeInBytes );
  4049c2:	3059      	adds	r0, #89	; 0x59
  4049c4:	4b12      	ldr	r3, [pc, #72]	; (404a10 <xQueueGenericCreate+0x74>)
  4049c6:	4798      	blx	r3
	if( pxNewQueue != NULL )
  4049c8:	4604      	mov	r4, r0
  4049ca:	b9e8      	cbnz	r0, 404a08 <xQueueGenericCreate+0x6c>
  4049cc:	f04f 0380 	mov.w	r3, #128	; 0x80
  4049d0:	b672      	cpsid	i
  4049d2:	f383 8811 	msr	BASEPRI, r3
  4049d6:	f3bf 8f6f 	isb	sy
  4049da:	f3bf 8f4f 	dsb	sy
  4049de:	b662      	cpsie	i
  4049e0:	e7fe      	b.n	4049e0 <xQueueGenericCreate+0x44>
	pxNewQueue = ( Queue_t * ) pvPortMalloc( sizeof( Queue_t ) + xQueueSizeInBytes );
  4049e2:	2058      	movs	r0, #88	; 0x58
  4049e4:	4b0a      	ldr	r3, [pc, #40]	; (404a10 <xQueueGenericCreate+0x74>)
  4049e6:	4798      	blx	r3
	if( pxNewQueue != NULL )
  4049e8:	4604      	mov	r4, r0
  4049ea:	2800      	cmp	r0, #0
  4049ec:	d0ee      	beq.n	4049cc <xQueueGenericCreate+0x30>
			pxNewQueue->pcHead = ( int8_t * ) pxNewQueue;
  4049ee:	6020      	str	r0, [r4, #0]
		pxNewQueue->uxLength = uxQueueLength;
  4049f0:	63e6      	str	r6, [r4, #60]	; 0x3c
		pxNewQueue->uxItemSize = uxItemSize;
  4049f2:	6425      	str	r5, [r4, #64]	; 0x40
		( void ) xQueueGenericReset( pxNewQueue, pdTRUE );
  4049f4:	2101      	movs	r1, #1
  4049f6:	4620      	mov	r0, r4
  4049f8:	4b06      	ldr	r3, [pc, #24]	; (404a14 <xQueueGenericCreate+0x78>)
  4049fa:	4798      	blx	r3
			pxNewQueue->ucQueueType = ucQueueType;
  4049fc:	f884 7050 	strb.w	r7, [r4, #80]	; 0x50
			pxNewQueue->pxQueueSetContainer = NULL;
  404a00:	2300      	movs	r3, #0
  404a02:	6563      	str	r3, [r4, #84]	; 0x54
}
  404a04:	4620      	mov	r0, r4
  404a06:	bdf8      	pop	{r3, r4, r5, r6, r7, pc}
			pxNewQueue->pcHead = ( ( int8_t * ) pxNewQueue ) + sizeof( Queue_t );
  404a08:	f100 0358 	add.w	r3, r0, #88	; 0x58
  404a0c:	6003      	str	r3, [r0, #0]
  404a0e:	e7ef      	b.n	4049f0 <xQueueGenericCreate+0x54>
  404a10:	004046a1 	.word	0x004046a1
  404a14:	00404909 	.word	0x00404909

00404a18 <xQueueGenericSend>:
{
  404a18:	e92d 4ff0 	stmdb	sp!, {r4, r5, r6, r7, r8, r9, sl, fp, lr}
  404a1c:	b085      	sub	sp, #20
  404a1e:	9201      	str	r2, [sp, #4]
	configASSERT( pxQueue );
  404a20:	b1b8      	cbz	r0, 404a52 <xQueueGenericSend+0x3a>
  404a22:	4604      	mov	r4, r0
	configASSERT( !( ( pvItemToQueue == NULL ) && ( pxQueue->uxItemSize != ( UBaseType_t ) 0U ) ) );
  404a24:	b301      	cbz	r1, 404a68 <xQueueGenericSend+0x50>
	configASSERT( !( ( xCopyPosition == queueOVERWRITE ) && ( pxQueue->uxLength != 1 ) ) );
  404a26:	2b02      	cmp	r3, #2
  404a28:	d02c      	beq.n	404a84 <xQueueGenericSend+0x6c>
  404a2a:	461d      	mov	r5, r3
  404a2c:	4688      	mov	r8, r1
		configASSERT( !( ( xTaskGetSchedulerState() == taskSCHEDULER_SUSPENDED ) && ( xTicksToWait != 0 ) ) );
  404a2e:	4b66      	ldr	r3, [pc, #408]	; (404bc8 <xQueueGenericSend+0x1b0>)
  404a30:	4798      	blx	r3
  404a32:	2800      	cmp	r0, #0
  404a34:	d134      	bne.n	404aa0 <xQueueGenericSend+0x88>
  404a36:	9b01      	ldr	r3, [sp, #4]
  404a38:	2b00      	cmp	r3, #0
  404a3a:	d038      	beq.n	404aae <xQueueGenericSend+0x96>
  404a3c:	f04f 0380 	mov.w	r3, #128	; 0x80
  404a40:	b672      	cpsid	i
  404a42:	f383 8811 	msr	BASEPRI, r3
  404a46:	f3bf 8f6f 	isb	sy
  404a4a:	f3bf 8f4f 	dsb	sy
  404a4e:	b662      	cpsie	i
  404a50:	e7fe      	b.n	404a50 <xQueueGenericSend+0x38>
  404a52:	f04f 0380 	mov.w	r3, #128	; 0x80
  404a56:	b672      	cpsid	i
  404a58:	f383 8811 	msr	BASEPRI, r3
  404a5c:	f3bf 8f6f 	isb	sy
  404a60:	f3bf 8f4f 	dsb	sy
  404a64:	b662      	cpsie	i
  404a66:	e7fe      	b.n	404a66 <xQueueGenericSend+0x4e>
	configASSERT( !( ( pvItemToQueue == NULL ) && ( pxQueue->uxItemSize != ( UBaseType_t ) 0U ) ) );
  404a68:	6c02      	ldr	r2, [r0, #64]	; 0x40
  404a6a:	2a00      	cmp	r2, #0
  404a6c:	d0db      	beq.n	404a26 <xQueueGenericSend+0xe>
  404a6e:	f04f 0380 	mov.w	r3, #128	; 0x80
  404a72:	b672      	cpsid	i
  404a74:	f383 8811 	msr	BASEPRI, r3
  404a78:	f3bf 8f6f 	isb	sy
  404a7c:	f3bf 8f4f 	dsb	sy
  404a80:	b662      	cpsie	i
  404a82:	e7fe      	b.n	404a82 <xQueueGenericSend+0x6a>
	configASSERT( !( ( xCopyPosition == queueOVERWRITE ) && ( pxQueue->uxLength != 1 ) ) );
  404a84:	6be2      	ldr	r2, [r4, #60]	; 0x3c
  404a86:	2a01      	cmp	r2, #1
  404a88:	d0cf      	beq.n	404a2a <xQueueGenericSend+0x12>
  404a8a:	f04f 0380 	mov.w	r3, #128	; 0x80
  404a8e:	b672      	cpsid	i
  404a90:	f383 8811 	msr	BASEPRI, r3
  404a94:	f3bf 8f6f 	isb	sy
  404a98:	f3bf 8f4f 	dsb	sy
  404a9c:	b662      	cpsie	i
  404a9e:	e7fe      	b.n	404a9e <xQueueGenericSend+0x86>
  404aa0:	2700      	movs	r7, #0
		taskENTER_CRITICAL();
  404aa2:	4e4a      	ldr	r6, [pc, #296]	; (404bcc <xQueueGenericSend+0x1b4>)
					vTaskSetTimeOutState( &xTimeOut );
  404aa4:	f8df a150 	ldr.w	sl, [pc, #336]	; 404bf8 <xQueueGenericSend+0x1e0>
					portYIELD_WITHIN_API();
  404aa8:	f8df 912c 	ldr.w	r9, [pc, #300]	; 404bd8 <xQueueGenericSend+0x1c0>
  404aac:	e042      	b.n	404b34 <xQueueGenericSend+0x11c>
  404aae:	2700      	movs	r7, #0
  404ab0:	e7f7      	b.n	404aa2 <xQueueGenericSend+0x8a>
				xYieldRequired = prvCopyDataToQueue( pxQueue, pvItemToQueue, xCopyPosition );
  404ab2:	462a      	mov	r2, r5
  404ab4:	4641      	mov	r1, r8
  404ab6:	4620      	mov	r0, r4
  404ab8:	4b45      	ldr	r3, [pc, #276]	; (404bd0 <xQueueGenericSend+0x1b8>)
  404aba:	4798      	blx	r3
					if( pxQueue->pxQueueSetContainer != NULL )
  404abc:	6d63      	ldr	r3, [r4, #84]	; 0x54
  404abe:	b19b      	cbz	r3, 404ae8 <xQueueGenericSend+0xd0>
						if( prvNotifyQueueSetContainer( pxQueue, xCopyPosition ) == pdTRUE )
  404ac0:	4629      	mov	r1, r5
  404ac2:	4620      	mov	r0, r4
  404ac4:	4b43      	ldr	r3, [pc, #268]	; (404bd4 <xQueueGenericSend+0x1bc>)
  404ac6:	4798      	blx	r3
  404ac8:	2801      	cmp	r0, #1
  404aca:	d107      	bne.n	404adc <xQueueGenericSend+0xc4>
							queueYIELD_IF_USING_PREEMPTION();
  404acc:	f04f 5280 	mov.w	r2, #268435456	; 0x10000000
  404ad0:	4b41      	ldr	r3, [pc, #260]	; (404bd8 <xQueueGenericSend+0x1c0>)
  404ad2:	601a      	str	r2, [r3, #0]
  404ad4:	f3bf 8f4f 	dsb	sy
  404ad8:	f3bf 8f6f 	isb	sy
				taskEXIT_CRITICAL();
  404adc:	4b3f      	ldr	r3, [pc, #252]	; (404bdc <xQueueGenericSend+0x1c4>)
  404ade:	4798      	blx	r3
				return pdPASS;
  404ae0:	2001      	movs	r0, #1
}
  404ae2:	b005      	add	sp, #20
  404ae4:	e8bd 8ff0 	ldmia.w	sp!, {r4, r5, r6, r7, r8, r9, sl, fp, pc}
						if( listLIST_IS_EMPTY( &( pxQueue->xTasksWaitingToReceive ) ) == pdFALSE )
  404ae8:	6a63      	ldr	r3, [r4, #36]	; 0x24
  404aea:	b173      	cbz	r3, 404b0a <xQueueGenericSend+0xf2>
							if( xTaskRemoveFromEventList( &( pxQueue->xTasksWaitingToReceive ) ) == pdTRUE )
  404aec:	f104 0024 	add.w	r0, r4, #36	; 0x24
  404af0:	4b3b      	ldr	r3, [pc, #236]	; (404be0 <xQueueGenericSend+0x1c8>)
  404af2:	4798      	blx	r3
  404af4:	2801      	cmp	r0, #1
  404af6:	d1f1      	bne.n	404adc <xQueueGenericSend+0xc4>
								queueYIELD_IF_USING_PREEMPTION();
  404af8:	f04f 5280 	mov.w	r2, #268435456	; 0x10000000
  404afc:	4b36      	ldr	r3, [pc, #216]	; (404bd8 <xQueueGenericSend+0x1c0>)
  404afe:	601a      	str	r2, [r3, #0]
  404b00:	f3bf 8f4f 	dsb	sy
  404b04:	f3bf 8f6f 	isb	sy
  404b08:	e7e8      	b.n	404adc <xQueueGenericSend+0xc4>
						else if( xYieldRequired != pdFALSE )
  404b0a:	2800      	cmp	r0, #0
  404b0c:	d0e6      	beq.n	404adc <xQueueGenericSend+0xc4>
							queueYIELD_IF_USING_PREEMPTION();
  404b0e:	f04f 5280 	mov.w	r2, #268435456	; 0x10000000
  404b12:	4b31      	ldr	r3, [pc, #196]	; (404bd8 <xQueueGenericSend+0x1c0>)
  404b14:	601a      	str	r2, [r3, #0]
  404b16:	f3bf 8f4f 	dsb	sy
  404b1a:	f3bf 8f6f 	isb	sy
  404b1e:	e7dd      	b.n	404adc <xQueueGenericSend+0xc4>
					taskEXIT_CRITICAL();
  404b20:	4b2e      	ldr	r3, [pc, #184]	; (404bdc <xQueueGenericSend+0x1c4>)
  404b22:	4798      	blx	r3
					return errQUEUE_FULL;
  404b24:	2000      	movs	r0, #0
  404b26:	e7dc      	b.n	404ae2 <xQueueGenericSend+0xca>
				prvUnlockQueue( pxQueue );
  404b28:	4620      	mov	r0, r4
  404b2a:	4b2e      	ldr	r3, [pc, #184]	; (404be4 <xQueueGenericSend+0x1cc>)
  404b2c:	4798      	blx	r3
				( void ) xTaskResumeAll();
  404b2e:	4b2e      	ldr	r3, [pc, #184]	; (404be8 <xQueueGenericSend+0x1d0>)
  404b30:	4798      	blx	r3
  404b32:	2701      	movs	r7, #1
		taskENTER_CRITICAL();
  404b34:	47b0      	blx	r6
			if( ( pxQueue->uxMessagesWaiting < pxQueue->uxLength ) || ( xCopyPosition == queueOVERWRITE ) )
  404b36:	6ba2      	ldr	r2, [r4, #56]	; 0x38
  404b38:	6be3      	ldr	r3, [r4, #60]	; 0x3c
  404b3a:	429a      	cmp	r2, r3
  404b3c:	d3b9      	bcc.n	404ab2 <xQueueGenericSend+0x9a>
  404b3e:	2d02      	cmp	r5, #2
  404b40:	d0b7      	beq.n	404ab2 <xQueueGenericSend+0x9a>
				if( xTicksToWait == ( TickType_t ) 0 )
  404b42:	9b01      	ldr	r3, [sp, #4]
  404b44:	2b00      	cmp	r3, #0
  404b46:	d0eb      	beq.n	404b20 <xQueueGenericSend+0x108>
				else if( xEntryTimeSet == pdFALSE )
  404b48:	b90f      	cbnz	r7, 404b4e <xQueueGenericSend+0x136>
					vTaskSetTimeOutState( &xTimeOut );
  404b4a:	a802      	add	r0, sp, #8
  404b4c:	47d0      	blx	sl
		taskEXIT_CRITICAL();
  404b4e:	4b23      	ldr	r3, [pc, #140]	; (404bdc <xQueueGenericSend+0x1c4>)
  404b50:	4798      	blx	r3
		vTaskSuspendAll();
  404b52:	4b26      	ldr	r3, [pc, #152]	; (404bec <xQueueGenericSend+0x1d4>)
  404b54:	4798      	blx	r3
		prvLockQueue( pxQueue );
  404b56:	47b0      	blx	r6
  404b58:	6c63      	ldr	r3, [r4, #68]	; 0x44
  404b5a:	f1b3 3fff 	cmp.w	r3, #4294967295
  404b5e:	d101      	bne.n	404b64 <xQueueGenericSend+0x14c>
  404b60:	2300      	movs	r3, #0
  404b62:	6463      	str	r3, [r4, #68]	; 0x44
  404b64:	6ca3      	ldr	r3, [r4, #72]	; 0x48
  404b66:	f1b3 3fff 	cmp.w	r3, #4294967295
  404b6a:	d101      	bne.n	404b70 <xQueueGenericSend+0x158>
  404b6c:	2300      	movs	r3, #0
  404b6e:	64a3      	str	r3, [r4, #72]	; 0x48
  404b70:	4b1a      	ldr	r3, [pc, #104]	; (404bdc <xQueueGenericSend+0x1c4>)
  404b72:	4798      	blx	r3
		if( xTaskCheckForTimeOut( &xTimeOut, &xTicksToWait ) == pdFALSE )
  404b74:	a901      	add	r1, sp, #4
  404b76:	a802      	add	r0, sp, #8
  404b78:	4b1d      	ldr	r3, [pc, #116]	; (404bf0 <xQueueGenericSend+0x1d8>)
  404b7a:	4798      	blx	r3
  404b7c:	b9e0      	cbnz	r0, 404bb8 <xQueueGenericSend+0x1a0>
	taskENTER_CRITICAL();
  404b7e:	47b0      	blx	r6
		if( pxQueue->uxMessagesWaiting == pxQueue->uxLength )
  404b80:	f8d4 b038 	ldr.w	fp, [r4, #56]	; 0x38
  404b84:	6be7      	ldr	r7, [r4, #60]	; 0x3c
	taskEXIT_CRITICAL();
  404b86:	4b15      	ldr	r3, [pc, #84]	; (404bdc <xQueueGenericSend+0x1c4>)
  404b88:	4798      	blx	r3
			if( prvIsQueueFull( pxQueue ) != pdFALSE )
  404b8a:	45bb      	cmp	fp, r7
  404b8c:	d1cc      	bne.n	404b28 <xQueueGenericSend+0x110>
				vTaskPlaceOnEventList( &( pxQueue->xTasksWaitingToSend ), xTicksToWait );
  404b8e:	9901      	ldr	r1, [sp, #4]
  404b90:	f104 0010 	add.w	r0, r4, #16
  404b94:	4b17      	ldr	r3, [pc, #92]	; (404bf4 <xQueueGenericSend+0x1dc>)
  404b96:	4798      	blx	r3
				prvUnlockQueue( pxQueue );
  404b98:	4620      	mov	r0, r4
  404b9a:	4b12      	ldr	r3, [pc, #72]	; (404be4 <xQueueGenericSend+0x1cc>)
  404b9c:	4798      	blx	r3
				if( xTaskResumeAll() == pdFALSE )
  404b9e:	4b12      	ldr	r3, [pc, #72]	; (404be8 <xQueueGenericSend+0x1d0>)
  404ba0:	4798      	blx	r3
  404ba2:	2800      	cmp	r0, #0
  404ba4:	d1c5      	bne.n	404b32 <xQueueGenericSend+0x11a>
					portYIELD_WITHIN_API();
  404ba6:	f04f 5380 	mov.w	r3, #268435456	; 0x10000000
  404baa:	f8c9 3000 	str.w	r3, [r9]
  404bae:	f3bf 8f4f 	dsb	sy
  404bb2:	f3bf 8f6f 	isb	sy
  404bb6:	e7bc      	b.n	404b32 <xQueueGenericSend+0x11a>
			prvUnlockQueue( pxQueue );
  404bb8:	4620      	mov	r0, r4
  404bba:	4b0a      	ldr	r3, [pc, #40]	; (404be4 <xQueueGenericSend+0x1cc>)
  404bbc:	4798      	blx	r3
			( void ) xTaskResumeAll();
  404bbe:	4b0a      	ldr	r3, [pc, #40]	; (404be8 <xQueueGenericSend+0x1d0>)
  404bc0:	4798      	blx	r3
			return errQUEUE_FULL;
  404bc2:	2000      	movs	r0, #0
  404bc4:	e78d      	b.n	404ae2 <xQueueGenericSend+0xca>
  404bc6:	bf00      	nop
  404bc8:	00405989 	.word	0x00405989
  404bcc:	00404445 	.word	0x00404445
  404bd0:	0040472d 	.word	0x0040472d
  404bd4:	004047b5 	.word	0x004047b5
  404bd8:	e000ed04 	.word	0xe000ed04
  404bdc:	00404491 	.word	0x00404491
  404be0:	00405821 	.word	0x00405821
  404be4:	00404865 	.word	0x00404865
  404be8:	00405405 	.word	0x00405405
  404bec:	0040529d 	.word	0x0040529d
  404bf0:	004058e9 	.word	0x004058e9
  404bf4:	0040571d 	.word	0x0040571d
  404bf8:	004058b9 	.word	0x004058b9

00404bfc <xQueueGenericSendFromISR>:
	configASSERT( pxQueue );
  404bfc:	2800      	cmp	r0, #0
  404bfe:	d036      	beq.n	404c6e <xQueueGenericSendFromISR+0x72>
{
  404c00:	e92d 41f0 	stmdb	sp!, {r4, r5, r6, r7, r8, lr}
  404c04:	4604      	mov	r4, r0
	configASSERT( !( ( pvItemToQueue == NULL ) && ( pxQueue->uxItemSize != ( UBaseType_t ) 0U ) ) );
  404c06:	2900      	cmp	r1, #0
  404c08:	d03c      	beq.n	404c84 <xQueueGenericSendFromISR+0x88>
	configASSERT( !( ( xCopyPosition == queueOVERWRITE ) && ( pxQueue->uxLength != 1 ) ) );
  404c0a:	2b02      	cmp	r3, #2
  404c0c:	d048      	beq.n	404ca0 <xQueueGenericSendFromISR+0xa4>
  404c0e:	461e      	mov	r6, r3
  404c10:	4615      	mov	r5, r2
  404c12:	4688      	mov	r8, r1
	portASSERT_IF_INTERRUPT_PRIORITY_INVALID();
  404c14:	4b35      	ldr	r3, [pc, #212]	; (404cec <xQueueGenericSendFromISR+0xf0>)
  404c16:	4798      	blx	r3
	__asm volatile
  404c18:	f3ef 8711 	mrs	r7, BASEPRI
  404c1c:	f04f 0380 	mov.w	r3, #128	; 0x80
  404c20:	b672      	cpsid	i
  404c22:	f383 8811 	msr	BASEPRI, r3
  404c26:	f3bf 8f6f 	isb	sy
  404c2a:	f3bf 8f4f 	dsb	sy
  404c2e:	b662      	cpsie	i
		if( ( pxQueue->uxMessagesWaiting < pxQueue->uxLength ) || ( xCopyPosition == queueOVERWRITE ) )
  404c30:	6ba2      	ldr	r2, [r4, #56]	; 0x38
  404c32:	6be3      	ldr	r3, [r4, #60]	; 0x3c
  404c34:	429a      	cmp	r2, r3
  404c36:	d301      	bcc.n	404c3c <xQueueGenericSendFromISR+0x40>
  404c38:	2e02      	cmp	r6, #2
  404c3a:	d14f      	bne.n	404cdc <xQueueGenericSendFromISR+0xe0>
			( void ) prvCopyDataToQueue( pxQueue, pvItemToQueue, xCopyPosition );
  404c3c:	4632      	mov	r2, r6
  404c3e:	4641      	mov	r1, r8
  404c40:	4620      	mov	r0, r4
  404c42:	4b2b      	ldr	r3, [pc, #172]	; (404cf0 <xQueueGenericSendFromISR+0xf4>)
  404c44:	4798      	blx	r3
			if( pxQueue->xTxLock == queueUNLOCKED )
  404c46:	6ca3      	ldr	r3, [r4, #72]	; 0x48
  404c48:	f1b3 3fff 	cmp.w	r3, #4294967295
  404c4c:	d141      	bne.n	404cd2 <xQueueGenericSendFromISR+0xd6>
					if( pxQueue->pxQueueSetContainer != NULL )
  404c4e:	6d63      	ldr	r3, [r4, #84]	; 0x54
  404c50:	2b00      	cmp	r3, #0
  404c52:	d033      	beq.n	404cbc <xQueueGenericSendFromISR+0xc0>
						if( prvNotifyQueueSetContainer( pxQueue, xCopyPosition ) == pdTRUE )
  404c54:	4631      	mov	r1, r6
  404c56:	4620      	mov	r0, r4
  404c58:	4b26      	ldr	r3, [pc, #152]	; (404cf4 <xQueueGenericSendFromISR+0xf8>)
  404c5a:	4798      	blx	r3
							if( pxHigherPriorityTaskWoken != NULL )
  404c5c:	2d00      	cmp	r5, #0
  404c5e:	d03f      	beq.n	404ce0 <xQueueGenericSendFromISR+0xe4>
  404c60:	2801      	cmp	r0, #1
  404c62:	d13d      	bne.n	404ce0 <xQueueGenericSendFromISR+0xe4>
								*pxHigherPriorityTaskWoken = pdTRUE;
  404c64:	6028      	str	r0, [r5, #0]
	__asm volatile
  404c66:	f387 8811 	msr	BASEPRI, r7
}
  404c6a:	e8bd 81f0 	ldmia.w	sp!, {r4, r5, r6, r7, r8, pc}
	__asm volatile
  404c6e:	f04f 0380 	mov.w	r3, #128	; 0x80
  404c72:	b672      	cpsid	i
  404c74:	f383 8811 	msr	BASEPRI, r3
  404c78:	f3bf 8f6f 	isb	sy
  404c7c:	f3bf 8f4f 	dsb	sy
  404c80:	b662      	cpsie	i
  404c82:	e7fe      	b.n	404c82 <xQueueGenericSendFromISR+0x86>
	configASSERT( !( ( pvItemToQueue == NULL ) && ( pxQueue->uxItemSize != ( UBaseType_t ) 0U ) ) );
  404c84:	6c00      	ldr	r0, [r0, #64]	; 0x40
  404c86:	2800      	cmp	r0, #0
  404c88:	d0bf      	beq.n	404c0a <xQueueGenericSendFromISR+0xe>
  404c8a:	f04f 0380 	mov.w	r3, #128	; 0x80
  404c8e:	b672      	cpsid	i
  404c90:	f383 8811 	msr	BASEPRI, r3
  404c94:	f3bf 8f6f 	isb	sy
  404c98:	f3bf 8f4f 	dsb	sy
  404c9c:	b662      	cpsie	i
  404c9e:	e7fe      	b.n	404c9e <xQueueGenericSendFromISR+0xa2>
	configASSERT( !( ( xCopyPosition == queueOVERWRITE ) && ( pxQueue->uxLength != 1 ) ) );
  404ca0:	6be0      	ldr	r0, [r4, #60]	; 0x3c
  404ca2:	2801      	cmp	r0, #1
  404ca4:	d0b3      	beq.n	404c0e <xQueueGenericSendFromISR+0x12>
  404ca6:	f04f 0380 	mov.w	r3, #128	; 0x80
  404caa:	b672      	cpsid	i
  404cac:	f383 8811 	msr	BASEPRI, r3
  404cb0:	f3bf 8f6f 	isb	sy
  404cb4:	f3bf 8f4f 	dsb	sy
  404cb8:	b662      	cpsie	i
  404cba:	e7fe      	b.n	404cba <xQueueGenericSendFromISR+0xbe>
						if( listLIST_IS_EMPTY( &( pxQueue->xTasksWaitingToReceive ) ) == pdFALSE )
  404cbc:	6a63      	ldr	r3, [r4, #36]	; 0x24
  404cbe:	b18b      	cbz	r3, 404ce4 <xQueueGenericSendFromISR+0xe8>
							if( xTaskRemoveFromEventList( &( pxQueue->xTasksWaitingToReceive ) ) != pdFALSE )
  404cc0:	f104 0024 	add.w	r0, r4, #36	; 0x24
  404cc4:	4b0c      	ldr	r3, [pc, #48]	; (404cf8 <xQueueGenericSendFromISR+0xfc>)
  404cc6:	4798      	blx	r3
								if( pxHigherPriorityTaskWoken != NULL )
  404cc8:	b175      	cbz	r5, 404ce8 <xQueueGenericSendFromISR+0xec>
  404cca:	b168      	cbz	r0, 404ce8 <xQueueGenericSendFromISR+0xec>
									*pxHigherPriorityTaskWoken = pdTRUE;
  404ccc:	2001      	movs	r0, #1
  404cce:	6028      	str	r0, [r5, #0]
  404cd0:	e7c9      	b.n	404c66 <xQueueGenericSendFromISR+0x6a>
				++( pxQueue->xTxLock );
  404cd2:	6ca3      	ldr	r3, [r4, #72]	; 0x48
  404cd4:	3301      	adds	r3, #1
  404cd6:	64a3      	str	r3, [r4, #72]	; 0x48
			xReturn = pdPASS;
  404cd8:	2001      	movs	r0, #1
  404cda:	e7c4      	b.n	404c66 <xQueueGenericSendFromISR+0x6a>
			xReturn = errQUEUE_FULL;
  404cdc:	2000      	movs	r0, #0
  404cde:	e7c2      	b.n	404c66 <xQueueGenericSendFromISR+0x6a>
			xReturn = pdPASS;
  404ce0:	2001      	movs	r0, #1
  404ce2:	e7c0      	b.n	404c66 <xQueueGenericSendFromISR+0x6a>
  404ce4:	2001      	movs	r0, #1
  404ce6:	e7be      	b.n	404c66 <xQueueGenericSendFromISR+0x6a>
  404ce8:	2001      	movs	r0, #1
  404cea:	e7bc      	b.n	404c66 <xQueueGenericSendFromISR+0x6a>
  404cec:	0040463d 	.word	0x0040463d
  404cf0:	0040472d 	.word	0x0040472d
  404cf4:	004047b5 	.word	0x004047b5
  404cf8:	00405821 	.word	0x00405821

00404cfc <xQueueGenericReceive>:
{
  404cfc:	e92d 47f0 	stmdb	sp!, {r4, r5, r6, r7, r8, r9, sl, lr}
  404d00:	b084      	sub	sp, #16
  404d02:	9201      	str	r2, [sp, #4]
	configASSERT( pxQueue );
  404d04:	b198      	cbz	r0, 404d2e <xQueueGenericReceive+0x32>
  404d06:	4604      	mov	r4, r0
	configASSERT( !( ( pvBuffer == NULL ) && ( pxQueue->uxItemSize != ( UBaseType_t ) 0U ) ) );
  404d08:	b1e1      	cbz	r1, 404d44 <xQueueGenericReceive+0x48>
  404d0a:	4698      	mov	r8, r3
  404d0c:	460f      	mov	r7, r1
		configASSERT( !( ( xTaskGetSchedulerState() == taskSCHEDULER_SUSPENDED ) && ( xTicksToWait != 0 ) ) );
  404d0e:	4b61      	ldr	r3, [pc, #388]	; (404e94 <xQueueGenericReceive+0x198>)
  404d10:	4798      	blx	r3
  404d12:	bb28      	cbnz	r0, 404d60 <xQueueGenericReceive+0x64>
  404d14:	9b01      	ldr	r3, [sp, #4]
  404d16:	b353      	cbz	r3, 404d6e <xQueueGenericReceive+0x72>
  404d18:	f04f 0380 	mov.w	r3, #128	; 0x80
  404d1c:	b672      	cpsid	i
  404d1e:	f383 8811 	msr	BASEPRI, r3
  404d22:	f3bf 8f6f 	isb	sy
  404d26:	f3bf 8f4f 	dsb	sy
  404d2a:	b662      	cpsie	i
  404d2c:	e7fe      	b.n	404d2c <xQueueGenericReceive+0x30>
  404d2e:	f04f 0380 	mov.w	r3, #128	; 0x80
  404d32:	b672      	cpsid	i
  404d34:	f383 8811 	msr	BASEPRI, r3
  404d38:	f3bf 8f6f 	isb	sy
  404d3c:	f3bf 8f4f 	dsb	sy
  404d40:	b662      	cpsie	i
  404d42:	e7fe      	b.n	404d42 <xQueueGenericReceive+0x46>
	configASSERT( !( ( pvBuffer == NULL ) && ( pxQueue->uxItemSize != ( UBaseType_t ) 0U ) ) );
  404d44:	6c02      	ldr	r2, [r0, #64]	; 0x40
  404d46:	2a00      	cmp	r2, #0
  404d48:	d0df      	beq.n	404d0a <xQueueGenericReceive+0xe>
  404d4a:	f04f 0380 	mov.w	r3, #128	; 0x80
  404d4e:	b672      	cpsid	i
  404d50:	f383 8811 	msr	BASEPRI, r3
  404d54:	f3bf 8f6f 	isb	sy
  404d58:	f3bf 8f4f 	dsb	sy
  404d5c:	b662      	cpsie	i
  404d5e:	e7fe      	b.n	404d5e <xQueueGenericReceive+0x62>
  404d60:	2600      	movs	r6, #0
		taskENTER_CRITICAL();
  404d62:	4d4d      	ldr	r5, [pc, #308]	; (404e98 <xQueueGenericReceive+0x19c>)
					vTaskSetTimeOutState( &xTimeOut );
  404d64:	f8df a160 	ldr.w	sl, [pc, #352]	; 404ec8 <xQueueGenericReceive+0x1cc>
					portYIELD_WITHIN_API();
  404d68:	f8df 913c 	ldr.w	r9, [pc, #316]	; 404ea8 <xQueueGenericReceive+0x1ac>
  404d6c:	e04b      	b.n	404e06 <xQueueGenericReceive+0x10a>
  404d6e:	2600      	movs	r6, #0
  404d70:	e7f7      	b.n	404d62 <xQueueGenericReceive+0x66>
				pcOriginalReadPosition = pxQueue->u.pcReadFrom;
  404d72:	68e5      	ldr	r5, [r4, #12]
				prvCopyDataFromQueue( pxQueue, pvBuffer );
  404d74:	4639      	mov	r1, r7
  404d76:	4620      	mov	r0, r4
  404d78:	4b48      	ldr	r3, [pc, #288]	; (404e9c <xQueueGenericReceive+0x1a0>)
  404d7a:	4798      	blx	r3
				if( xJustPeeking == pdFALSE )
  404d7c:	f1b8 0f00 	cmp.w	r8, #0
  404d80:	d11d      	bne.n	404dbe <xQueueGenericReceive+0xc2>
					--( pxQueue->uxMessagesWaiting );
  404d82:	6ba3      	ldr	r3, [r4, #56]	; 0x38
  404d84:	3b01      	subs	r3, #1
  404d86:	63a3      	str	r3, [r4, #56]	; 0x38
						if( pxQueue->uxQueueType == queueQUEUE_IS_MUTEX )
  404d88:	6823      	ldr	r3, [r4, #0]
  404d8a:	b913      	cbnz	r3, 404d92 <xQueueGenericReceive+0x96>
							pxQueue->pxMutexHolder = ( int8_t * ) pvTaskIncrementMutexHeldCount(); /*lint !e961 Cast is not redundant as TaskHandle_t is a typedef. */
  404d8c:	4b44      	ldr	r3, [pc, #272]	; (404ea0 <xQueueGenericReceive+0x1a4>)
  404d8e:	4798      	blx	r3
  404d90:	6060      	str	r0, [r4, #4]
					if( listLIST_IS_EMPTY( &( pxQueue->xTasksWaitingToSend ) ) == pdFALSE )
  404d92:	6923      	ldr	r3, [r4, #16]
  404d94:	b16b      	cbz	r3, 404db2 <xQueueGenericReceive+0xb6>
						if( xTaskRemoveFromEventList( &( pxQueue->xTasksWaitingToSend ) ) == pdTRUE )
  404d96:	f104 0010 	add.w	r0, r4, #16
  404d9a:	4b42      	ldr	r3, [pc, #264]	; (404ea4 <xQueueGenericReceive+0x1a8>)
  404d9c:	4798      	blx	r3
  404d9e:	2801      	cmp	r0, #1
  404da0:	d107      	bne.n	404db2 <xQueueGenericReceive+0xb6>
							queueYIELD_IF_USING_PREEMPTION();
  404da2:	f04f 5280 	mov.w	r2, #268435456	; 0x10000000
  404da6:	4b40      	ldr	r3, [pc, #256]	; (404ea8 <xQueueGenericReceive+0x1ac>)
  404da8:	601a      	str	r2, [r3, #0]
  404daa:	f3bf 8f4f 	dsb	sy
  404dae:	f3bf 8f6f 	isb	sy
				taskEXIT_CRITICAL();
  404db2:	4b3e      	ldr	r3, [pc, #248]	; (404eac <xQueueGenericReceive+0x1b0>)
  404db4:	4798      	blx	r3
				return pdPASS;
  404db6:	2001      	movs	r0, #1
}
  404db8:	b004      	add	sp, #16
  404dba:	e8bd 87f0 	ldmia.w	sp!, {r4, r5, r6, r7, r8, r9, sl, pc}
					pxQueue->u.pcReadFrom = pcOriginalReadPosition;
  404dbe:	60e5      	str	r5, [r4, #12]
					if( listLIST_IS_EMPTY( &( pxQueue->xTasksWaitingToReceive ) ) == pdFALSE )
  404dc0:	6a63      	ldr	r3, [r4, #36]	; 0x24
  404dc2:	2b00      	cmp	r3, #0
  404dc4:	d0f5      	beq.n	404db2 <xQueueGenericReceive+0xb6>
						if( xTaskRemoveFromEventList( &( pxQueue->xTasksWaitingToReceive ) ) != pdFALSE )
  404dc6:	f104 0024 	add.w	r0, r4, #36	; 0x24
  404dca:	4b36      	ldr	r3, [pc, #216]	; (404ea4 <xQueueGenericReceive+0x1a8>)
  404dcc:	4798      	blx	r3
  404dce:	2800      	cmp	r0, #0
  404dd0:	d0ef      	beq.n	404db2 <xQueueGenericReceive+0xb6>
							queueYIELD_IF_USING_PREEMPTION();
  404dd2:	f04f 5280 	mov.w	r2, #268435456	; 0x10000000
  404dd6:	4b34      	ldr	r3, [pc, #208]	; (404ea8 <xQueueGenericReceive+0x1ac>)
  404dd8:	601a      	str	r2, [r3, #0]
  404dda:	f3bf 8f4f 	dsb	sy
  404dde:	f3bf 8f6f 	isb	sy
  404de2:	e7e6      	b.n	404db2 <xQueueGenericReceive+0xb6>
					taskEXIT_CRITICAL();
  404de4:	4b31      	ldr	r3, [pc, #196]	; (404eac <xQueueGenericReceive+0x1b0>)
  404de6:	4798      	blx	r3
					return errQUEUE_EMPTY;
  404de8:	2000      	movs	r0, #0
  404dea:	e7e5      	b.n	404db8 <xQueueGenericReceive+0xbc>
						taskENTER_CRITICAL();
  404dec:	47a8      	blx	r5
							vTaskPriorityInherit( ( void * ) pxQueue->pxMutexHolder );
  404dee:	6860      	ldr	r0, [r4, #4]
  404df0:	4b2f      	ldr	r3, [pc, #188]	; (404eb0 <xQueueGenericReceive+0x1b4>)
  404df2:	4798      	blx	r3
						taskEXIT_CRITICAL();
  404df4:	4b2d      	ldr	r3, [pc, #180]	; (404eac <xQueueGenericReceive+0x1b0>)
  404df6:	4798      	blx	r3
  404df8:	e030      	b.n	404e5c <xQueueGenericReceive+0x160>
				prvUnlockQueue( pxQueue );
  404dfa:	4620      	mov	r0, r4
  404dfc:	4b2d      	ldr	r3, [pc, #180]	; (404eb4 <xQueueGenericReceive+0x1b8>)
  404dfe:	4798      	blx	r3
				( void ) xTaskResumeAll();
  404e00:	4b2d      	ldr	r3, [pc, #180]	; (404eb8 <xQueueGenericReceive+0x1bc>)
  404e02:	4798      	blx	r3
  404e04:	2601      	movs	r6, #1
		taskENTER_CRITICAL();
  404e06:	47a8      	blx	r5
			if( pxQueue->uxMessagesWaiting > ( UBaseType_t ) 0 )
  404e08:	6ba3      	ldr	r3, [r4, #56]	; 0x38
  404e0a:	2b00      	cmp	r3, #0
  404e0c:	d1b1      	bne.n	404d72 <xQueueGenericReceive+0x76>
				if( xTicksToWait == ( TickType_t ) 0 )
  404e0e:	9b01      	ldr	r3, [sp, #4]
  404e10:	2b00      	cmp	r3, #0
  404e12:	d0e7      	beq.n	404de4 <xQueueGenericReceive+0xe8>
				else if( xEntryTimeSet == pdFALSE )
  404e14:	b90e      	cbnz	r6, 404e1a <xQueueGenericReceive+0x11e>
					vTaskSetTimeOutState( &xTimeOut );
  404e16:	a802      	add	r0, sp, #8
  404e18:	47d0      	blx	sl
		taskEXIT_CRITICAL();
  404e1a:	4b24      	ldr	r3, [pc, #144]	; (404eac <xQueueGenericReceive+0x1b0>)
  404e1c:	4798      	blx	r3
		vTaskSuspendAll();
  404e1e:	4b27      	ldr	r3, [pc, #156]	; (404ebc <xQueueGenericReceive+0x1c0>)
  404e20:	4798      	blx	r3
		prvLockQueue( pxQueue );
  404e22:	47a8      	blx	r5
  404e24:	6c63      	ldr	r3, [r4, #68]	; 0x44
  404e26:	f1b3 3fff 	cmp.w	r3, #4294967295
  404e2a:	d101      	bne.n	404e30 <xQueueGenericReceive+0x134>
  404e2c:	2300      	movs	r3, #0
  404e2e:	6463      	str	r3, [r4, #68]	; 0x44
  404e30:	6ca3      	ldr	r3, [r4, #72]	; 0x48
  404e32:	f1b3 3fff 	cmp.w	r3, #4294967295
  404e36:	d101      	bne.n	404e3c <xQueueGenericReceive+0x140>
  404e38:	2300      	movs	r3, #0
  404e3a:	64a3      	str	r3, [r4, #72]	; 0x48
  404e3c:	4b1b      	ldr	r3, [pc, #108]	; (404eac <xQueueGenericReceive+0x1b0>)
  404e3e:	4798      	blx	r3
		if( xTaskCheckForTimeOut( &xTimeOut, &xTicksToWait ) == pdFALSE )
  404e40:	a901      	add	r1, sp, #4
  404e42:	a802      	add	r0, sp, #8
  404e44:	4b1e      	ldr	r3, [pc, #120]	; (404ec0 <xQueueGenericReceive+0x1c4>)
  404e46:	4798      	blx	r3
  404e48:	b9e8      	cbnz	r0, 404e86 <xQueueGenericReceive+0x18a>
	taskENTER_CRITICAL();
  404e4a:	47a8      	blx	r5
		if( pxQueue->uxMessagesWaiting == ( UBaseType_t )  0 )
  404e4c:	6ba6      	ldr	r6, [r4, #56]	; 0x38
	taskEXIT_CRITICAL();
  404e4e:	4b17      	ldr	r3, [pc, #92]	; (404eac <xQueueGenericReceive+0x1b0>)
  404e50:	4798      	blx	r3
			if( prvIsQueueEmpty( pxQueue ) != pdFALSE )
  404e52:	2e00      	cmp	r6, #0
  404e54:	d1d1      	bne.n	404dfa <xQueueGenericReceive+0xfe>
					if( pxQueue->uxQueueType == queueQUEUE_IS_MUTEX )
  404e56:	6823      	ldr	r3, [r4, #0]
  404e58:	2b00      	cmp	r3, #0
  404e5a:	d0c7      	beq.n	404dec <xQueueGenericReceive+0xf0>
				vTaskPlaceOnEventList( &( pxQueue->xTasksWaitingToReceive ), xTicksToWait );
  404e5c:	9901      	ldr	r1, [sp, #4]
  404e5e:	f104 0024 	add.w	r0, r4, #36	; 0x24
  404e62:	4b18      	ldr	r3, [pc, #96]	; (404ec4 <xQueueGenericReceive+0x1c8>)
  404e64:	4798      	blx	r3
				prvUnlockQueue( pxQueue );
  404e66:	4620      	mov	r0, r4
  404e68:	4b12      	ldr	r3, [pc, #72]	; (404eb4 <xQueueGenericReceive+0x1b8>)
  404e6a:	4798      	blx	r3
				if( xTaskResumeAll() == pdFALSE )
  404e6c:	4b12      	ldr	r3, [pc, #72]	; (404eb8 <xQueueGenericReceive+0x1bc>)
  404e6e:	4798      	blx	r3
  404e70:	2800      	cmp	r0, #0
  404e72:	d1c7      	bne.n	404e04 <xQueueGenericReceive+0x108>
					portYIELD_WITHIN_API();
  404e74:	f04f 5380 	mov.w	r3, #268435456	; 0x10000000
  404e78:	f8c9 3000 	str.w	r3, [r9]
  404e7c:	f3bf 8f4f 	dsb	sy
  404e80:	f3bf 8f6f 	isb	sy
  404e84:	e7be      	b.n	404e04 <xQueueGenericReceive+0x108>
			prvUnlockQueue( pxQueue );
  404e86:	4620      	mov	r0, r4
  404e88:	4b0a      	ldr	r3, [pc, #40]	; (404eb4 <xQueueGenericReceive+0x1b8>)
  404e8a:	4798      	blx	r3
			( void ) xTaskResumeAll();
  404e8c:	4b0a      	ldr	r3, [pc, #40]	; (404eb8 <xQueueGenericReceive+0x1bc>)
  404e8e:	4798      	blx	r3
			return errQUEUE_EMPTY;
  404e90:	2000      	movs	r0, #0
  404e92:	e791      	b.n	404db8 <xQueueGenericReceive+0xbc>
  404e94:	00405989 	.word	0x00405989
  404e98:	00404445 	.word	0x00404445
  404e9c:	0040483d 	.word	0x0040483d
  404ea0:	00405b09 	.word	0x00405b09
  404ea4:	00405821 	.word	0x00405821
  404ea8:	e000ed04 	.word	0xe000ed04
  404eac:	00404491 	.word	0x00404491
  404eb0:	004059a9 	.word	0x004059a9
  404eb4:	00404865 	.word	0x00404865
  404eb8:	00405405 	.word	0x00405405
  404ebc:	0040529d 	.word	0x0040529d
  404ec0:	004058e9 	.word	0x004058e9
  404ec4:	0040571d 	.word	0x0040571d
  404ec8:	004058b9 	.word	0x004058b9

00404ecc <vQueueAddToRegistry>:
	{
  404ecc:	b410      	push	{r4}
			if( xQueueRegistry[ ux ].pcQueueName == NULL )
  404ece:	4b0b      	ldr	r3, [pc, #44]	; (404efc <vQueueAddToRegistry+0x30>)
  404ed0:	681b      	ldr	r3, [r3, #0]
  404ed2:	b153      	cbz	r3, 404eea <vQueueAddToRegistry+0x1e>
  404ed4:	2301      	movs	r3, #1
  404ed6:	4c09      	ldr	r4, [pc, #36]	; (404efc <vQueueAddToRegistry+0x30>)
  404ed8:	f854 2033 	ldr.w	r2, [r4, r3, lsl #3]
  404edc:	b132      	cbz	r2, 404eec <vQueueAddToRegistry+0x20>
		for( ux = ( UBaseType_t ) 0U; ux < ( UBaseType_t ) configQUEUE_REGISTRY_SIZE; ux++ )
  404ede:	3301      	adds	r3, #1
  404ee0:	2b08      	cmp	r3, #8
  404ee2:	d1f9      	bne.n	404ed8 <vQueueAddToRegistry+0xc>
	}
  404ee4:	f85d 4b04 	ldr.w	r4, [sp], #4
  404ee8:	4770      	bx	lr
		for( ux = ( UBaseType_t ) 0U; ux < ( UBaseType_t ) configQUEUE_REGISTRY_SIZE; ux++ )
  404eea:	2300      	movs	r3, #0
				xQueueRegistry[ ux ].pcQueueName = pcQueueName;
  404eec:	4a03      	ldr	r2, [pc, #12]	; (404efc <vQueueAddToRegistry+0x30>)
  404eee:	f842 1033 	str.w	r1, [r2, r3, lsl #3]
				xQueueRegistry[ ux ].xHandle = xQueue;
  404ef2:	eb02 03c3 	add.w	r3, r2, r3, lsl #3
  404ef6:	6058      	str	r0, [r3, #4]
				break;
  404ef8:	e7f4      	b.n	404ee4 <vQueueAddToRegistry+0x18>
  404efa:	bf00      	nop
  404efc:	2040c4bc 	.word	0x2040c4bc

00404f00 <vQueueWaitForMessageRestricted>:
	{
  404f00:	b570      	push	{r4, r5, r6, lr}
  404f02:	4604      	mov	r4, r0
  404f04:	460d      	mov	r5, r1
  404f06:	4616      	mov	r6, r2
		prvLockQueue( pxQueue );
  404f08:	4b0f      	ldr	r3, [pc, #60]	; (404f48 <vQueueWaitForMessageRestricted+0x48>)
  404f0a:	4798      	blx	r3
  404f0c:	6c63      	ldr	r3, [r4, #68]	; 0x44
  404f0e:	f1b3 3fff 	cmp.w	r3, #4294967295
  404f12:	d00b      	beq.n	404f2c <vQueueWaitForMessageRestricted+0x2c>
  404f14:	6ca3      	ldr	r3, [r4, #72]	; 0x48
  404f16:	f1b3 3fff 	cmp.w	r3, #4294967295
  404f1a:	d00a      	beq.n	404f32 <vQueueWaitForMessageRestricted+0x32>
  404f1c:	4b0b      	ldr	r3, [pc, #44]	; (404f4c <vQueueWaitForMessageRestricted+0x4c>)
  404f1e:	4798      	blx	r3
		if( pxQueue->uxMessagesWaiting == ( UBaseType_t ) 0U )
  404f20:	6ba3      	ldr	r3, [r4, #56]	; 0x38
  404f22:	b14b      	cbz	r3, 404f38 <vQueueWaitForMessageRestricted+0x38>
		prvUnlockQueue( pxQueue );
  404f24:	4620      	mov	r0, r4
  404f26:	4b0a      	ldr	r3, [pc, #40]	; (404f50 <vQueueWaitForMessageRestricted+0x50>)
  404f28:	4798      	blx	r3
  404f2a:	bd70      	pop	{r4, r5, r6, pc}
		prvLockQueue( pxQueue );
  404f2c:	2300      	movs	r3, #0
  404f2e:	6463      	str	r3, [r4, #68]	; 0x44
  404f30:	e7f0      	b.n	404f14 <vQueueWaitForMessageRestricted+0x14>
  404f32:	2300      	movs	r3, #0
  404f34:	64a3      	str	r3, [r4, #72]	; 0x48
  404f36:	e7f1      	b.n	404f1c <vQueueWaitForMessageRestricted+0x1c>
			vTaskPlaceOnEventListRestricted( &( pxQueue->xTasksWaitingToReceive ), xTicksToWait, xWaitIndefinitely );
  404f38:	4632      	mov	r2, r6
  404f3a:	4629      	mov	r1, r5
  404f3c:	f104 0024 	add.w	r0, r4, #36	; 0x24
  404f40:	4b04      	ldr	r3, [pc, #16]	; (404f54 <vQueueWaitForMessageRestricted+0x54>)
  404f42:	4798      	blx	r3
  404f44:	e7ee      	b.n	404f24 <vQueueWaitForMessageRestricted+0x24>
  404f46:	bf00      	nop
  404f48:	00404445 	.word	0x00404445
  404f4c:	00404491 	.word	0x00404491
  404f50:	00404865 	.word	0x00404865
  404f54:	004057a1 	.word	0x004057a1

00404f58 <prvResetNextTaskUnblockTime>:

static void prvResetNextTaskUnblockTime( void )
{
TCB_t *pxTCB;

	if( listLIST_IS_EMPTY( pxDelayedTaskList ) != pdFALSE )
  404f58:	4b08      	ldr	r3, [pc, #32]	; (404f7c <prvResetNextTaskUnblockTime+0x24>)
  404f5a:	681b      	ldr	r3, [r3, #0]
  404f5c:	681b      	ldr	r3, [r3, #0]
  404f5e:	b13b      	cbz	r3, 404f70 <prvResetNextTaskUnblockTime+0x18>
	{
		/* The new current delayed list is not empty, get the value of
		the item at the head of the delayed list.  This is the time at
		which the task at the head of the delayed list should be removed
		from the Blocked state. */
		( pxTCB ) = ( TCB_t * ) listGET_OWNER_OF_HEAD_ENTRY( pxDelayedTaskList );
  404f60:	4b06      	ldr	r3, [pc, #24]	; (404f7c <prvResetNextTaskUnblockTime+0x24>)
  404f62:	681b      	ldr	r3, [r3, #0]
  404f64:	68db      	ldr	r3, [r3, #12]
		xNextTaskUnblockTime = listGET_LIST_ITEM_VALUE( &( ( pxTCB )->xGenericListItem ) );
  404f66:	68db      	ldr	r3, [r3, #12]
  404f68:	685a      	ldr	r2, [r3, #4]
  404f6a:	4b05      	ldr	r3, [pc, #20]	; (404f80 <prvResetNextTaskUnblockTime+0x28>)
  404f6c:	601a      	str	r2, [r3, #0]
  404f6e:	4770      	bx	lr
		xNextTaskUnblockTime = portMAX_DELAY;
  404f70:	f04f 32ff 	mov.w	r2, #4294967295
  404f74:	4b02      	ldr	r3, [pc, #8]	; (404f80 <prvResetNextTaskUnblockTime+0x28>)
  404f76:	601a      	str	r2, [r3, #0]
  404f78:	4770      	bx	lr
  404f7a:	bf00      	nop
  404f7c:	2040c2c8 	.word	0x2040c2c8
  404f80:	2040c374 	.word	0x2040c374

00404f84 <prvAddCurrentTaskToDelayedList>:
{
  404f84:	b510      	push	{r4, lr}
	listSET_LIST_ITEM_VALUE( &( pxCurrentTCB->xGenericListItem ), xTimeToWake );
  404f86:	4b0f      	ldr	r3, [pc, #60]	; (404fc4 <prvAddCurrentTaskToDelayedList+0x40>)
  404f88:	681b      	ldr	r3, [r3, #0]
  404f8a:	6058      	str	r0, [r3, #4]
	if( xTimeToWake < xTickCount )
  404f8c:	4b0e      	ldr	r3, [pc, #56]	; (404fc8 <prvAddCurrentTaskToDelayedList+0x44>)
  404f8e:	681b      	ldr	r3, [r3, #0]
  404f90:	4298      	cmp	r0, r3
  404f92:	d30e      	bcc.n	404fb2 <prvAddCurrentTaskToDelayedList+0x2e>
  404f94:	4604      	mov	r4, r0
		vListInsert( pxDelayedTaskList, &( pxCurrentTCB->xGenericListItem ) );
  404f96:	4b0d      	ldr	r3, [pc, #52]	; (404fcc <prvAddCurrentTaskToDelayedList+0x48>)
  404f98:	6818      	ldr	r0, [r3, #0]
  404f9a:	4b0a      	ldr	r3, [pc, #40]	; (404fc4 <prvAddCurrentTaskToDelayedList+0x40>)
  404f9c:	6819      	ldr	r1, [r3, #0]
  404f9e:	3104      	adds	r1, #4
  404fa0:	4b0b      	ldr	r3, [pc, #44]	; (404fd0 <prvAddCurrentTaskToDelayedList+0x4c>)
  404fa2:	4798      	blx	r3
		if( xTimeToWake < xNextTaskUnblockTime )
  404fa4:	4b0b      	ldr	r3, [pc, #44]	; (404fd4 <prvAddCurrentTaskToDelayedList+0x50>)
  404fa6:	681b      	ldr	r3, [r3, #0]
  404fa8:	429c      	cmp	r4, r3
  404faa:	d201      	bcs.n	404fb0 <prvAddCurrentTaskToDelayedList+0x2c>
			xNextTaskUnblockTime = xTimeToWake;
  404fac:	4b09      	ldr	r3, [pc, #36]	; (404fd4 <prvAddCurrentTaskToDelayedList+0x50>)
  404fae:	601c      	str	r4, [r3, #0]
  404fb0:	bd10      	pop	{r4, pc}
		vListInsert( pxOverflowDelayedTaskList, &( pxCurrentTCB->xGenericListItem ) );
  404fb2:	4b09      	ldr	r3, [pc, #36]	; (404fd8 <prvAddCurrentTaskToDelayedList+0x54>)
  404fb4:	6818      	ldr	r0, [r3, #0]
  404fb6:	4b03      	ldr	r3, [pc, #12]	; (404fc4 <prvAddCurrentTaskToDelayedList+0x40>)
  404fb8:	6819      	ldr	r1, [r3, #0]
  404fba:	3104      	adds	r1, #4
  404fbc:	4b04      	ldr	r3, [pc, #16]	; (404fd0 <prvAddCurrentTaskToDelayedList+0x4c>)
  404fbe:	4798      	blx	r3
  404fc0:	bd10      	pop	{r4, pc}
  404fc2:	bf00      	nop
  404fc4:	2040c2c4 	.word	0x2040c2c4
  404fc8:	2040c3bc 	.word	0x2040c3bc
  404fcc:	2040c2c8 	.word	0x2040c2c8
  404fd0:	0040432d 	.word	0x0040432d
  404fd4:	2040c374 	.word	0x2040c374
  404fd8:	2040c2cc 	.word	0x2040c2cc

00404fdc <xTaskGenericCreate>:
{
  404fdc:	e92d 4ff0 	stmdb	sp!, {r4, r5, r6, r7, r8, r9, sl, fp, lr}
  404fe0:	b083      	sub	sp, #12
  404fe2:	9d0c      	ldr	r5, [sp, #48]	; 0x30
  404fe4:	f8dd a034 	ldr.w	sl, [sp, #52]	; 0x34
  404fe8:	9e0e      	ldr	r6, [sp, #56]	; 0x38
	configASSERT( pxTaskCode );
  404fea:	b160      	cbz	r0, 405006 <xTaskGenericCreate+0x2a>
	configASSERT( ( ( uxPriority & ( UBaseType_t ) ( ~portPRIVILEGE_BIT ) ) < ( UBaseType_t ) configMAX_PRIORITIES ) );
  404fec:	2d04      	cmp	r5, #4
  404fee:	d915      	bls.n	40501c <xTaskGenericCreate+0x40>
  404ff0:	f04f 0380 	mov.w	r3, #128	; 0x80
  404ff4:	b672      	cpsid	i
  404ff6:	f383 8811 	msr	BASEPRI, r3
  404ffa:	f3bf 8f6f 	isb	sy
  404ffe:	f3bf 8f4f 	dsb	sy
  405002:	b662      	cpsie	i
  405004:	e7fe      	b.n	405004 <xTaskGenericCreate+0x28>
  405006:	f04f 0380 	mov.w	r3, #128	; 0x80
  40500a:	b672      	cpsid	i
  40500c:	f383 8811 	msr	BASEPRI, r3
  405010:	f3bf 8f6f 	isb	sy
  405014:	f3bf 8f4f 	dsb	sy
  405018:	b662      	cpsie	i
  40501a:	e7fe      	b.n	40501a <xTaskGenericCreate+0x3e>
  40501c:	9001      	str	r0, [sp, #4]
  40501e:	4698      	mov	r8, r3
  405020:	4691      	mov	r9, r2
  405022:	460f      	mov	r7, r1
		pxStack = ( StackType_t * ) pvPortMallocAligned( ( ( ( size_t ) usStackDepth ) * sizeof( StackType_t ) ), puxStackBuffer ); /*lint !e961 MISRA exception as the casts are only redundant for some ports. */
  405024:	b936      	cbnz	r6, 405034 <xTaskGenericCreate+0x58>
  405026:	0090      	lsls	r0, r2, #2
  405028:	4b62      	ldr	r3, [pc, #392]	; (4051b4 <xTaskGenericCreate+0x1d8>)
  40502a:	4798      	blx	r3
		if( pxStack != NULL )
  40502c:	4606      	mov	r6, r0
  40502e:	2800      	cmp	r0, #0
  405030:	f000 809e 	beq.w	405170 <xTaskGenericCreate+0x194>
			pxNewTCB = ( TCB_t * ) pvPortMalloc( sizeof( TCB_t ) );
  405034:	2058      	movs	r0, #88	; 0x58
  405036:	4b5f      	ldr	r3, [pc, #380]	; (4051b4 <xTaskGenericCreate+0x1d8>)
  405038:	4798      	blx	r3
			if( pxNewTCB != NULL )
  40503a:	4604      	mov	r4, r0
  40503c:	2800      	cmp	r0, #0
  40503e:	f000 8094 	beq.w	40516a <xTaskGenericCreate+0x18e>
				pxNewTCB->pxStack = pxStack;
  405042:	6306      	str	r6, [r0, #48]	; 0x30
			( void ) memset( pxNewTCB->pxStack, ( int ) tskSTACK_FILL_BYTE, ( size_t ) usStackDepth * sizeof( StackType_t ) );
  405044:	ea4f 0289 	mov.w	r2, r9, lsl #2
  405048:	21a5      	movs	r1, #165	; 0xa5
  40504a:	4630      	mov	r0, r6
  40504c:	4b5a      	ldr	r3, [pc, #360]	; (4051b8 <xTaskGenericCreate+0x1dc>)
  40504e:	4798      	blx	r3
			pxTopOfStack = pxNewTCB->pxStack + ( usStackDepth - ( uint16_t ) 1 );
  405050:	f06f 4640 	mvn.w	r6, #3221225472	; 0xc0000000
  405054:	444e      	add	r6, r9
  405056:	6b23      	ldr	r3, [r4, #48]	; 0x30
  405058:	eb03 0386 	add.w	r3, r3, r6, lsl #2
			pxTopOfStack = ( StackType_t * ) ( ( ( portPOINTER_SIZE_TYPE ) pxTopOfStack ) & ( ~( ( portPOINTER_SIZE_TYPE ) portBYTE_ALIGNMENT_MASK ) ) ); /*lint !e923 MISRA exception.  Avoiding casts between pointers and integers is not practical.  Size differences accounted for using portPOINTER_SIZE_TYPE type. */
  40505c:	f023 0607 	bic.w	r6, r3, #7
		pxTCB->pcTaskName[ x ] = pcName[ x ];
  405060:	783b      	ldrb	r3, [r7, #0]
  405062:	f884 3034 	strb.w	r3, [r4, #52]	; 0x34
		if( pcName[ x ] == 0x00 )
  405066:	783b      	ldrb	r3, [r7, #0]
  405068:	2b00      	cmp	r3, #0
  40506a:	f040 8084 	bne.w	405176 <xTaskGenericCreate+0x19a>
	pxTCB->pcTaskName[ configMAX_TASK_NAME_LEN - 1 ] = '\0';
  40506e:	2700      	movs	r7, #0
  405070:	f884 703d 	strb.w	r7, [r4, #61]	; 0x3d
	pxTCB->uxPriority = uxPriority;
  405074:	62e5      	str	r5, [r4, #44]	; 0x2c
		pxTCB->uxBasePriority = uxPriority;
  405076:	64a5      	str	r5, [r4, #72]	; 0x48
		pxTCB->uxMutexesHeld = 0;
  405078:	64e7      	str	r7, [r4, #76]	; 0x4c
	vListInitialiseItem( &( pxTCB->xGenericListItem ) );
  40507a:	f104 0904 	add.w	r9, r4, #4
  40507e:	4648      	mov	r0, r9
  405080:	f8df b184 	ldr.w	fp, [pc, #388]	; 405208 <xTaskGenericCreate+0x22c>
  405084:	47d8      	blx	fp
	vListInitialiseItem( &( pxTCB->xEventListItem ) );
  405086:	f104 0018 	add.w	r0, r4, #24
  40508a:	47d8      	blx	fp
	listSET_LIST_ITEM_OWNER( &( pxTCB->xGenericListItem ), pxTCB );
  40508c:	6124      	str	r4, [r4, #16]
	listSET_LIST_ITEM_VALUE( &( pxTCB->xEventListItem ), ( TickType_t ) configMAX_PRIORITIES - ( TickType_t ) uxPriority ); /*lint !e961 MISRA exception as the casts are only redundant for some ports. */
  40508e:	f1c5 0305 	rsb	r3, r5, #5
  405092:	61a3      	str	r3, [r4, #24]
	listSET_LIST_ITEM_OWNER( &( pxTCB->xEventListItem ), pxTCB );
  405094:	6264      	str	r4, [r4, #36]	; 0x24
		pxTCB->ulNotifiedValue = 0;
  405096:	6527      	str	r7, [r4, #80]	; 0x50
		pxTCB->eNotifyState = eNotWaitingNotification;
  405098:	f884 7054 	strb.w	r7, [r4, #84]	; 0x54
			pxNewTCB->pxTopOfStack = pxPortInitialiseStack( pxTopOfStack, pxTaskCode, pvParameters );
  40509c:	4642      	mov	r2, r8
  40509e:	9901      	ldr	r1, [sp, #4]
  4050a0:	4630      	mov	r0, r6
  4050a2:	4b46      	ldr	r3, [pc, #280]	; (4051bc <xTaskGenericCreate+0x1e0>)
  4050a4:	4798      	blx	r3
  4050a6:	6020      	str	r0, [r4, #0]
		if( ( void * ) pxCreatedTask != NULL )
  4050a8:	f1ba 0f00 	cmp.w	sl, #0
  4050ac:	d001      	beq.n	4050b2 <xTaskGenericCreate+0xd6>
			*pxCreatedTask = ( TaskHandle_t ) pxNewTCB;
  4050ae:	f8ca 4000 	str.w	r4, [sl]
		taskENTER_CRITICAL();
  4050b2:	4b43      	ldr	r3, [pc, #268]	; (4051c0 <xTaskGenericCreate+0x1e4>)
  4050b4:	4798      	blx	r3
			uxCurrentNumberOfTasks++;
  4050b6:	4a43      	ldr	r2, [pc, #268]	; (4051c4 <xTaskGenericCreate+0x1e8>)
  4050b8:	6813      	ldr	r3, [r2, #0]
  4050ba:	3301      	adds	r3, #1
  4050bc:	6013      	str	r3, [r2, #0]
			if( pxCurrentTCB == NULL )
  4050be:	4b42      	ldr	r3, [pc, #264]	; (4051c8 <xTaskGenericCreate+0x1ec>)
  4050c0:	681b      	ldr	r3, [r3, #0]
  4050c2:	2b00      	cmp	r3, #0
  4050c4:	d166      	bne.n	405194 <xTaskGenericCreate+0x1b8>
				pxCurrentTCB =  pxNewTCB;
  4050c6:	4b40      	ldr	r3, [pc, #256]	; (4051c8 <xTaskGenericCreate+0x1ec>)
  4050c8:	601c      	str	r4, [r3, #0]
				if( uxCurrentNumberOfTasks == ( UBaseType_t ) 1 )
  4050ca:	6813      	ldr	r3, [r2, #0]
  4050cc:	2b01      	cmp	r3, #1
  4050ce:	d121      	bne.n	405114 <xTaskGenericCreate+0x138>
		vListInitialise( &( pxReadyTasksLists[ uxPriority ] ) );
  4050d0:	4f3e      	ldr	r7, [pc, #248]	; (4051cc <xTaskGenericCreate+0x1f0>)
  4050d2:	4638      	mov	r0, r7
  4050d4:	4e3e      	ldr	r6, [pc, #248]	; (4051d0 <xTaskGenericCreate+0x1f4>)
  4050d6:	47b0      	blx	r6
  4050d8:	f107 0014 	add.w	r0, r7, #20
  4050dc:	47b0      	blx	r6
  4050de:	f107 0028 	add.w	r0, r7, #40	; 0x28
  4050e2:	47b0      	blx	r6
  4050e4:	f107 003c 	add.w	r0, r7, #60	; 0x3c
  4050e8:	47b0      	blx	r6
  4050ea:	f107 0050 	add.w	r0, r7, #80	; 0x50
  4050ee:	47b0      	blx	r6
	vListInitialise( &xDelayedTaskList1 );
  4050f0:	f8df 8118 	ldr.w	r8, [pc, #280]	; 40520c <xTaskGenericCreate+0x230>
  4050f4:	4640      	mov	r0, r8
  4050f6:	47b0      	blx	r6
	vListInitialise( &xDelayedTaskList2 );
  4050f8:	4f36      	ldr	r7, [pc, #216]	; (4051d4 <xTaskGenericCreate+0x1f8>)
  4050fa:	4638      	mov	r0, r7
  4050fc:	47b0      	blx	r6
	vListInitialise( &xPendingReadyList );
  4050fe:	4836      	ldr	r0, [pc, #216]	; (4051d8 <xTaskGenericCreate+0x1fc>)
  405100:	47b0      	blx	r6
		vListInitialise( &xTasksWaitingTermination );
  405102:	4836      	ldr	r0, [pc, #216]	; (4051dc <xTaskGenericCreate+0x200>)
  405104:	47b0      	blx	r6
		vListInitialise( &xSuspendedTaskList );
  405106:	4836      	ldr	r0, [pc, #216]	; (4051e0 <xTaskGenericCreate+0x204>)
  405108:	47b0      	blx	r6
	pxDelayedTaskList = &xDelayedTaskList1;
  40510a:	4b36      	ldr	r3, [pc, #216]	; (4051e4 <xTaskGenericCreate+0x208>)
  40510c:	f8c3 8000 	str.w	r8, [r3]
	pxOverflowDelayedTaskList = &xDelayedTaskList2;
  405110:	4b35      	ldr	r3, [pc, #212]	; (4051e8 <xTaskGenericCreate+0x20c>)
  405112:	601f      	str	r7, [r3, #0]
			uxTaskNumber++;
  405114:	4a35      	ldr	r2, [pc, #212]	; (4051ec <xTaskGenericCreate+0x210>)
  405116:	6813      	ldr	r3, [r2, #0]
  405118:	3301      	adds	r3, #1
  40511a:	6013      	str	r3, [r2, #0]
				pxNewTCB->uxTCBNumber = uxTaskNumber;
  40511c:	6423      	str	r3, [r4, #64]	; 0x40
			prvAddTaskToReadyList( pxNewTCB );
  40511e:	6ae0      	ldr	r0, [r4, #44]	; 0x2c
  405120:	4a33      	ldr	r2, [pc, #204]	; (4051f0 <xTaskGenericCreate+0x214>)
  405122:	6811      	ldr	r1, [r2, #0]
  405124:	2301      	movs	r3, #1
  405126:	4083      	lsls	r3, r0
  405128:	430b      	orrs	r3, r1
  40512a:	6013      	str	r3, [r2, #0]
  40512c:	eb00 0080 	add.w	r0, r0, r0, lsl #2
  405130:	4649      	mov	r1, r9
  405132:	4b26      	ldr	r3, [pc, #152]	; (4051cc <xTaskGenericCreate+0x1f0>)
  405134:	eb03 0080 	add.w	r0, r3, r0, lsl #2
  405138:	4b2e      	ldr	r3, [pc, #184]	; (4051f4 <xTaskGenericCreate+0x218>)
  40513a:	4798      	blx	r3
		taskEXIT_CRITICAL();
  40513c:	4b2e      	ldr	r3, [pc, #184]	; (4051f8 <xTaskGenericCreate+0x21c>)
  40513e:	4798      	blx	r3
		if( xSchedulerRunning != pdFALSE )
  405140:	4b2e      	ldr	r3, [pc, #184]	; (4051fc <xTaskGenericCreate+0x220>)
  405142:	681b      	ldr	r3, [r3, #0]
  405144:	2b00      	cmp	r3, #0
  405146:	d031      	beq.n	4051ac <xTaskGenericCreate+0x1d0>
			if( pxCurrentTCB->uxPriority < uxPriority )
  405148:	4b1f      	ldr	r3, [pc, #124]	; (4051c8 <xTaskGenericCreate+0x1ec>)
  40514a:	681b      	ldr	r3, [r3, #0]
  40514c:	6adb      	ldr	r3, [r3, #44]	; 0x2c
  40514e:	429d      	cmp	r5, r3
  405150:	d92e      	bls.n	4051b0 <xTaskGenericCreate+0x1d4>
				taskYIELD_IF_USING_PREEMPTION();
  405152:	f04f 5280 	mov.w	r2, #268435456	; 0x10000000
  405156:	4b2a      	ldr	r3, [pc, #168]	; (405200 <xTaskGenericCreate+0x224>)
  405158:	601a      	str	r2, [r3, #0]
  40515a:	f3bf 8f4f 	dsb	sy
  40515e:	f3bf 8f6f 	isb	sy
			xReturn = pdPASS;
  405162:	2001      	movs	r0, #1
}
  405164:	b003      	add	sp, #12
  405166:	e8bd 8ff0 	ldmia.w	sp!, {r4, r5, r6, r7, r8, r9, sl, fp, pc}
				vPortFree( pxStack );
  40516a:	4630      	mov	r0, r6
  40516c:	4b25      	ldr	r3, [pc, #148]	; (405204 <xTaskGenericCreate+0x228>)
  40516e:	4798      	blx	r3
		xReturn = errCOULD_NOT_ALLOCATE_REQUIRED_MEMORY;
  405170:	f04f 30ff 	mov.w	r0, #4294967295
  405174:	e7f6      	b.n	405164 <xTaskGenericCreate+0x188>
  405176:	463b      	mov	r3, r7
  405178:	f104 0234 	add.w	r2, r4, #52	; 0x34
  40517c:	3709      	adds	r7, #9
		pxTCB->pcTaskName[ x ] = pcName[ x ];
  40517e:	7859      	ldrb	r1, [r3, #1]
  405180:	f802 1f01 	strb.w	r1, [r2, #1]!
		if( pcName[ x ] == 0x00 )
  405184:	f813 1f01 	ldrb.w	r1, [r3, #1]!
  405188:	2900      	cmp	r1, #0
  40518a:	f43f af70 	beq.w	40506e <xTaskGenericCreate+0x92>
	for( x = ( UBaseType_t ) 0; x < ( UBaseType_t ) configMAX_TASK_NAME_LEN; x++ )
  40518e:	42bb      	cmp	r3, r7
  405190:	d1f5      	bne.n	40517e <xTaskGenericCreate+0x1a2>
  405192:	e76c      	b.n	40506e <xTaskGenericCreate+0x92>
				if( xSchedulerRunning == pdFALSE )
  405194:	4b19      	ldr	r3, [pc, #100]	; (4051fc <xTaskGenericCreate+0x220>)
  405196:	681b      	ldr	r3, [r3, #0]
  405198:	2b00      	cmp	r3, #0
  40519a:	d1bb      	bne.n	405114 <xTaskGenericCreate+0x138>
					if( pxCurrentTCB->uxPriority <= uxPriority )
  40519c:	4b0a      	ldr	r3, [pc, #40]	; (4051c8 <xTaskGenericCreate+0x1ec>)
  40519e:	681b      	ldr	r3, [r3, #0]
  4051a0:	6adb      	ldr	r3, [r3, #44]	; 0x2c
  4051a2:	429d      	cmp	r5, r3
  4051a4:	d3b6      	bcc.n	405114 <xTaskGenericCreate+0x138>
						pxCurrentTCB = pxNewTCB;
  4051a6:	4b08      	ldr	r3, [pc, #32]	; (4051c8 <xTaskGenericCreate+0x1ec>)
  4051a8:	601c      	str	r4, [r3, #0]
  4051aa:	e7b3      	b.n	405114 <xTaskGenericCreate+0x138>
			xReturn = pdPASS;
  4051ac:	2001      	movs	r0, #1
  4051ae:	e7d9      	b.n	405164 <xTaskGenericCreate+0x188>
  4051b0:	2001      	movs	r0, #1
	return xReturn;
  4051b2:	e7d7      	b.n	405164 <xTaskGenericCreate+0x188>
  4051b4:	004046a1 	.word	0x004046a1
  4051b8:	00406a11 	.word	0x00406a11
  4051bc:	004043f9 	.word	0x004043f9
  4051c0:	00404445 	.word	0x00404445
  4051c4:	2040c334 	.word	0x2040c334
  4051c8:	2040c2c4 	.word	0x2040c2c4
  4051cc:	2040c2d0 	.word	0x2040c2d0
  4051d0:	004042f9 	.word	0x004042f9
  4051d4:	2040c360 	.word	0x2040c360
  4051d8:	2040c37c 	.word	0x2040c37c
  4051dc:	2040c3a8 	.word	0x2040c3a8
  4051e0:	2040c394 	.word	0x2040c394
  4051e4:	2040c2c8 	.word	0x2040c2c8
  4051e8:	2040c2cc 	.word	0x2040c2cc
  4051ec:	2040c340 	.word	0x2040c340
  4051f0:	2040c348 	.word	0x2040c348
  4051f4:	00404315 	.word	0x00404315
  4051f8:	00404491 	.word	0x00404491
  4051fc:	2040c390 	.word	0x2040c390
  405200:	e000ed04 	.word	0xe000ed04
  405204:	00404711 	.word	0x00404711
  405208:	0040430f 	.word	0x0040430f
  40520c:	2040c34c 	.word	0x2040c34c

00405210 <vTaskStartScheduler>:
{
  405210:	b510      	push	{r4, lr}
  405212:	b084      	sub	sp, #16
		xReturn = xTaskCreate( prvIdleTask, "IDLE", tskIDLE_STACK_SIZE, ( void * ) NULL, ( tskIDLE_PRIORITY | portPRIVILEGE_BIT ), NULL );  /*lint !e961 MISRA exception, justified as it is not a redundant explicit cast to all supported compilers. */
  405214:	2300      	movs	r3, #0
  405216:	9303      	str	r3, [sp, #12]
  405218:	9302      	str	r3, [sp, #8]
  40521a:	9301      	str	r3, [sp, #4]
  40521c:	9300      	str	r3, [sp, #0]
  40521e:	2282      	movs	r2, #130	; 0x82
  405220:	4916      	ldr	r1, [pc, #88]	; (40527c <vTaskStartScheduler+0x6c>)
  405222:	4817      	ldr	r0, [pc, #92]	; (405280 <vTaskStartScheduler+0x70>)
  405224:	4c17      	ldr	r4, [pc, #92]	; (405284 <vTaskStartScheduler+0x74>)
  405226:	47a0      	blx	r4
		if( xReturn == pdPASS )
  405228:	2801      	cmp	r0, #1
  40522a:	d00b      	beq.n	405244 <vTaskStartScheduler+0x34>
		configASSERT( xReturn );
  40522c:	bb20      	cbnz	r0, 405278 <vTaskStartScheduler+0x68>
  40522e:	f04f 0380 	mov.w	r3, #128	; 0x80
  405232:	b672      	cpsid	i
  405234:	f383 8811 	msr	BASEPRI, r3
  405238:	f3bf 8f6f 	isb	sy
  40523c:	f3bf 8f4f 	dsb	sy
  405240:	b662      	cpsie	i
  405242:	e7fe      	b.n	405242 <vTaskStartScheduler+0x32>
			xReturn = xTimerCreateTimerTask();
  405244:	4b10      	ldr	r3, [pc, #64]	; (405288 <vTaskStartScheduler+0x78>)
  405246:	4798      	blx	r3
	if( xReturn == pdPASS )
  405248:	2801      	cmp	r0, #1
  40524a:	d1ef      	bne.n	40522c <vTaskStartScheduler+0x1c>
  40524c:	f04f 0380 	mov.w	r3, #128	; 0x80
  405250:	b672      	cpsid	i
  405252:	f383 8811 	msr	BASEPRI, r3
  405256:	f3bf 8f6f 	isb	sy
  40525a:	f3bf 8f4f 	dsb	sy
  40525e:	b662      	cpsie	i
		xNextTaskUnblockTime = portMAX_DELAY;
  405260:	f04f 32ff 	mov.w	r2, #4294967295
  405264:	4b09      	ldr	r3, [pc, #36]	; (40528c <vTaskStartScheduler+0x7c>)
  405266:	601a      	str	r2, [r3, #0]
		xSchedulerRunning = pdTRUE;
  405268:	2201      	movs	r2, #1
  40526a:	4b09      	ldr	r3, [pc, #36]	; (405290 <vTaskStartScheduler+0x80>)
  40526c:	601a      	str	r2, [r3, #0]
		xTickCount = ( TickType_t ) 0U;
  40526e:	2200      	movs	r2, #0
  405270:	4b08      	ldr	r3, [pc, #32]	; (405294 <vTaskStartScheduler+0x84>)
  405272:	601a      	str	r2, [r3, #0]
		if( xPortStartScheduler() != pdFALSE )
  405274:	4b08      	ldr	r3, [pc, #32]	; (405298 <vTaskStartScheduler+0x88>)
  405276:	4798      	blx	r3
}
  405278:	b004      	add	sp, #16
  40527a:	bd10      	pop	{r4, pc}
  40527c:	00409e04 	.word	0x00409e04
  405280:	004055b5 	.word	0x004055b5
  405284:	00404fdd 	.word	0x00404fdd
  405288:	00405bf5 	.word	0x00405bf5
  40528c:	2040c374 	.word	0x2040c374
  405290:	2040c390 	.word	0x2040c390
  405294:	2040c3bc 	.word	0x2040c3bc
  405298:	00404579 	.word	0x00404579

0040529c <vTaskSuspendAll>:
	++uxSchedulerSuspended;
  40529c:	4a02      	ldr	r2, [pc, #8]	; (4052a8 <vTaskSuspendAll+0xc>)
  40529e:	6813      	ldr	r3, [r2, #0]
  4052a0:	3301      	adds	r3, #1
  4052a2:	6013      	str	r3, [r2, #0]
  4052a4:	4770      	bx	lr
  4052a6:	bf00      	nop
  4052a8:	2040c33c 	.word	0x2040c33c

004052ac <xTaskGetTickCount>:
		xTicks = xTickCount;
  4052ac:	4b01      	ldr	r3, [pc, #4]	; (4052b4 <xTaskGetTickCount+0x8>)
  4052ae:	6818      	ldr	r0, [r3, #0]
}
  4052b0:	4770      	bx	lr
  4052b2:	bf00      	nop
  4052b4:	2040c3bc 	.word	0x2040c3bc

004052b8 <xTaskIncrementTick>:
{
  4052b8:	e92d 47f0 	stmdb	sp!, {r4, r5, r6, r7, r8, r9, sl, lr}
	if( uxSchedulerSuspended == ( UBaseType_t ) pdFALSE )
  4052bc:	4b42      	ldr	r3, [pc, #264]	; (4053c8 <xTaskIncrementTick+0x110>)
  4052be:	681b      	ldr	r3, [r3, #0]
  4052c0:	2b00      	cmp	r3, #0
  4052c2:	d178      	bne.n	4053b6 <xTaskIncrementTick+0xfe>
		++xTickCount;
  4052c4:	4b41      	ldr	r3, [pc, #260]	; (4053cc <xTaskIncrementTick+0x114>)
  4052c6:	681a      	ldr	r2, [r3, #0]
  4052c8:	3201      	adds	r2, #1
  4052ca:	601a      	str	r2, [r3, #0]
			const TickType_t xConstTickCount = xTickCount;
  4052cc:	681e      	ldr	r6, [r3, #0]
			if( xConstTickCount == ( TickType_t ) 0U )
  4052ce:	b9d6      	cbnz	r6, 405306 <xTaskIncrementTick+0x4e>
				taskSWITCH_DELAYED_LISTS();
  4052d0:	4b3f      	ldr	r3, [pc, #252]	; (4053d0 <xTaskIncrementTick+0x118>)
  4052d2:	681b      	ldr	r3, [r3, #0]
  4052d4:	681b      	ldr	r3, [r3, #0]
  4052d6:	b153      	cbz	r3, 4052ee <xTaskIncrementTick+0x36>
  4052d8:	f04f 0380 	mov.w	r3, #128	; 0x80
  4052dc:	b672      	cpsid	i
  4052de:	f383 8811 	msr	BASEPRI, r3
  4052e2:	f3bf 8f6f 	isb	sy
  4052e6:	f3bf 8f4f 	dsb	sy
  4052ea:	b662      	cpsie	i
  4052ec:	e7fe      	b.n	4052ec <xTaskIncrementTick+0x34>
  4052ee:	4a38      	ldr	r2, [pc, #224]	; (4053d0 <xTaskIncrementTick+0x118>)
  4052f0:	6811      	ldr	r1, [r2, #0]
  4052f2:	4b38      	ldr	r3, [pc, #224]	; (4053d4 <xTaskIncrementTick+0x11c>)
  4052f4:	6818      	ldr	r0, [r3, #0]
  4052f6:	6010      	str	r0, [r2, #0]
  4052f8:	6019      	str	r1, [r3, #0]
  4052fa:	4a37      	ldr	r2, [pc, #220]	; (4053d8 <xTaskIncrementTick+0x120>)
  4052fc:	6813      	ldr	r3, [r2, #0]
  4052fe:	3301      	adds	r3, #1
  405300:	6013      	str	r3, [r2, #0]
  405302:	4b36      	ldr	r3, [pc, #216]	; (4053dc <xTaskIncrementTick+0x124>)
  405304:	4798      	blx	r3
			if( xConstTickCount >= xNextTaskUnblockTime )
  405306:	4b36      	ldr	r3, [pc, #216]	; (4053e0 <xTaskIncrementTick+0x128>)
  405308:	681b      	ldr	r3, [r3, #0]
  40530a:	429e      	cmp	r6, r3
  40530c:	d218      	bcs.n	405340 <xTaskIncrementTick+0x88>
BaseType_t xSwitchRequired = pdFALSE;
  40530e:	2400      	movs	r4, #0
			if( listCURRENT_LIST_LENGTH( &( pxReadyTasksLists[ pxCurrentTCB->uxPriority ] ) ) > ( UBaseType_t ) 1 )
  405310:	4b34      	ldr	r3, [pc, #208]	; (4053e4 <xTaskIncrementTick+0x12c>)
  405312:	681b      	ldr	r3, [r3, #0]
  405314:	6adb      	ldr	r3, [r3, #44]	; 0x2c
  405316:	eb03 0383 	add.w	r3, r3, r3, lsl #2
  40531a:	4a33      	ldr	r2, [pc, #204]	; (4053e8 <xTaskIncrementTick+0x130>)
  40531c:	f852 3023 	ldr.w	r3, [r2, r3, lsl #2]
				xSwitchRequired = pdTRUE;
  405320:	2b02      	cmp	r3, #2
  405322:	bf28      	it	cs
  405324:	2401      	movcs	r4, #1
			if( uxPendedTicks == ( UBaseType_t ) 0U )
  405326:	4b31      	ldr	r3, [pc, #196]	; (4053ec <xTaskIncrementTick+0x134>)
  405328:	681b      	ldr	r3, [r3, #0]
  40532a:	b90b      	cbnz	r3, 405330 <xTaskIncrementTick+0x78>
				vApplicationTickHook();
  40532c:	4b30      	ldr	r3, [pc, #192]	; (4053f0 <xTaskIncrementTick+0x138>)
  40532e:	4798      	blx	r3
		if( xYieldPending != pdFALSE )
  405330:	4b30      	ldr	r3, [pc, #192]	; (4053f4 <xTaskIncrementTick+0x13c>)
  405332:	681b      	ldr	r3, [r3, #0]
			xSwitchRequired = pdTRUE;
  405334:	2b00      	cmp	r3, #0
}
  405336:	bf0c      	ite	eq
  405338:	4620      	moveq	r0, r4
  40533a:	2001      	movne	r0, #1
  40533c:	e8bd 87f0 	ldmia.w	sp!, {r4, r5, r6, r7, r8, r9, sl, pc}
  405340:	2400      	movs	r4, #0
					if( listLIST_IS_EMPTY( pxDelayedTaskList ) != pdFALSE )
  405342:	f8df 908c 	ldr.w	r9, [pc, #140]	; 4053d0 <xTaskIncrementTick+0x118>
						( void ) uxListRemove( &( pxTCB->xGenericListItem ) );
  405346:	f8df 80b8 	ldr.w	r8, [pc, #184]	; 405400 <xTaskIncrementTick+0x148>
						prvAddTaskToReadyList( pxTCB );
  40534a:	4f2b      	ldr	r7, [pc, #172]	; (4053f8 <xTaskIncrementTick+0x140>)
  40534c:	e01f      	b.n	40538e <xTaskIncrementTick+0xd6>
						xNextTaskUnblockTime = portMAX_DELAY;
  40534e:	f04f 32ff 	mov.w	r2, #4294967295
  405352:	4b23      	ldr	r3, [pc, #140]	; (4053e0 <xTaskIncrementTick+0x128>)
  405354:	601a      	str	r2, [r3, #0]
						break;
  405356:	e7db      	b.n	405310 <xTaskIncrementTick+0x58>
							xNextTaskUnblockTime = xItemValue;
  405358:	4a21      	ldr	r2, [pc, #132]	; (4053e0 <xTaskIncrementTick+0x128>)
  40535a:	6013      	str	r3, [r2, #0]
							break;
  40535c:	e7d8      	b.n	405310 <xTaskIncrementTick+0x58>
							( void ) uxListRemove( &( pxTCB->xEventListItem ) );
  40535e:	f105 0018 	add.w	r0, r5, #24
  405362:	47c0      	blx	r8
						prvAddTaskToReadyList( pxTCB );
  405364:	6ae8      	ldr	r0, [r5, #44]	; 0x2c
  405366:	683a      	ldr	r2, [r7, #0]
  405368:	2301      	movs	r3, #1
  40536a:	4083      	lsls	r3, r0
  40536c:	4313      	orrs	r3, r2
  40536e:	603b      	str	r3, [r7, #0]
  405370:	eb00 0080 	add.w	r0, r0, r0, lsl #2
  405374:	4651      	mov	r1, sl
  405376:	4b1c      	ldr	r3, [pc, #112]	; (4053e8 <xTaskIncrementTick+0x130>)
  405378:	eb03 0080 	add.w	r0, r3, r0, lsl #2
  40537c:	4b1f      	ldr	r3, [pc, #124]	; (4053fc <xTaskIncrementTick+0x144>)
  40537e:	4798      	blx	r3
							if( pxTCB->uxPriority >= pxCurrentTCB->uxPriority )
  405380:	4b18      	ldr	r3, [pc, #96]	; (4053e4 <xTaskIncrementTick+0x12c>)
  405382:	681b      	ldr	r3, [r3, #0]
  405384:	6aea      	ldr	r2, [r5, #44]	; 0x2c
  405386:	6adb      	ldr	r3, [r3, #44]	; 0x2c
								xSwitchRequired = pdTRUE;
  405388:	429a      	cmp	r2, r3
  40538a:	bf28      	it	cs
  40538c:	2401      	movcs	r4, #1
					if( listLIST_IS_EMPTY( pxDelayedTaskList ) != pdFALSE )
  40538e:	f8d9 3000 	ldr.w	r3, [r9]
  405392:	681b      	ldr	r3, [r3, #0]
  405394:	2b00      	cmp	r3, #0
  405396:	d0da      	beq.n	40534e <xTaskIncrementTick+0x96>
						pxTCB = ( TCB_t * ) listGET_OWNER_OF_HEAD_ENTRY( pxDelayedTaskList );
  405398:	f8d9 3000 	ldr.w	r3, [r9]
  40539c:	68db      	ldr	r3, [r3, #12]
  40539e:	68dd      	ldr	r5, [r3, #12]
						xItemValue = listGET_LIST_ITEM_VALUE( &( pxTCB->xGenericListItem ) );
  4053a0:	686b      	ldr	r3, [r5, #4]
						if( xConstTickCount < xItemValue )
  4053a2:	429e      	cmp	r6, r3
  4053a4:	d3d8      	bcc.n	405358 <xTaskIncrementTick+0xa0>
						( void ) uxListRemove( &( pxTCB->xGenericListItem ) );
  4053a6:	f105 0a04 	add.w	sl, r5, #4
  4053aa:	4650      	mov	r0, sl
  4053ac:	47c0      	blx	r8
						if( listLIST_ITEM_CONTAINER( &( pxTCB->xEventListItem ) ) != NULL )
  4053ae:	6aab      	ldr	r3, [r5, #40]	; 0x28
  4053b0:	2b00      	cmp	r3, #0
  4053b2:	d1d4      	bne.n	40535e <xTaskIncrementTick+0xa6>
  4053b4:	e7d6      	b.n	405364 <xTaskIncrementTick+0xac>
		++uxPendedTicks;
  4053b6:	4a0d      	ldr	r2, [pc, #52]	; (4053ec <xTaskIncrementTick+0x134>)
  4053b8:	6813      	ldr	r3, [r2, #0]
  4053ba:	3301      	adds	r3, #1
  4053bc:	6013      	str	r3, [r2, #0]
			vApplicationTickHook();
  4053be:	4b0c      	ldr	r3, [pc, #48]	; (4053f0 <xTaskIncrementTick+0x138>)
  4053c0:	4798      	blx	r3
BaseType_t xSwitchRequired = pdFALSE;
  4053c2:	2400      	movs	r4, #0
  4053c4:	e7b4      	b.n	405330 <xTaskIncrementTick+0x78>
  4053c6:	bf00      	nop
  4053c8:	2040c33c 	.word	0x2040c33c
  4053cc:	2040c3bc 	.word	0x2040c3bc
  4053d0:	2040c2c8 	.word	0x2040c2c8
  4053d4:	2040c2cc 	.word	0x2040c2cc
  4053d8:	2040c378 	.word	0x2040c378
  4053dc:	00404f59 	.word	0x00404f59
  4053e0:	2040c374 	.word	0x2040c374
  4053e4:	2040c2c4 	.word	0x2040c2c4
  4053e8:	2040c2d0 	.word	0x2040c2d0
  4053ec:	2040c338 	.word	0x2040c338
  4053f0:	004065f9 	.word	0x004065f9
  4053f4:	2040c3c0 	.word	0x2040c3c0
  4053f8:	2040c348 	.word	0x2040c348
  4053fc:	00404315 	.word	0x00404315
  405400:	00404361 	.word	0x00404361

00405404 <xTaskResumeAll>:
{
  405404:	e92d 43f8 	stmdb	sp!, {r3, r4, r5, r6, r7, r8, r9, lr}
	configASSERT( uxSchedulerSuspended );
  405408:	4b38      	ldr	r3, [pc, #224]	; (4054ec <xTaskResumeAll+0xe8>)
  40540a:	681b      	ldr	r3, [r3, #0]
  40540c:	b953      	cbnz	r3, 405424 <xTaskResumeAll+0x20>
  40540e:	f04f 0380 	mov.w	r3, #128	; 0x80
  405412:	b672      	cpsid	i
  405414:	f383 8811 	msr	BASEPRI, r3
  405418:	f3bf 8f6f 	isb	sy
  40541c:	f3bf 8f4f 	dsb	sy
  405420:	b662      	cpsie	i
  405422:	e7fe      	b.n	405422 <xTaskResumeAll+0x1e>
	taskENTER_CRITICAL();
  405424:	4b32      	ldr	r3, [pc, #200]	; (4054f0 <xTaskResumeAll+0xec>)
  405426:	4798      	blx	r3
		--uxSchedulerSuspended;
  405428:	4b30      	ldr	r3, [pc, #192]	; (4054ec <xTaskResumeAll+0xe8>)
  40542a:	681a      	ldr	r2, [r3, #0]
  40542c:	3a01      	subs	r2, #1
  40542e:	601a      	str	r2, [r3, #0]
		if( uxSchedulerSuspended == ( UBaseType_t ) pdFALSE )
  405430:	681b      	ldr	r3, [r3, #0]
  405432:	2b00      	cmp	r3, #0
  405434:	d155      	bne.n	4054e2 <xTaskResumeAll+0xde>
			if( uxCurrentNumberOfTasks > ( UBaseType_t ) 0U )
  405436:	4b2f      	ldr	r3, [pc, #188]	; (4054f4 <xTaskResumeAll+0xf0>)
  405438:	681b      	ldr	r3, [r3, #0]
  40543a:	2b00      	cmp	r3, #0
  40543c:	d132      	bne.n	4054a4 <xTaskResumeAll+0xa0>
BaseType_t xAlreadyYielded = pdFALSE;
  40543e:	2400      	movs	r4, #0
	taskEXIT_CRITICAL();
  405440:	4b2d      	ldr	r3, [pc, #180]	; (4054f8 <xTaskResumeAll+0xf4>)
  405442:	4798      	blx	r3
}
  405444:	4620      	mov	r0, r4
  405446:	e8bd 83f8 	ldmia.w	sp!, {r3, r4, r5, r6, r7, r8, r9, pc}
					pxTCB = ( TCB_t * ) listGET_OWNER_OF_HEAD_ENTRY( ( &xPendingReadyList ) );
  40544a:	68fb      	ldr	r3, [r7, #12]
  40544c:	68dc      	ldr	r4, [r3, #12]
					( void ) uxListRemove( &( pxTCB->xEventListItem ) );
  40544e:	f104 0018 	add.w	r0, r4, #24
  405452:	47b0      	blx	r6
					( void ) uxListRemove( &( pxTCB->xGenericListItem ) );
  405454:	f104 0804 	add.w	r8, r4, #4
  405458:	4640      	mov	r0, r8
  40545a:	47b0      	blx	r6
					prvAddTaskToReadyList( pxTCB );
  40545c:	6ae0      	ldr	r0, [r4, #44]	; 0x2c
  40545e:	682a      	ldr	r2, [r5, #0]
  405460:	2301      	movs	r3, #1
  405462:	4083      	lsls	r3, r0
  405464:	4313      	orrs	r3, r2
  405466:	602b      	str	r3, [r5, #0]
  405468:	eb00 0080 	add.w	r0, r0, r0, lsl #2
  40546c:	4641      	mov	r1, r8
  40546e:	eb09 0080 	add.w	r0, r9, r0, lsl #2
  405472:	4b22      	ldr	r3, [pc, #136]	; (4054fc <xTaskResumeAll+0xf8>)
  405474:	4798      	blx	r3
					if( pxTCB->uxPriority >= pxCurrentTCB->uxPriority )
  405476:	4b22      	ldr	r3, [pc, #136]	; (405500 <xTaskResumeAll+0xfc>)
  405478:	681b      	ldr	r3, [r3, #0]
  40547a:	6ae2      	ldr	r2, [r4, #44]	; 0x2c
  40547c:	6adb      	ldr	r3, [r3, #44]	; 0x2c
  40547e:	429a      	cmp	r2, r3
  405480:	d20c      	bcs.n	40549c <xTaskResumeAll+0x98>
				while( listLIST_IS_EMPTY( &xPendingReadyList ) == pdFALSE )
  405482:	683b      	ldr	r3, [r7, #0]
  405484:	2b00      	cmp	r3, #0
  405486:	d1e0      	bne.n	40544a <xTaskResumeAll+0x46>
				if( uxPendedTicks > ( UBaseType_t ) 0U )
  405488:	4b1e      	ldr	r3, [pc, #120]	; (405504 <xTaskResumeAll+0x100>)
  40548a:	681b      	ldr	r3, [r3, #0]
  40548c:	b1db      	cbz	r3, 4054c6 <xTaskResumeAll+0xc2>
					while( uxPendedTicks > ( UBaseType_t ) 0U )
  40548e:	4b1d      	ldr	r3, [pc, #116]	; (405504 <xTaskResumeAll+0x100>)
  405490:	681b      	ldr	r3, [r3, #0]
  405492:	b1c3      	cbz	r3, 4054c6 <xTaskResumeAll+0xc2>
						if( xTaskIncrementTick() != pdFALSE )
  405494:	4e1c      	ldr	r6, [pc, #112]	; (405508 <xTaskResumeAll+0x104>)
							xYieldPending = pdTRUE;
  405496:	4d1d      	ldr	r5, [pc, #116]	; (40550c <xTaskResumeAll+0x108>)
						--uxPendedTicks;
  405498:	4c1a      	ldr	r4, [pc, #104]	; (405504 <xTaskResumeAll+0x100>)
  40549a:	e00e      	b.n	4054ba <xTaskResumeAll+0xb6>
						xYieldPending = pdTRUE;
  40549c:	2201      	movs	r2, #1
  40549e:	4b1b      	ldr	r3, [pc, #108]	; (40550c <xTaskResumeAll+0x108>)
  4054a0:	601a      	str	r2, [r3, #0]
  4054a2:	e7ee      	b.n	405482 <xTaskResumeAll+0x7e>
				while( listLIST_IS_EMPTY( &xPendingReadyList ) == pdFALSE )
  4054a4:	4f1a      	ldr	r7, [pc, #104]	; (405510 <xTaskResumeAll+0x10c>)
					( void ) uxListRemove( &( pxTCB->xEventListItem ) );
  4054a6:	4e1b      	ldr	r6, [pc, #108]	; (405514 <xTaskResumeAll+0x110>)
					prvAddTaskToReadyList( pxTCB );
  4054a8:	4d1b      	ldr	r5, [pc, #108]	; (405518 <xTaskResumeAll+0x114>)
  4054aa:	f8df 9074 	ldr.w	r9, [pc, #116]	; 405520 <xTaskResumeAll+0x11c>
  4054ae:	e7e8      	b.n	405482 <xTaskResumeAll+0x7e>
						--uxPendedTicks;
  4054b0:	6823      	ldr	r3, [r4, #0]
  4054b2:	3b01      	subs	r3, #1
  4054b4:	6023      	str	r3, [r4, #0]
					while( uxPendedTicks > ( UBaseType_t ) 0U )
  4054b6:	6823      	ldr	r3, [r4, #0]
  4054b8:	b12b      	cbz	r3, 4054c6 <xTaskResumeAll+0xc2>
						if( xTaskIncrementTick() != pdFALSE )
  4054ba:	47b0      	blx	r6
  4054bc:	2800      	cmp	r0, #0
  4054be:	d0f7      	beq.n	4054b0 <xTaskResumeAll+0xac>
							xYieldPending = pdTRUE;
  4054c0:	2301      	movs	r3, #1
  4054c2:	602b      	str	r3, [r5, #0]
  4054c4:	e7f4      	b.n	4054b0 <xTaskResumeAll+0xac>
				if( xYieldPending == pdTRUE )
  4054c6:	4b11      	ldr	r3, [pc, #68]	; (40550c <xTaskResumeAll+0x108>)
  4054c8:	681b      	ldr	r3, [r3, #0]
  4054ca:	2b01      	cmp	r3, #1
  4054cc:	d10b      	bne.n	4054e6 <xTaskResumeAll+0xe2>
					taskYIELD_IF_USING_PREEMPTION();
  4054ce:	f04f 5280 	mov.w	r2, #268435456	; 0x10000000
  4054d2:	4b12      	ldr	r3, [pc, #72]	; (40551c <xTaskResumeAll+0x118>)
  4054d4:	601a      	str	r2, [r3, #0]
  4054d6:	f3bf 8f4f 	dsb	sy
  4054da:	f3bf 8f6f 	isb	sy
						xAlreadyYielded = pdTRUE;
  4054de:	2401      	movs	r4, #1
  4054e0:	e7ae      	b.n	405440 <xTaskResumeAll+0x3c>
BaseType_t xAlreadyYielded = pdFALSE;
  4054e2:	2400      	movs	r4, #0
  4054e4:	e7ac      	b.n	405440 <xTaskResumeAll+0x3c>
  4054e6:	2400      	movs	r4, #0
  4054e8:	e7aa      	b.n	405440 <xTaskResumeAll+0x3c>
  4054ea:	bf00      	nop
  4054ec:	2040c33c 	.word	0x2040c33c
  4054f0:	00404445 	.word	0x00404445
  4054f4:	2040c334 	.word	0x2040c334
  4054f8:	00404491 	.word	0x00404491
  4054fc:	00404315 	.word	0x00404315
  405500:	2040c2c4 	.word	0x2040c2c4
  405504:	2040c338 	.word	0x2040c338
  405508:	004052b9 	.word	0x004052b9
  40550c:	2040c3c0 	.word	0x2040c3c0
  405510:	2040c37c 	.word	0x2040c37c
  405514:	00404361 	.word	0x00404361
  405518:	2040c348 	.word	0x2040c348
  40551c:	e000ed04 	.word	0xe000ed04
  405520:	2040c2d0 	.word	0x2040c2d0

00405524 <vTaskDelay>:
	{
  405524:	b510      	push	{r4, lr}
		if( xTicksToDelay > ( TickType_t ) 0U )
  405526:	2800      	cmp	r0, #0
  405528:	d029      	beq.n	40557e <vTaskDelay+0x5a>
  40552a:	4604      	mov	r4, r0
			configASSERT( uxSchedulerSuspended == 0 );
  40552c:	4b18      	ldr	r3, [pc, #96]	; (405590 <vTaskDelay+0x6c>)
  40552e:	681b      	ldr	r3, [r3, #0]
  405530:	b153      	cbz	r3, 405548 <vTaskDelay+0x24>
  405532:	f04f 0380 	mov.w	r3, #128	; 0x80
  405536:	b672      	cpsid	i
  405538:	f383 8811 	msr	BASEPRI, r3
  40553c:	f3bf 8f6f 	isb	sy
  405540:	f3bf 8f4f 	dsb	sy
  405544:	b662      	cpsie	i
  405546:	e7fe      	b.n	405546 <vTaskDelay+0x22>
			vTaskSuspendAll();
  405548:	4b12      	ldr	r3, [pc, #72]	; (405594 <vTaskDelay+0x70>)
  40554a:	4798      	blx	r3
				xTimeToWake = xTickCount + xTicksToDelay;
  40554c:	4b12      	ldr	r3, [pc, #72]	; (405598 <vTaskDelay+0x74>)
  40554e:	681b      	ldr	r3, [r3, #0]
  405550:	441c      	add	r4, r3
				if( uxListRemove( &( pxCurrentTCB->xGenericListItem ) ) == ( UBaseType_t ) 0 )
  405552:	4b12      	ldr	r3, [pc, #72]	; (40559c <vTaskDelay+0x78>)
  405554:	6818      	ldr	r0, [r3, #0]
  405556:	3004      	adds	r0, #4
  405558:	4b11      	ldr	r3, [pc, #68]	; (4055a0 <vTaskDelay+0x7c>)
  40555a:	4798      	blx	r3
  40555c:	b948      	cbnz	r0, 405572 <vTaskDelay+0x4e>
					portRESET_READY_PRIORITY( pxCurrentTCB->uxPriority, uxTopReadyPriority );
  40555e:	4b0f      	ldr	r3, [pc, #60]	; (40559c <vTaskDelay+0x78>)
  405560:	681a      	ldr	r2, [r3, #0]
  405562:	4910      	ldr	r1, [pc, #64]	; (4055a4 <vTaskDelay+0x80>)
  405564:	680b      	ldr	r3, [r1, #0]
  405566:	6ad0      	ldr	r0, [r2, #44]	; 0x2c
  405568:	2201      	movs	r2, #1
  40556a:	4082      	lsls	r2, r0
  40556c:	ea23 0302 	bic.w	r3, r3, r2
  405570:	600b      	str	r3, [r1, #0]
				prvAddCurrentTaskToDelayedList( xTimeToWake );
  405572:	4620      	mov	r0, r4
  405574:	4b0c      	ldr	r3, [pc, #48]	; (4055a8 <vTaskDelay+0x84>)
  405576:	4798      	blx	r3
			xAlreadyYielded = xTaskResumeAll();
  405578:	4b0c      	ldr	r3, [pc, #48]	; (4055ac <vTaskDelay+0x88>)
  40557a:	4798      	blx	r3
		if( xAlreadyYielded == pdFALSE )
  40557c:	b938      	cbnz	r0, 40558e <vTaskDelay+0x6a>
			portYIELD_WITHIN_API();
  40557e:	f04f 5280 	mov.w	r2, #268435456	; 0x10000000
  405582:	4b0b      	ldr	r3, [pc, #44]	; (4055b0 <vTaskDelay+0x8c>)
  405584:	601a      	str	r2, [r3, #0]
  405586:	f3bf 8f4f 	dsb	sy
  40558a:	f3bf 8f6f 	isb	sy
  40558e:	bd10      	pop	{r4, pc}
  405590:	2040c33c 	.word	0x2040c33c
  405594:	0040529d 	.word	0x0040529d
  405598:	2040c3bc 	.word	0x2040c3bc
  40559c:	2040c2c4 	.word	0x2040c2c4
  4055a0:	00404361 	.word	0x00404361
  4055a4:	2040c348 	.word	0x2040c348
  4055a8:	00404f85 	.word	0x00404f85
  4055ac:	00405405 	.word	0x00405405
  4055b0:	e000ed04 	.word	0xe000ed04

004055b4 <prvIdleTask>:
{
  4055b4:	b580      	push	{r7, lr}
			vTaskSuspendAll();
  4055b6:	f8df 8088 	ldr.w	r8, [pc, #136]	; 405640 <prvIdleTask+0x8c>
				xListIsEmpty = listLIST_IS_EMPTY( &xTasksWaitingTermination );
  4055ba:	4e19      	ldr	r6, [pc, #100]	; (405620 <prvIdleTask+0x6c>)
				taskYIELD();
  4055bc:	f8df 9084 	ldr.w	r9, [pc, #132]	; 405644 <prvIdleTask+0x90>
  4055c0:	e02a      	b.n	405618 <prvIdleTask+0x64>
			if( listCURRENT_LIST_LENGTH( &( pxReadyTasksLists[ tskIDLE_PRIORITY ] ) ) > ( UBaseType_t ) 1 )
  4055c2:	4b18      	ldr	r3, [pc, #96]	; (405624 <prvIdleTask+0x70>)
  4055c4:	681b      	ldr	r3, [r3, #0]
  4055c6:	2b01      	cmp	r3, #1
  4055c8:	d81e      	bhi.n	405608 <prvIdleTask+0x54>
		while( uxTasksDeleted > ( UBaseType_t ) 0U )
  4055ca:	682b      	ldr	r3, [r5, #0]
  4055cc:	2b00      	cmp	r3, #0
  4055ce:	d0f8      	beq.n	4055c2 <prvIdleTask+0xe>
			vTaskSuspendAll();
  4055d0:	47c0      	blx	r8
				xListIsEmpty = listLIST_IS_EMPTY( &xTasksWaitingTermination );
  4055d2:	6834      	ldr	r4, [r6, #0]
			( void ) xTaskResumeAll();
  4055d4:	47b8      	blx	r7
			if( xListIsEmpty == pdFALSE )
  4055d6:	2c00      	cmp	r4, #0
  4055d8:	d0f7      	beq.n	4055ca <prvIdleTask+0x16>
				taskENTER_CRITICAL();
  4055da:	4b13      	ldr	r3, [pc, #76]	; (405628 <prvIdleTask+0x74>)
  4055dc:	4798      	blx	r3
					pxTCB = ( TCB_t * ) listGET_OWNER_OF_HEAD_ENTRY( ( &xTasksWaitingTermination ) );
  4055de:	68f3      	ldr	r3, [r6, #12]
  4055e0:	68dc      	ldr	r4, [r3, #12]
					( void ) uxListRemove( &( pxTCB->xGenericListItem ) );
  4055e2:	1d20      	adds	r0, r4, #4
  4055e4:	4b11      	ldr	r3, [pc, #68]	; (40562c <prvIdleTask+0x78>)
  4055e6:	4798      	blx	r3
					--uxCurrentNumberOfTasks;
  4055e8:	4a11      	ldr	r2, [pc, #68]	; (405630 <prvIdleTask+0x7c>)
  4055ea:	6813      	ldr	r3, [r2, #0]
  4055ec:	3b01      	subs	r3, #1
  4055ee:	6013      	str	r3, [r2, #0]
					--uxTasksDeleted;
  4055f0:	682b      	ldr	r3, [r5, #0]
  4055f2:	3b01      	subs	r3, #1
  4055f4:	602b      	str	r3, [r5, #0]
				taskEXIT_CRITICAL();
  4055f6:	4b0f      	ldr	r3, [pc, #60]	; (405634 <prvIdleTask+0x80>)
  4055f8:	4798      	blx	r3
			vPortFreeAligned( pxTCB->pxStack );
  4055fa:	6b20      	ldr	r0, [r4, #48]	; 0x30
  4055fc:	f8df a048 	ldr.w	sl, [pc, #72]	; 405648 <prvIdleTask+0x94>
  405600:	47d0      	blx	sl
		vPortFree( pxTCB );
  405602:	4620      	mov	r0, r4
  405604:	47d0      	blx	sl
  405606:	e7e0      	b.n	4055ca <prvIdleTask+0x16>
				taskYIELD();
  405608:	f04f 5380 	mov.w	r3, #268435456	; 0x10000000
  40560c:	f8c9 3000 	str.w	r3, [r9]
  405610:	f3bf 8f4f 	dsb	sy
  405614:	f3bf 8f6f 	isb	sy
		while( uxTasksDeleted > ( UBaseType_t ) 0U )
  405618:	4d07      	ldr	r5, [pc, #28]	; (405638 <prvIdleTask+0x84>)
			( void ) xTaskResumeAll();
  40561a:	4f08      	ldr	r7, [pc, #32]	; (40563c <prvIdleTask+0x88>)
  40561c:	e7d5      	b.n	4055ca <prvIdleTask+0x16>
  40561e:	bf00      	nop
  405620:	2040c3a8 	.word	0x2040c3a8
  405624:	2040c2d0 	.word	0x2040c2d0
  405628:	00404445 	.word	0x00404445
  40562c:	00404361 	.word	0x00404361
  405630:	2040c334 	.word	0x2040c334
  405634:	00404491 	.word	0x00404491
  405638:	2040c344 	.word	0x2040c344
  40563c:	00405405 	.word	0x00405405
  405640:	0040529d 	.word	0x0040529d
  405644:	e000ed04 	.word	0xe000ed04
  405648:	00404711 	.word	0x00404711

0040564c <vTaskSwitchContext>:
	if( uxSchedulerSuspended != ( UBaseType_t ) pdFALSE )
  40564c:	4b2d      	ldr	r3, [pc, #180]	; (405704 <vTaskSwitchContext+0xb8>)
  40564e:	681b      	ldr	r3, [r3, #0]
  405650:	2b00      	cmp	r3, #0
  405652:	d12c      	bne.n	4056ae <vTaskSwitchContext+0x62>
{
  405654:	b510      	push	{r4, lr}
		xYieldPending = pdFALSE;
  405656:	2200      	movs	r2, #0
  405658:	4b2b      	ldr	r3, [pc, #172]	; (405708 <vTaskSwitchContext+0xbc>)
  40565a:	601a      	str	r2, [r3, #0]
		taskCHECK_FOR_STACK_OVERFLOW();
  40565c:	4b2b      	ldr	r3, [pc, #172]	; (40570c <vTaskSwitchContext+0xc0>)
  40565e:	681b      	ldr	r3, [r3, #0]
  405660:	6b1b      	ldr	r3, [r3, #48]	; 0x30
  405662:	681a      	ldr	r2, [r3, #0]
  405664:	f1b2 3fa5 	cmp.w	r2, #2779096485	; 0xa5a5a5a5
  405668:	d103      	bne.n	405672 <vTaskSwitchContext+0x26>
  40566a:	685a      	ldr	r2, [r3, #4]
  40566c:	f1b2 3fa5 	cmp.w	r2, #2779096485	; 0xa5a5a5a5
  405670:	d021      	beq.n	4056b6 <vTaskSwitchContext+0x6a>
  405672:	4b26      	ldr	r3, [pc, #152]	; (40570c <vTaskSwitchContext+0xc0>)
  405674:	6818      	ldr	r0, [r3, #0]
  405676:	6819      	ldr	r1, [r3, #0]
  405678:	3134      	adds	r1, #52	; 0x34
  40567a:	4b25      	ldr	r3, [pc, #148]	; (405710 <vTaskSwitchContext+0xc4>)
  40567c:	4798      	blx	r3
		taskSELECT_HIGHEST_PRIORITY_TASK();
  40567e:	4b25      	ldr	r3, [pc, #148]	; (405714 <vTaskSwitchContext+0xc8>)
  405680:	681b      	ldr	r3, [r3, #0]
		__asm volatile ( "clz %0, %1" : "=r" ( ucReturn ) : "r" ( ulBitmap ) );
  405682:	fab3 f383 	clz	r3, r3
  405686:	b2db      	uxtb	r3, r3
  405688:	f1c3 031f 	rsb	r3, r3, #31
  40568c:	eb03 0183 	add.w	r1, r3, r3, lsl #2
  405690:	4a21      	ldr	r2, [pc, #132]	; (405718 <vTaskSwitchContext+0xcc>)
  405692:	f852 2021 	ldr.w	r2, [r2, r1, lsl #2]
  405696:	b9ba      	cbnz	r2, 4056c8 <vTaskSwitchContext+0x7c>
	__asm volatile
  405698:	f04f 0380 	mov.w	r3, #128	; 0x80
  40569c:	b672      	cpsid	i
  40569e:	f383 8811 	msr	BASEPRI, r3
  4056a2:	f3bf 8f6f 	isb	sy
  4056a6:	f3bf 8f4f 	dsb	sy
  4056aa:	b662      	cpsie	i
  4056ac:	e7fe      	b.n	4056ac <vTaskSwitchContext+0x60>
		xYieldPending = pdTRUE;
  4056ae:	2201      	movs	r2, #1
  4056b0:	4b15      	ldr	r3, [pc, #84]	; (405708 <vTaskSwitchContext+0xbc>)
  4056b2:	601a      	str	r2, [r3, #0]
  4056b4:	4770      	bx	lr
		taskCHECK_FOR_STACK_OVERFLOW();
  4056b6:	689a      	ldr	r2, [r3, #8]
  4056b8:	f1b2 3fa5 	cmp.w	r2, #2779096485	; 0xa5a5a5a5
  4056bc:	d1d9      	bne.n	405672 <vTaskSwitchContext+0x26>
  4056be:	68db      	ldr	r3, [r3, #12]
  4056c0:	f1b3 3fa5 	cmp.w	r3, #2779096485	; 0xa5a5a5a5
  4056c4:	d1d5      	bne.n	405672 <vTaskSwitchContext+0x26>
  4056c6:	e7da      	b.n	40567e <vTaskSwitchContext+0x32>
		taskSELECT_HIGHEST_PRIORITY_TASK();
  4056c8:	4a13      	ldr	r2, [pc, #76]	; (405718 <vTaskSwitchContext+0xcc>)
  4056ca:	0099      	lsls	r1, r3, #2
  4056cc:	18c8      	adds	r0, r1, r3
  4056ce:	eb02 0080 	add.w	r0, r2, r0, lsl #2
  4056d2:	6844      	ldr	r4, [r0, #4]
  4056d4:	6864      	ldr	r4, [r4, #4]
  4056d6:	6044      	str	r4, [r0, #4]
  4056d8:	4419      	add	r1, r3
  4056da:	4602      	mov	r2, r0
  4056dc:	3208      	adds	r2, #8
  4056de:	4294      	cmp	r4, r2
  4056e0:	d009      	beq.n	4056f6 <vTaskSwitchContext+0xaa>
  4056e2:	eb03 0383 	add.w	r3, r3, r3, lsl #2
  4056e6:	4a0c      	ldr	r2, [pc, #48]	; (405718 <vTaskSwitchContext+0xcc>)
  4056e8:	eb02 0383 	add.w	r3, r2, r3, lsl #2
  4056ec:	685b      	ldr	r3, [r3, #4]
  4056ee:	68da      	ldr	r2, [r3, #12]
  4056f0:	4b06      	ldr	r3, [pc, #24]	; (40570c <vTaskSwitchContext+0xc0>)
  4056f2:	601a      	str	r2, [r3, #0]
  4056f4:	bd10      	pop	{r4, pc}
  4056f6:	6860      	ldr	r0, [r4, #4]
  4056f8:	4a07      	ldr	r2, [pc, #28]	; (405718 <vTaskSwitchContext+0xcc>)
  4056fa:	eb02 0281 	add.w	r2, r2, r1, lsl #2
  4056fe:	6050      	str	r0, [r2, #4]
  405700:	e7ef      	b.n	4056e2 <vTaskSwitchContext+0x96>
  405702:	bf00      	nop
  405704:	2040c33c 	.word	0x2040c33c
  405708:	2040c3c0 	.word	0x2040c3c0
  40570c:	2040c2c4 	.word	0x2040c2c4
  405710:	004065e1 	.word	0x004065e1
  405714:	2040c348 	.word	0x2040c348
  405718:	2040c2d0 	.word	0x2040c2d0

0040571c <vTaskPlaceOnEventList>:
{
  40571c:	b538      	push	{r3, r4, r5, lr}
	configASSERT( pxEventList );
  40571e:	b1e0      	cbz	r0, 40575a <vTaskPlaceOnEventList+0x3e>
  405720:	460c      	mov	r4, r1
	vListInsert( pxEventList, &( pxCurrentTCB->xEventListItem ) );
  405722:	4d17      	ldr	r5, [pc, #92]	; (405780 <vTaskPlaceOnEventList+0x64>)
  405724:	6829      	ldr	r1, [r5, #0]
  405726:	3118      	adds	r1, #24
  405728:	4b16      	ldr	r3, [pc, #88]	; (405784 <vTaskPlaceOnEventList+0x68>)
  40572a:	4798      	blx	r3
	if( uxListRemove( &( pxCurrentTCB->xGenericListItem ) ) == ( UBaseType_t ) 0 )
  40572c:	6828      	ldr	r0, [r5, #0]
  40572e:	3004      	adds	r0, #4
  405730:	4b15      	ldr	r3, [pc, #84]	; (405788 <vTaskPlaceOnEventList+0x6c>)
  405732:	4798      	blx	r3
  405734:	b940      	cbnz	r0, 405748 <vTaskPlaceOnEventList+0x2c>
		portRESET_READY_PRIORITY( pxCurrentTCB->uxPriority, uxTopReadyPriority );
  405736:	682a      	ldr	r2, [r5, #0]
  405738:	4914      	ldr	r1, [pc, #80]	; (40578c <vTaskPlaceOnEventList+0x70>)
  40573a:	680b      	ldr	r3, [r1, #0]
  40573c:	6ad0      	ldr	r0, [r2, #44]	; 0x2c
  40573e:	2201      	movs	r2, #1
  405740:	4082      	lsls	r2, r0
  405742:	ea23 0302 	bic.w	r3, r3, r2
  405746:	600b      	str	r3, [r1, #0]
		if( xTicksToWait == portMAX_DELAY )
  405748:	f1b4 3fff 	cmp.w	r4, #4294967295
  40574c:	d010      	beq.n	405770 <vTaskPlaceOnEventList+0x54>
			xTimeToWake = xTickCount + xTicksToWait;
  40574e:	4b10      	ldr	r3, [pc, #64]	; (405790 <vTaskPlaceOnEventList+0x74>)
  405750:	6818      	ldr	r0, [r3, #0]
			prvAddCurrentTaskToDelayedList( xTimeToWake );
  405752:	4420      	add	r0, r4
  405754:	4b0f      	ldr	r3, [pc, #60]	; (405794 <vTaskPlaceOnEventList+0x78>)
  405756:	4798      	blx	r3
  405758:	bd38      	pop	{r3, r4, r5, pc}
  40575a:	f04f 0380 	mov.w	r3, #128	; 0x80
  40575e:	b672      	cpsid	i
  405760:	f383 8811 	msr	BASEPRI, r3
  405764:	f3bf 8f6f 	isb	sy
  405768:	f3bf 8f4f 	dsb	sy
  40576c:	b662      	cpsie	i
  40576e:	e7fe      	b.n	40576e <vTaskPlaceOnEventList+0x52>
			vListInsertEnd( &xSuspendedTaskList, &( pxCurrentTCB->xGenericListItem ) );
  405770:	4b03      	ldr	r3, [pc, #12]	; (405780 <vTaskPlaceOnEventList+0x64>)
  405772:	6819      	ldr	r1, [r3, #0]
  405774:	3104      	adds	r1, #4
  405776:	4808      	ldr	r0, [pc, #32]	; (405798 <vTaskPlaceOnEventList+0x7c>)
  405778:	4b08      	ldr	r3, [pc, #32]	; (40579c <vTaskPlaceOnEventList+0x80>)
  40577a:	4798      	blx	r3
  40577c:	bd38      	pop	{r3, r4, r5, pc}
  40577e:	bf00      	nop
  405780:	2040c2c4 	.word	0x2040c2c4
  405784:	0040432d 	.word	0x0040432d
  405788:	00404361 	.word	0x00404361
  40578c:	2040c348 	.word	0x2040c348
  405790:	2040c3bc 	.word	0x2040c3bc
  405794:	00404f85 	.word	0x00404f85
  405798:	2040c394 	.word	0x2040c394
  40579c:	00404315 	.word	0x00404315

004057a0 <vTaskPlaceOnEventListRestricted>:
		configASSERT( pxEventList );
  4057a0:	b1e8      	cbz	r0, 4057de <vTaskPlaceOnEventListRestricted+0x3e>
	{
  4057a2:	b570      	push	{r4, r5, r6, lr}
  4057a4:	4615      	mov	r5, r2
  4057a6:	460c      	mov	r4, r1
		vListInsertEnd( pxEventList, &( pxCurrentTCB->xEventListItem ) );
  4057a8:	4e16      	ldr	r6, [pc, #88]	; (405804 <vTaskPlaceOnEventListRestricted+0x64>)
  4057aa:	6831      	ldr	r1, [r6, #0]
  4057ac:	3118      	adds	r1, #24
  4057ae:	4b16      	ldr	r3, [pc, #88]	; (405808 <vTaskPlaceOnEventListRestricted+0x68>)
  4057b0:	4798      	blx	r3
		if( uxListRemove( &( pxCurrentTCB->xGenericListItem ) ) == ( UBaseType_t ) 0 )
  4057b2:	6830      	ldr	r0, [r6, #0]
  4057b4:	3004      	adds	r0, #4
  4057b6:	4b15      	ldr	r3, [pc, #84]	; (40580c <vTaskPlaceOnEventListRestricted+0x6c>)
  4057b8:	4798      	blx	r3
  4057ba:	b940      	cbnz	r0, 4057ce <vTaskPlaceOnEventListRestricted+0x2e>
			portRESET_READY_PRIORITY( pxCurrentTCB->uxPriority, uxTopReadyPriority );
  4057bc:	6832      	ldr	r2, [r6, #0]
  4057be:	4914      	ldr	r1, [pc, #80]	; (405810 <vTaskPlaceOnEventListRestricted+0x70>)
  4057c0:	680b      	ldr	r3, [r1, #0]
  4057c2:	6ad0      	ldr	r0, [r2, #44]	; 0x2c
  4057c4:	2201      	movs	r2, #1
  4057c6:	4082      	lsls	r2, r0
  4057c8:	ea23 0302 	bic.w	r3, r3, r2
  4057cc:	600b      	str	r3, [r1, #0]
			if( xWaitIndefinitely == pdTRUE )
  4057ce:	2d01      	cmp	r5, #1
  4057d0:	d010      	beq.n	4057f4 <vTaskPlaceOnEventListRestricted+0x54>
				xTimeToWake = xTickCount + xTicksToWait;
  4057d2:	4b10      	ldr	r3, [pc, #64]	; (405814 <vTaskPlaceOnEventListRestricted+0x74>)
  4057d4:	6818      	ldr	r0, [r3, #0]
				prvAddCurrentTaskToDelayedList( xTimeToWake );
  4057d6:	4420      	add	r0, r4
  4057d8:	4b0f      	ldr	r3, [pc, #60]	; (405818 <vTaskPlaceOnEventListRestricted+0x78>)
  4057da:	4798      	blx	r3
  4057dc:	bd70      	pop	{r4, r5, r6, pc}
  4057de:	f04f 0380 	mov.w	r3, #128	; 0x80
  4057e2:	b672      	cpsid	i
  4057e4:	f383 8811 	msr	BASEPRI, r3
  4057e8:	f3bf 8f6f 	isb	sy
  4057ec:	f3bf 8f4f 	dsb	sy
  4057f0:	b662      	cpsie	i
  4057f2:	e7fe      	b.n	4057f2 <vTaskPlaceOnEventListRestricted+0x52>
				vListInsertEnd( &xSuspendedTaskList, &( pxCurrentTCB->xGenericListItem ) );
  4057f4:	4b03      	ldr	r3, [pc, #12]	; (405804 <vTaskPlaceOnEventListRestricted+0x64>)
  4057f6:	6819      	ldr	r1, [r3, #0]
  4057f8:	3104      	adds	r1, #4
  4057fa:	4808      	ldr	r0, [pc, #32]	; (40581c <vTaskPlaceOnEventListRestricted+0x7c>)
  4057fc:	4b02      	ldr	r3, [pc, #8]	; (405808 <vTaskPlaceOnEventListRestricted+0x68>)
  4057fe:	4798      	blx	r3
  405800:	bd70      	pop	{r4, r5, r6, pc}
  405802:	bf00      	nop
  405804:	2040c2c4 	.word	0x2040c2c4
  405808:	00404315 	.word	0x00404315
  40580c:	00404361 	.word	0x00404361
  405810:	2040c348 	.word	0x2040c348
  405814:	2040c3bc 	.word	0x2040c3bc
  405818:	00404f85 	.word	0x00404f85
  40581c:	2040c394 	.word	0x2040c394

00405820 <xTaskRemoveFromEventList>:
{
  405820:	b538      	push	{r3, r4, r5, lr}
	pxUnblockedTCB = ( TCB_t * ) listGET_OWNER_OF_HEAD_ENTRY( pxEventList );
  405822:	68c3      	ldr	r3, [r0, #12]
  405824:	68dc      	ldr	r4, [r3, #12]
	configASSERT( pxUnblockedTCB );
  405826:	b324      	cbz	r4, 405872 <xTaskRemoveFromEventList+0x52>
	( void ) uxListRemove( &( pxUnblockedTCB->xEventListItem ) );
  405828:	f104 0518 	add.w	r5, r4, #24
  40582c:	4628      	mov	r0, r5
  40582e:	4b1a      	ldr	r3, [pc, #104]	; (405898 <xTaskRemoveFromEventList+0x78>)
  405830:	4798      	blx	r3
	if( uxSchedulerSuspended == ( UBaseType_t ) pdFALSE )
  405832:	4b1a      	ldr	r3, [pc, #104]	; (40589c <xTaskRemoveFromEventList+0x7c>)
  405834:	681b      	ldr	r3, [r3, #0]
  405836:	bb3b      	cbnz	r3, 405888 <xTaskRemoveFromEventList+0x68>
		( void ) uxListRemove( &( pxUnblockedTCB->xGenericListItem ) );
  405838:	1d25      	adds	r5, r4, #4
  40583a:	4628      	mov	r0, r5
  40583c:	4b16      	ldr	r3, [pc, #88]	; (405898 <xTaskRemoveFromEventList+0x78>)
  40583e:	4798      	blx	r3
		prvAddTaskToReadyList( pxUnblockedTCB );
  405840:	6ae0      	ldr	r0, [r4, #44]	; 0x2c
  405842:	4a17      	ldr	r2, [pc, #92]	; (4058a0 <xTaskRemoveFromEventList+0x80>)
  405844:	6811      	ldr	r1, [r2, #0]
  405846:	2301      	movs	r3, #1
  405848:	4083      	lsls	r3, r0
  40584a:	430b      	orrs	r3, r1
  40584c:	6013      	str	r3, [r2, #0]
  40584e:	eb00 0080 	add.w	r0, r0, r0, lsl #2
  405852:	4629      	mov	r1, r5
  405854:	4b13      	ldr	r3, [pc, #76]	; (4058a4 <xTaskRemoveFromEventList+0x84>)
  405856:	eb03 0080 	add.w	r0, r3, r0, lsl #2
  40585a:	4b13      	ldr	r3, [pc, #76]	; (4058a8 <xTaskRemoveFromEventList+0x88>)
  40585c:	4798      	blx	r3
	if( pxUnblockedTCB->uxPriority > pxCurrentTCB->uxPriority )
  40585e:	4b13      	ldr	r3, [pc, #76]	; (4058ac <xTaskRemoveFromEventList+0x8c>)
  405860:	681b      	ldr	r3, [r3, #0]
  405862:	6ae2      	ldr	r2, [r4, #44]	; 0x2c
  405864:	6adb      	ldr	r3, [r3, #44]	; 0x2c
  405866:	429a      	cmp	r2, r3
  405868:	d913      	bls.n	405892 <xTaskRemoveFromEventList+0x72>
		xYieldPending = pdTRUE;
  40586a:	2001      	movs	r0, #1
  40586c:	4b10      	ldr	r3, [pc, #64]	; (4058b0 <xTaskRemoveFromEventList+0x90>)
  40586e:	6018      	str	r0, [r3, #0]
  405870:	bd38      	pop	{r3, r4, r5, pc}
  405872:	f04f 0380 	mov.w	r3, #128	; 0x80
  405876:	b672      	cpsid	i
  405878:	f383 8811 	msr	BASEPRI, r3
  40587c:	f3bf 8f6f 	isb	sy
  405880:	f3bf 8f4f 	dsb	sy
  405884:	b662      	cpsie	i
  405886:	e7fe      	b.n	405886 <xTaskRemoveFromEventList+0x66>
		vListInsertEnd( &( xPendingReadyList ), &( pxUnblockedTCB->xEventListItem ) );
  405888:	4629      	mov	r1, r5
  40588a:	480a      	ldr	r0, [pc, #40]	; (4058b4 <xTaskRemoveFromEventList+0x94>)
  40588c:	4b06      	ldr	r3, [pc, #24]	; (4058a8 <xTaskRemoveFromEventList+0x88>)
  40588e:	4798      	blx	r3
  405890:	e7e5      	b.n	40585e <xTaskRemoveFromEventList+0x3e>
		xReturn = pdFALSE;
  405892:	2000      	movs	r0, #0
}
  405894:	bd38      	pop	{r3, r4, r5, pc}
  405896:	bf00      	nop
  405898:	00404361 	.word	0x00404361
  40589c:	2040c33c 	.word	0x2040c33c
  4058a0:	2040c348 	.word	0x2040c348
  4058a4:	2040c2d0 	.word	0x2040c2d0
  4058a8:	00404315 	.word	0x00404315
  4058ac:	2040c2c4 	.word	0x2040c2c4
  4058b0:	2040c3c0 	.word	0x2040c3c0
  4058b4:	2040c37c 	.word	0x2040c37c

004058b8 <vTaskSetTimeOutState>:
	configASSERT( pxTimeOut );
  4058b8:	b130      	cbz	r0, 4058c8 <vTaskSetTimeOutState+0x10>
	pxTimeOut->xOverflowCount = xNumOfOverflows;
  4058ba:	4a09      	ldr	r2, [pc, #36]	; (4058e0 <vTaskSetTimeOutState+0x28>)
  4058bc:	6812      	ldr	r2, [r2, #0]
  4058be:	6002      	str	r2, [r0, #0]
	pxTimeOut->xTimeOnEntering = xTickCount;
  4058c0:	4a08      	ldr	r2, [pc, #32]	; (4058e4 <vTaskSetTimeOutState+0x2c>)
  4058c2:	6812      	ldr	r2, [r2, #0]
  4058c4:	6042      	str	r2, [r0, #4]
  4058c6:	4770      	bx	lr
  4058c8:	f04f 0380 	mov.w	r3, #128	; 0x80
  4058cc:	b672      	cpsid	i
  4058ce:	f383 8811 	msr	BASEPRI, r3
  4058d2:	f3bf 8f6f 	isb	sy
  4058d6:	f3bf 8f4f 	dsb	sy
  4058da:	b662      	cpsie	i
  4058dc:	e7fe      	b.n	4058dc <vTaskSetTimeOutState+0x24>
  4058de:	bf00      	nop
  4058e0:	2040c378 	.word	0x2040c378
  4058e4:	2040c3bc 	.word	0x2040c3bc

004058e8 <xTaskCheckForTimeOut>:
{
  4058e8:	b538      	push	{r3, r4, r5, lr}
	configASSERT( pxTimeOut );
  4058ea:	b1c0      	cbz	r0, 40591e <xTaskCheckForTimeOut+0x36>
  4058ec:	4604      	mov	r4, r0
	configASSERT( pxTicksToWait );
  4058ee:	b309      	cbz	r1, 405934 <xTaskCheckForTimeOut+0x4c>
  4058f0:	460d      	mov	r5, r1
	taskENTER_CRITICAL();
  4058f2:	4b1d      	ldr	r3, [pc, #116]	; (405968 <xTaskCheckForTimeOut+0x80>)
  4058f4:	4798      	blx	r3
		const TickType_t xConstTickCount = xTickCount;
  4058f6:	4b1d      	ldr	r3, [pc, #116]	; (40596c <xTaskCheckForTimeOut+0x84>)
  4058f8:	681a      	ldr	r2, [r3, #0]
			if( *pxTicksToWait == portMAX_DELAY )
  4058fa:	682b      	ldr	r3, [r5, #0]
  4058fc:	f1b3 3fff 	cmp.w	r3, #4294967295
  405900:	d02e      	beq.n	405960 <xTaskCheckForTimeOut+0x78>
		if( ( xNumOfOverflows != pxTimeOut->xOverflowCount ) && ( xConstTickCount >= pxTimeOut->xTimeOnEntering ) ) /*lint !e525 Indentation preferred as is to make code within pre-processor directives clearer. */
  405902:	491b      	ldr	r1, [pc, #108]	; (405970 <xTaskCheckForTimeOut+0x88>)
  405904:	6809      	ldr	r1, [r1, #0]
  405906:	6820      	ldr	r0, [r4, #0]
  405908:	4288      	cmp	r0, r1
  40590a:	d002      	beq.n	405912 <xTaskCheckForTimeOut+0x2a>
  40590c:	6861      	ldr	r1, [r4, #4]
  40590e:	428a      	cmp	r2, r1
  405910:	d228      	bcs.n	405964 <xTaskCheckForTimeOut+0x7c>
		else if( ( xConstTickCount - pxTimeOut->xTimeOnEntering ) < *pxTicksToWait )
  405912:	6861      	ldr	r1, [r4, #4]
  405914:	1a50      	subs	r0, r2, r1
  405916:	4283      	cmp	r3, r0
  405918:	d817      	bhi.n	40594a <xTaskCheckForTimeOut+0x62>
			xReturn = pdTRUE;
  40591a:	2401      	movs	r4, #1
  40591c:	e01c      	b.n	405958 <xTaskCheckForTimeOut+0x70>
  40591e:	f04f 0380 	mov.w	r3, #128	; 0x80
  405922:	b672      	cpsid	i
  405924:	f383 8811 	msr	BASEPRI, r3
  405928:	f3bf 8f6f 	isb	sy
  40592c:	f3bf 8f4f 	dsb	sy
  405930:	b662      	cpsie	i
  405932:	e7fe      	b.n	405932 <xTaskCheckForTimeOut+0x4a>
  405934:	f04f 0380 	mov.w	r3, #128	; 0x80
  405938:	b672      	cpsid	i
  40593a:	f383 8811 	msr	BASEPRI, r3
  40593e:	f3bf 8f6f 	isb	sy
  405942:	f3bf 8f4f 	dsb	sy
  405946:	b662      	cpsie	i
  405948:	e7fe      	b.n	405948 <xTaskCheckForTimeOut+0x60>
			*pxTicksToWait -= ( xConstTickCount -  pxTimeOut->xTimeOnEntering );
  40594a:	1a9b      	subs	r3, r3, r2
  40594c:	440b      	add	r3, r1
  40594e:	602b      	str	r3, [r5, #0]
			vTaskSetTimeOutState( pxTimeOut );
  405950:	4620      	mov	r0, r4
  405952:	4b08      	ldr	r3, [pc, #32]	; (405974 <xTaskCheckForTimeOut+0x8c>)
  405954:	4798      	blx	r3
			xReturn = pdFALSE;
  405956:	2400      	movs	r4, #0
	taskEXIT_CRITICAL();
  405958:	4b07      	ldr	r3, [pc, #28]	; (405978 <xTaskCheckForTimeOut+0x90>)
  40595a:	4798      	blx	r3
}
  40595c:	4620      	mov	r0, r4
  40595e:	bd38      	pop	{r3, r4, r5, pc}
				xReturn = pdFALSE;
  405960:	2400      	movs	r4, #0
  405962:	e7f9      	b.n	405958 <xTaskCheckForTimeOut+0x70>
			xReturn = pdTRUE;
  405964:	2401      	movs	r4, #1
  405966:	e7f7      	b.n	405958 <xTaskCheckForTimeOut+0x70>
  405968:	00404445 	.word	0x00404445
  40596c:	2040c3bc 	.word	0x2040c3bc
  405970:	2040c378 	.word	0x2040c378
  405974:	004058b9 	.word	0x004058b9
  405978:	00404491 	.word	0x00404491

0040597c <vTaskMissedYield>:
	xYieldPending = pdTRUE;
  40597c:	2201      	movs	r2, #1
  40597e:	4b01      	ldr	r3, [pc, #4]	; (405984 <vTaskMissedYield+0x8>)
  405980:	601a      	str	r2, [r3, #0]
  405982:	4770      	bx	lr
  405984:	2040c3c0 	.word	0x2040c3c0

00405988 <xTaskGetSchedulerState>:

	BaseType_t xTaskGetSchedulerState( void )
	{
	BaseType_t xReturn;

		if( xSchedulerRunning == pdFALSE )
  405988:	4b05      	ldr	r3, [pc, #20]	; (4059a0 <xTaskGetSchedulerState+0x18>)
  40598a:	681b      	ldr	r3, [r3, #0]
  40598c:	b133      	cbz	r3, 40599c <xTaskGetSchedulerState+0x14>
		{
			xReturn = taskSCHEDULER_NOT_STARTED;
		}
		else
		{
			if( uxSchedulerSuspended == ( UBaseType_t ) pdFALSE )
  40598e:	4b05      	ldr	r3, [pc, #20]	; (4059a4 <xTaskGetSchedulerState+0x1c>)
  405990:	681b      	ldr	r3, [r3, #0]
			{
				xReturn = taskSCHEDULER_RUNNING;
			}
			else
			{
				xReturn = taskSCHEDULER_SUSPENDED;
  405992:	2b00      	cmp	r3, #0
  405994:	bf0c      	ite	eq
  405996:	2002      	moveq	r0, #2
  405998:	2000      	movne	r0, #0
  40599a:	4770      	bx	lr
			xReturn = taskSCHEDULER_NOT_STARTED;
  40599c:	2001      	movs	r0, #1
			}
		}

		return xReturn;
	}
  40599e:	4770      	bx	lr
  4059a0:	2040c390 	.word	0x2040c390
  4059a4:	2040c33c 	.word	0x2040c33c

004059a8 <vTaskPriorityInherit>:
	{
	TCB_t * const pxTCB = ( TCB_t * ) pxMutexHolder;

		/* If the mutex was given back by an interrupt while the queue was
		locked then the mutex holder might now be NULL. */
		if( pxMutexHolder != NULL )
  4059a8:	2800      	cmp	r0, #0
  4059aa:	d044      	beq.n	405a36 <vTaskPriorityInherit+0x8e>
	{
  4059ac:	b538      	push	{r3, r4, r5, lr}
  4059ae:	4604      	mov	r4, r0
		{
			/* If the holder of the mutex has a priority below the priority of
			the task attempting to obtain the mutex then it will temporarily
			inherit the priority of the task attempting to obtain the mutex. */
			if( pxTCB->uxPriority < pxCurrentTCB->uxPriority )
  4059b0:	6ac2      	ldr	r2, [r0, #44]	; 0x2c
  4059b2:	4921      	ldr	r1, [pc, #132]	; (405a38 <vTaskPriorityInherit+0x90>)
  4059b4:	6809      	ldr	r1, [r1, #0]
  4059b6:	6ac9      	ldr	r1, [r1, #44]	; 0x2c
  4059b8:	428a      	cmp	r2, r1
  4059ba:	d214      	bcs.n	4059e6 <vTaskPriorityInherit+0x3e>
			{
				/* Adjust the mutex holder state to account for its new
				priority.  Only reset the event list item value if the value is
				not	being used for anything else. */
				if( ( listGET_LIST_ITEM_VALUE( &( pxTCB->xEventListItem ) ) & taskEVENT_LIST_ITEM_VALUE_IN_USE ) == 0UL )
  4059bc:	6981      	ldr	r1, [r0, #24]
  4059be:	2900      	cmp	r1, #0
  4059c0:	db05      	blt.n	4059ce <vTaskPriorityInherit+0x26>
				{
					listSET_LIST_ITEM_VALUE( &( pxTCB->xEventListItem ), ( TickType_t ) configMAX_PRIORITIES - ( TickType_t ) pxCurrentTCB->uxPriority ); /*lint !e961 MISRA exception as the casts are only redundant for some ports. */
  4059c2:	491d      	ldr	r1, [pc, #116]	; (405a38 <vTaskPriorityInherit+0x90>)
  4059c4:	6809      	ldr	r1, [r1, #0]
  4059c6:	6ac9      	ldr	r1, [r1, #44]	; 0x2c
  4059c8:	f1c1 0105 	rsb	r1, r1, #5
  4059cc:	6181      	str	r1, [r0, #24]
					mtCOVERAGE_TEST_MARKER();
				}

				/* If the task being modified is in the ready state it will need
				to be moved into a new list. */
				if( listIS_CONTAINED_WITHIN( &( pxReadyTasksLists[ pxTCB->uxPriority ] ), &( pxTCB->xGenericListItem ) ) != pdFALSE )
  4059ce:	eb02 0282 	add.w	r2, r2, r2, lsl #2
  4059d2:	491a      	ldr	r1, [pc, #104]	; (405a3c <vTaskPriorityInherit+0x94>)
  4059d4:	eb01 0282 	add.w	r2, r1, r2, lsl #2
  4059d8:	6961      	ldr	r1, [r4, #20]
  4059da:	4291      	cmp	r1, r2
  4059dc:	d004      	beq.n	4059e8 <vTaskPriorityInherit+0x40>
					prvAddTaskToReadyList( pxTCB );
				}
				else
				{
					/* Just inherit the priority. */
					pxTCB->uxPriority = pxCurrentTCB->uxPriority;
  4059de:	4a16      	ldr	r2, [pc, #88]	; (405a38 <vTaskPriorityInherit+0x90>)
  4059e0:	6812      	ldr	r2, [r2, #0]
  4059e2:	6ad2      	ldr	r2, [r2, #44]	; 0x2c
  4059e4:	62e2      	str	r2, [r4, #44]	; 0x2c
  4059e6:	bd38      	pop	{r3, r4, r5, pc}
					if( uxListRemove( &( pxTCB->xGenericListItem ) ) == ( UBaseType_t ) 0 )
  4059e8:	1d25      	adds	r5, r4, #4
  4059ea:	4628      	mov	r0, r5
  4059ec:	4b14      	ldr	r3, [pc, #80]	; (405a40 <vTaskPriorityInherit+0x98>)
  4059ee:	4798      	blx	r3
  4059f0:	b970      	cbnz	r0, 405a10 <vTaskPriorityInherit+0x68>
						taskRESET_READY_PRIORITY( pxTCB->uxPriority );
  4059f2:	6ae3      	ldr	r3, [r4, #44]	; 0x2c
  4059f4:	eb03 0183 	add.w	r1, r3, r3, lsl #2
  4059f8:	4a10      	ldr	r2, [pc, #64]	; (405a3c <vTaskPriorityInherit+0x94>)
  4059fa:	f852 2021 	ldr.w	r2, [r2, r1, lsl #2]
  4059fe:	b93a      	cbnz	r2, 405a10 <vTaskPriorityInherit+0x68>
  405a00:	4810      	ldr	r0, [pc, #64]	; (405a44 <vTaskPriorityInherit+0x9c>)
  405a02:	6802      	ldr	r2, [r0, #0]
  405a04:	2101      	movs	r1, #1
  405a06:	fa01 f303 	lsl.w	r3, r1, r3
  405a0a:	ea22 0303 	bic.w	r3, r2, r3
  405a0e:	6003      	str	r3, [r0, #0]
					pxTCB->uxPriority = pxCurrentTCB->uxPriority;
  405a10:	4b09      	ldr	r3, [pc, #36]	; (405a38 <vTaskPriorityInherit+0x90>)
  405a12:	681b      	ldr	r3, [r3, #0]
  405a14:	6ad8      	ldr	r0, [r3, #44]	; 0x2c
  405a16:	62e0      	str	r0, [r4, #44]	; 0x2c
					prvAddTaskToReadyList( pxTCB );
  405a18:	4a0a      	ldr	r2, [pc, #40]	; (405a44 <vTaskPriorityInherit+0x9c>)
  405a1a:	6811      	ldr	r1, [r2, #0]
  405a1c:	2301      	movs	r3, #1
  405a1e:	4083      	lsls	r3, r0
  405a20:	430b      	orrs	r3, r1
  405a22:	6013      	str	r3, [r2, #0]
  405a24:	eb00 0080 	add.w	r0, r0, r0, lsl #2
  405a28:	4629      	mov	r1, r5
  405a2a:	4b04      	ldr	r3, [pc, #16]	; (405a3c <vTaskPriorityInherit+0x94>)
  405a2c:	eb03 0080 	add.w	r0, r3, r0, lsl #2
  405a30:	4b05      	ldr	r3, [pc, #20]	; (405a48 <vTaskPriorityInherit+0xa0>)
  405a32:	4798      	blx	r3
  405a34:	bd38      	pop	{r3, r4, r5, pc}
  405a36:	4770      	bx	lr
  405a38:	2040c2c4 	.word	0x2040c2c4
  405a3c:	2040c2d0 	.word	0x2040c2d0
  405a40:	00404361 	.word	0x00404361
  405a44:	2040c348 	.word	0x2040c348
  405a48:	00404315 	.word	0x00404315

00405a4c <xTaskPriorityDisinherit>:
	BaseType_t xTaskPriorityDisinherit( TaskHandle_t const pxMutexHolder )
	{
	TCB_t * const pxTCB = ( TCB_t * ) pxMutexHolder;
	BaseType_t xReturn = pdFALSE;

		if( pxMutexHolder != NULL )
  405a4c:	2800      	cmp	r0, #0
  405a4e:	d04d      	beq.n	405aec <xTaskPriorityDisinherit+0xa0>
	{
  405a50:	b538      	push	{r3, r4, r5, lr}
  405a52:	4604      	mov	r4, r0
		{
			/* A task can only have an inherited priority if it holds the mutex.
			If the mutex is held by a task then it cannot be given from an
			interrupt, and if a mutex is given by the holding task then it must
			be the running state task. */
			configASSERT( pxTCB == pxCurrentTCB );
  405a54:	4a27      	ldr	r2, [pc, #156]	; (405af4 <xTaskPriorityDisinherit+0xa8>)
  405a56:	6812      	ldr	r2, [r2, #0]
  405a58:	4290      	cmp	r0, r2
  405a5a:	d00a      	beq.n	405a72 <xTaskPriorityDisinherit+0x26>
  405a5c:	f04f 0380 	mov.w	r3, #128	; 0x80
  405a60:	b672      	cpsid	i
  405a62:	f383 8811 	msr	BASEPRI, r3
  405a66:	f3bf 8f6f 	isb	sy
  405a6a:	f3bf 8f4f 	dsb	sy
  405a6e:	b662      	cpsie	i
  405a70:	e7fe      	b.n	405a70 <xTaskPriorityDisinherit+0x24>

			configASSERT( pxTCB->uxMutexesHeld );
  405a72:	6cc2      	ldr	r2, [r0, #76]	; 0x4c
  405a74:	b952      	cbnz	r2, 405a8c <xTaskPriorityDisinherit+0x40>
  405a76:	f04f 0380 	mov.w	r3, #128	; 0x80
  405a7a:	b672      	cpsid	i
  405a7c:	f383 8811 	msr	BASEPRI, r3
  405a80:	f3bf 8f6f 	isb	sy
  405a84:	f3bf 8f4f 	dsb	sy
  405a88:	b662      	cpsie	i
  405a8a:	e7fe      	b.n	405a8a <xTaskPriorityDisinherit+0x3e>
			( pxTCB->uxMutexesHeld )--;
  405a8c:	3a01      	subs	r2, #1
  405a8e:	64c2      	str	r2, [r0, #76]	; 0x4c

			/* Has the holder of the mutex inherited the priority of another
			task? */
			if( pxTCB->uxPriority != pxTCB->uxBasePriority )
  405a90:	6ac0      	ldr	r0, [r0, #44]	; 0x2c
  405a92:	6ca1      	ldr	r1, [r4, #72]	; 0x48
			{
				/* Only disinherit if no other mutexes are held. */
				if( pxTCB->uxMutexesHeld == ( UBaseType_t ) 0 )
  405a94:	4288      	cmp	r0, r1
  405a96:	d02b      	beq.n	405af0 <xTaskPriorityDisinherit+0xa4>
  405a98:	bb52      	cbnz	r2, 405af0 <xTaskPriorityDisinherit+0xa4>
					/* A task can only have an inherited priority if it holds
					the mutex.  If the mutex is held by a task then it cannot be
					given from an interrupt, and if a mutex is given by the
					holding	task then it must be the running state task.  Remove
					the	holding task from the ready	list. */
					if( uxListRemove( &( pxTCB->xGenericListItem ) ) == ( UBaseType_t ) 0 )
  405a9a:	1d25      	adds	r5, r4, #4
  405a9c:	4628      	mov	r0, r5
  405a9e:	4b16      	ldr	r3, [pc, #88]	; (405af8 <xTaskPriorityDisinherit+0xac>)
  405aa0:	4798      	blx	r3
  405aa2:	b968      	cbnz	r0, 405ac0 <xTaskPriorityDisinherit+0x74>
					{
						taskRESET_READY_PRIORITY( pxTCB->uxPriority );
  405aa4:	6ae1      	ldr	r1, [r4, #44]	; 0x2c
  405aa6:	eb01 0281 	add.w	r2, r1, r1, lsl #2
  405aaa:	4b14      	ldr	r3, [pc, #80]	; (405afc <xTaskPriorityDisinherit+0xb0>)
  405aac:	f853 3022 	ldr.w	r3, [r3, r2, lsl #2]
  405ab0:	b933      	cbnz	r3, 405ac0 <xTaskPriorityDisinherit+0x74>
  405ab2:	4813      	ldr	r0, [pc, #76]	; (405b00 <xTaskPriorityDisinherit+0xb4>)
  405ab4:	6803      	ldr	r3, [r0, #0]
  405ab6:	2201      	movs	r2, #1
  405ab8:	408a      	lsls	r2, r1
  405aba:	ea23 0302 	bic.w	r3, r3, r2
  405abe:	6003      	str	r3, [r0, #0]
					}

					/* Disinherit the priority before adding the task into the
					new	ready list. */
					traceTASK_PRIORITY_DISINHERIT( pxTCB, pxTCB->uxBasePriority );
					pxTCB->uxPriority = pxTCB->uxBasePriority;
  405ac0:	6ca0      	ldr	r0, [r4, #72]	; 0x48
  405ac2:	62e0      	str	r0, [r4, #44]	; 0x2c

					/* Reset the event list item value.  It cannot be in use for
					any other purpose if this task is running, and it must be
					running to give back the mutex. */
					listSET_LIST_ITEM_VALUE( &( pxTCB->xEventListItem ), ( TickType_t ) configMAX_PRIORITIES - ( TickType_t ) pxTCB->uxPriority ); /*lint !e961 MISRA exception as the casts are only redundant for some ports. */
  405ac4:	f1c0 0305 	rsb	r3, r0, #5
  405ac8:	61a3      	str	r3, [r4, #24]
					prvAddTaskToReadyList( pxTCB );
  405aca:	4a0d      	ldr	r2, [pc, #52]	; (405b00 <xTaskPriorityDisinherit+0xb4>)
  405acc:	6811      	ldr	r1, [r2, #0]
  405ace:	2401      	movs	r4, #1
  405ad0:	fa04 f300 	lsl.w	r3, r4, r0
  405ad4:	430b      	orrs	r3, r1
  405ad6:	6013      	str	r3, [r2, #0]
  405ad8:	eb00 0080 	add.w	r0, r0, r0, lsl #2
  405adc:	4629      	mov	r1, r5
  405ade:	4b07      	ldr	r3, [pc, #28]	; (405afc <xTaskPriorityDisinherit+0xb0>)
  405ae0:	eb03 0080 	add.w	r0, r3, r0, lsl #2
  405ae4:	4b07      	ldr	r3, [pc, #28]	; (405b04 <xTaskPriorityDisinherit+0xb8>)
  405ae6:	4798      	blx	r3
					in an order different to that in which they were taken.
					If a context switch did not occur when the first mutex was
					returned, even if a task was waiting on it, then a context
					switch should occur when the last mutex is returned whether
					a task is waiting on it or not. */
					xReturn = pdTRUE;
  405ae8:	4620      	mov	r0, r4
  405aea:	bd38      	pop	{r3, r4, r5, pc}
	BaseType_t xReturn = pdFALSE;
  405aec:	2000      	movs	r0, #0
  405aee:	4770      	bx	lr
  405af0:	2000      	movs	r0, #0
		{
			mtCOVERAGE_TEST_MARKER();
		}

		return xReturn;
	}
  405af2:	bd38      	pop	{r3, r4, r5, pc}
  405af4:	2040c2c4 	.word	0x2040c2c4
  405af8:	00404361 	.word	0x00404361
  405afc:	2040c2d0 	.word	0x2040c2d0
  405b00:	2040c348 	.word	0x2040c348
  405b04:	00404315 	.word	0x00404315

00405b08 <pvTaskIncrementMutexHeldCount>:

	void *pvTaskIncrementMutexHeldCount( void )
	{
		/* If xSemaphoreCreateMutex() is called before any tasks have been created
		then pxCurrentTCB will be NULL. */
		if( pxCurrentTCB != NULL )
  405b08:	4b05      	ldr	r3, [pc, #20]	; (405b20 <pvTaskIncrementMutexHeldCount+0x18>)
  405b0a:	681b      	ldr	r3, [r3, #0]
  405b0c:	b123      	cbz	r3, 405b18 <pvTaskIncrementMutexHeldCount+0x10>
		{
			( pxCurrentTCB->uxMutexesHeld )++;
  405b0e:	4b04      	ldr	r3, [pc, #16]	; (405b20 <pvTaskIncrementMutexHeldCount+0x18>)
  405b10:	681a      	ldr	r2, [r3, #0]
  405b12:	6cd3      	ldr	r3, [r2, #76]	; 0x4c
  405b14:	3301      	adds	r3, #1
  405b16:	64d3      	str	r3, [r2, #76]	; 0x4c
		}

		return pxCurrentTCB;
  405b18:	4b01      	ldr	r3, [pc, #4]	; (405b20 <pvTaskIncrementMutexHeldCount+0x18>)
  405b1a:	6818      	ldr	r0, [r3, #0]
	}
  405b1c:	4770      	bx	lr
  405b1e:	bf00      	nop
  405b20:	2040c2c4 	.word	0x2040c2c4

00405b24 <prvInsertTimerInActiveList>:
	return xTimeNow;
}
/*-----------------------------------------------------------*/

static BaseType_t prvInsertTimerInActiveList( Timer_t * const pxTimer, const TickType_t xNextExpiryTime, const TickType_t xTimeNow, const TickType_t xCommandTime )
{
  405b24:	b508      	push	{r3, lr}
BaseType_t xProcessTimerNow = pdFALSE;

	listSET_LIST_ITEM_VALUE( &( pxTimer->xTimerListItem ), xNextExpiryTime );
  405b26:	6041      	str	r1, [r0, #4]
	listSET_LIST_ITEM_OWNER( &( pxTimer->xTimerListItem ), pxTimer );
  405b28:	6100      	str	r0, [r0, #16]

	if( xNextExpiryTime <= xTimeNow )
  405b2a:	4291      	cmp	r1, r2
  405b2c:	d80c      	bhi.n	405b48 <prvInsertTimerInActiveList+0x24>
	{
		/* Has the expiry time elapsed between the command to start/reset a
		timer was issued, and the time the command was processed? */
		if( ( xTimeNow - xCommandTime ) >= pxTimer->xTimerPeriodInTicks )
  405b2e:	1ad2      	subs	r2, r2, r3
  405b30:	6983      	ldr	r3, [r0, #24]
  405b32:	429a      	cmp	r2, r3
  405b34:	d301      	bcc.n	405b3a <prvInsertTimerInActiveList+0x16>
		{
			/* The time between a command being issued and the command being
			processed actually exceeds the timers period.  */
			xProcessTimerNow = pdTRUE;
  405b36:	2001      	movs	r0, #1
  405b38:	bd08      	pop	{r3, pc}
		}
		else
		{
			vListInsert( pxOverflowTimerList, &( pxTimer->xTimerListItem ) );
  405b3a:	1d01      	adds	r1, r0, #4
  405b3c:	4b09      	ldr	r3, [pc, #36]	; (405b64 <prvInsertTimerInActiveList+0x40>)
  405b3e:	6818      	ldr	r0, [r3, #0]
  405b40:	4b09      	ldr	r3, [pc, #36]	; (405b68 <prvInsertTimerInActiveList+0x44>)
  405b42:	4798      	blx	r3
BaseType_t xProcessTimerNow = pdFALSE;
  405b44:	2000      	movs	r0, #0
  405b46:	bd08      	pop	{r3, pc}
		}
	}
	else
	{
		if( ( xTimeNow < xCommandTime ) && ( xNextExpiryTime >= xCommandTime ) )
  405b48:	429a      	cmp	r2, r3
  405b4a:	d203      	bcs.n	405b54 <prvInsertTimerInActiveList+0x30>
  405b4c:	4299      	cmp	r1, r3
  405b4e:	d301      	bcc.n	405b54 <prvInsertTimerInActiveList+0x30>
		{
			/* If, since the command was issued, the tick count has overflowed
			but the expiry time has not, then the timer must have already passed
			its expiry time and should be processed immediately. */
			xProcessTimerNow = pdTRUE;
  405b50:	2001      	movs	r0, #1
			vListInsert( pxCurrentTimerList, &( pxTimer->xTimerListItem ) );
		}
	}

	return xProcessTimerNow;
}
  405b52:	bd08      	pop	{r3, pc}
			vListInsert( pxCurrentTimerList, &( pxTimer->xTimerListItem ) );
  405b54:	1d01      	adds	r1, r0, #4
  405b56:	4b05      	ldr	r3, [pc, #20]	; (405b6c <prvInsertTimerInActiveList+0x48>)
  405b58:	6818      	ldr	r0, [r3, #0]
  405b5a:	4b03      	ldr	r3, [pc, #12]	; (405b68 <prvInsertTimerInActiveList+0x44>)
  405b5c:	4798      	blx	r3
BaseType_t xProcessTimerNow = pdFALSE;
  405b5e:	2000      	movs	r0, #0
  405b60:	bd08      	pop	{r3, pc}
  405b62:	bf00      	nop
  405b64:	2040c3c8 	.word	0x2040c3c8
  405b68:	0040432d 	.word	0x0040432d
  405b6c:	2040c3c4 	.word	0x2040c3c4

00405b70 <prvCheckForValidListAndQueue>:
	pxOverflowTimerList = pxTemp;
}
/*-----------------------------------------------------------*/

static void prvCheckForValidListAndQueue( void )
{
  405b70:	b570      	push	{r4, r5, r6, lr}
	/* Check that the list from which active timers are referenced, and the
	queue used to communicate with the timer service, have been
	initialised. */
	taskENTER_CRITICAL();
  405b72:	4b15      	ldr	r3, [pc, #84]	; (405bc8 <prvCheckForValidListAndQueue+0x58>)
  405b74:	4798      	blx	r3
	{
		if( xTimerQueue == NULL )
  405b76:	4b15      	ldr	r3, [pc, #84]	; (405bcc <prvCheckForValidListAndQueue+0x5c>)
  405b78:	681b      	ldr	r3, [r3, #0]
  405b7a:	b113      	cbz	r3, 405b82 <prvCheckForValidListAndQueue+0x12>
		else
		{
			mtCOVERAGE_TEST_MARKER();
		}
	}
	taskEXIT_CRITICAL();
  405b7c:	4b14      	ldr	r3, [pc, #80]	; (405bd0 <prvCheckForValidListAndQueue+0x60>)
  405b7e:	4798      	blx	r3
  405b80:	bd70      	pop	{r4, r5, r6, pc}
			vListInitialise( &xActiveTimerList1 );
  405b82:	4d14      	ldr	r5, [pc, #80]	; (405bd4 <prvCheckForValidListAndQueue+0x64>)
  405b84:	4628      	mov	r0, r5
  405b86:	4e14      	ldr	r6, [pc, #80]	; (405bd8 <prvCheckForValidListAndQueue+0x68>)
  405b88:	47b0      	blx	r6
			vListInitialise( &xActiveTimerList2 );
  405b8a:	4c14      	ldr	r4, [pc, #80]	; (405bdc <prvCheckForValidListAndQueue+0x6c>)
  405b8c:	4620      	mov	r0, r4
  405b8e:	47b0      	blx	r6
			pxCurrentTimerList = &xActiveTimerList1;
  405b90:	4b13      	ldr	r3, [pc, #76]	; (405be0 <prvCheckForValidListAndQueue+0x70>)
  405b92:	601d      	str	r5, [r3, #0]
			pxOverflowTimerList = &xActiveTimerList2;
  405b94:	4b13      	ldr	r3, [pc, #76]	; (405be4 <prvCheckForValidListAndQueue+0x74>)
  405b96:	601c      	str	r4, [r3, #0]
			xTimerQueue = xQueueCreate( ( UBaseType_t ) configTIMER_QUEUE_LENGTH, sizeof( DaemonTaskMessage_t ) );
  405b98:	2200      	movs	r2, #0
  405b9a:	2110      	movs	r1, #16
  405b9c:	2005      	movs	r0, #5
  405b9e:	4b12      	ldr	r3, [pc, #72]	; (405be8 <prvCheckForValidListAndQueue+0x78>)
  405ba0:	4798      	blx	r3
  405ba2:	4b0a      	ldr	r3, [pc, #40]	; (405bcc <prvCheckForValidListAndQueue+0x5c>)
  405ba4:	6018      	str	r0, [r3, #0]
			configASSERT( xTimerQueue );
  405ba6:	b118      	cbz	r0, 405bb0 <prvCheckForValidListAndQueue+0x40>
					vQueueAddToRegistry( xTimerQueue, "TmrQ" );
  405ba8:	4910      	ldr	r1, [pc, #64]	; (405bec <prvCheckForValidListAndQueue+0x7c>)
  405baa:	4b11      	ldr	r3, [pc, #68]	; (405bf0 <prvCheckForValidListAndQueue+0x80>)
  405bac:	4798      	blx	r3
  405bae:	e7e5      	b.n	405b7c <prvCheckForValidListAndQueue+0xc>
  405bb0:	f04f 0380 	mov.w	r3, #128	; 0x80
  405bb4:	b672      	cpsid	i
  405bb6:	f383 8811 	msr	BASEPRI, r3
  405bba:	f3bf 8f6f 	isb	sy
  405bbe:	f3bf 8f4f 	dsb	sy
  405bc2:	b662      	cpsie	i
  405bc4:	e7fe      	b.n	405bc4 <prvCheckForValidListAndQueue+0x54>
  405bc6:	bf00      	nop
  405bc8:	00404445 	.word	0x00404445
  405bcc:	2040c3f8 	.word	0x2040c3f8
  405bd0:	00404491 	.word	0x00404491
  405bd4:	2040c3cc 	.word	0x2040c3cc
  405bd8:	004042f9 	.word	0x004042f9
  405bdc:	2040c3e0 	.word	0x2040c3e0
  405be0:	2040c3c4 	.word	0x2040c3c4
  405be4:	2040c3c8 	.word	0x2040c3c8
  405be8:	0040499d 	.word	0x0040499d
  405bec:	00409e0c 	.word	0x00409e0c
  405bf0:	00404ecd 	.word	0x00404ecd

00405bf4 <xTimerCreateTimerTask>:
{
  405bf4:	b510      	push	{r4, lr}
  405bf6:	b084      	sub	sp, #16
	prvCheckForValidListAndQueue();
  405bf8:	4b0f      	ldr	r3, [pc, #60]	; (405c38 <xTimerCreateTimerTask+0x44>)
  405bfa:	4798      	blx	r3
	if( xTimerQueue != NULL )
  405bfc:	4b0f      	ldr	r3, [pc, #60]	; (405c3c <xTimerCreateTimerTask+0x48>)
  405bfe:	681b      	ldr	r3, [r3, #0]
  405c00:	b173      	cbz	r3, 405c20 <xTimerCreateTimerTask+0x2c>
			xReturn = xTaskCreate( prvTimerTask, "Tmr Svc", ( uint16_t ) configTIMER_TASK_STACK_DEPTH, NULL, ( ( UBaseType_t ) configTIMER_TASK_PRIORITY ) | portPRIVILEGE_BIT, NULL);
  405c02:	2300      	movs	r3, #0
  405c04:	9303      	str	r3, [sp, #12]
  405c06:	9302      	str	r3, [sp, #8]
  405c08:	9301      	str	r3, [sp, #4]
  405c0a:	2204      	movs	r2, #4
  405c0c:	9200      	str	r2, [sp, #0]
  405c0e:	f44f 7282 	mov.w	r2, #260	; 0x104
  405c12:	490b      	ldr	r1, [pc, #44]	; (405c40 <xTimerCreateTimerTask+0x4c>)
  405c14:	480b      	ldr	r0, [pc, #44]	; (405c44 <xTimerCreateTimerTask+0x50>)
  405c16:	4c0c      	ldr	r4, [pc, #48]	; (405c48 <xTimerCreateTimerTask+0x54>)
  405c18:	47a0      	blx	r4
	configASSERT( xReturn );
  405c1a:	b108      	cbz	r0, 405c20 <xTimerCreateTimerTask+0x2c>
}
  405c1c:	b004      	add	sp, #16
  405c1e:	bd10      	pop	{r4, pc}
  405c20:	f04f 0380 	mov.w	r3, #128	; 0x80
  405c24:	b672      	cpsid	i
  405c26:	f383 8811 	msr	BASEPRI, r3
  405c2a:	f3bf 8f6f 	isb	sy
  405c2e:	f3bf 8f4f 	dsb	sy
  405c32:	b662      	cpsie	i
  405c34:	e7fe      	b.n	405c34 <xTimerCreateTimerTask+0x40>
  405c36:	bf00      	nop
  405c38:	00405b71 	.word	0x00405b71
  405c3c:	2040c3f8 	.word	0x2040c3f8
  405c40:	00409e14 	.word	0x00409e14
  405c44:	00405d75 	.word	0x00405d75
  405c48:	00404fdd 	.word	0x00404fdd

00405c4c <xTimerGenericCommand>:
	configASSERT( xTimer );
  405c4c:	b1d8      	cbz	r0, 405c86 <xTimerGenericCommand+0x3a>
{
  405c4e:	b530      	push	{r4, r5, lr}
  405c50:	b085      	sub	sp, #20
  405c52:	4615      	mov	r5, r2
  405c54:	4604      	mov	r4, r0
	if( xTimerQueue != NULL )
  405c56:	4a15      	ldr	r2, [pc, #84]	; (405cac <xTimerGenericCommand+0x60>)
  405c58:	6810      	ldr	r0, [r2, #0]
  405c5a:	b320      	cbz	r0, 405ca6 <xTimerGenericCommand+0x5a>
  405c5c:	461a      	mov	r2, r3
		xMessage.xMessageID = xCommandID;
  405c5e:	9100      	str	r1, [sp, #0]
		xMessage.u.xTimerParameters.xMessageValue = xOptionalValue;
  405c60:	9501      	str	r5, [sp, #4]
		xMessage.u.xTimerParameters.pxTimer = ( Timer_t * ) xTimer;
  405c62:	9402      	str	r4, [sp, #8]
		if( xCommandID < tmrFIRST_FROM_ISR_COMMAND )
  405c64:	2905      	cmp	r1, #5
  405c66:	dc19      	bgt.n	405c9c <xTimerGenericCommand+0x50>
			if( xTaskGetSchedulerState() == taskSCHEDULER_RUNNING )
  405c68:	4b11      	ldr	r3, [pc, #68]	; (405cb0 <xTimerGenericCommand+0x64>)
  405c6a:	4798      	blx	r3
  405c6c:	2802      	cmp	r0, #2
				xReturn = xQueueSendToBack( xTimerQueue, &xMessage, xTicksToWait );
  405c6e:	f04f 0300 	mov.w	r3, #0
  405c72:	bf0c      	ite	eq
  405c74:	9a08      	ldreq	r2, [sp, #32]
				xReturn = xQueueSendToBack( xTimerQueue, &xMessage, tmrNO_DELAY );
  405c76:	461a      	movne	r2, r3
  405c78:	4669      	mov	r1, sp
  405c7a:	480c      	ldr	r0, [pc, #48]	; (405cac <xTimerGenericCommand+0x60>)
  405c7c:	6800      	ldr	r0, [r0, #0]
  405c7e:	4c0d      	ldr	r4, [pc, #52]	; (405cb4 <xTimerGenericCommand+0x68>)
  405c80:	47a0      	blx	r4
}
  405c82:	b005      	add	sp, #20
  405c84:	bd30      	pop	{r4, r5, pc}
  405c86:	f04f 0380 	mov.w	r3, #128	; 0x80
  405c8a:	b672      	cpsid	i
  405c8c:	f383 8811 	msr	BASEPRI, r3
  405c90:	f3bf 8f6f 	isb	sy
  405c94:	f3bf 8f4f 	dsb	sy
  405c98:	b662      	cpsie	i
  405c9a:	e7fe      	b.n	405c9a <xTimerGenericCommand+0x4e>
			xReturn = xQueueSendToBackFromISR( xTimerQueue, &xMessage, pxHigherPriorityTaskWoken );
  405c9c:	2300      	movs	r3, #0
  405c9e:	4669      	mov	r1, sp
  405ca0:	4c05      	ldr	r4, [pc, #20]	; (405cb8 <xTimerGenericCommand+0x6c>)
  405ca2:	47a0      	blx	r4
  405ca4:	e7ed      	b.n	405c82 <xTimerGenericCommand+0x36>
BaseType_t xReturn = pdFAIL;
  405ca6:	2000      	movs	r0, #0
	return xReturn;
  405ca8:	e7eb      	b.n	405c82 <xTimerGenericCommand+0x36>
  405caa:	bf00      	nop
  405cac:	2040c3f8 	.word	0x2040c3f8
  405cb0:	00405989 	.word	0x00405989
  405cb4:	00404a19 	.word	0x00404a19
  405cb8:	00404bfd 	.word	0x00404bfd

00405cbc <prvSampleTimeNow>:
{
  405cbc:	e92d 47f0 	stmdb	sp!, {r4, r5, r6, r7, r8, r9, sl, lr}
  405cc0:	b082      	sub	sp, #8
  405cc2:	4680      	mov	r8, r0
	xTimeNow = xTaskGetTickCount();
  405cc4:	4b24      	ldr	r3, [pc, #144]	; (405d58 <prvSampleTimeNow+0x9c>)
  405cc6:	4798      	blx	r3
  405cc8:	4607      	mov	r7, r0
	if( xTimeNow < xLastTime )
  405cca:	4b24      	ldr	r3, [pc, #144]	; (405d5c <prvSampleTimeNow+0xa0>)
  405ccc:	681b      	ldr	r3, [r3, #0]
  405cce:	4298      	cmp	r0, r3
  405cd0:	d31b      	bcc.n	405d0a <prvSampleTimeNow+0x4e>
		*pxTimerListsWereSwitched = pdFALSE;
  405cd2:	2300      	movs	r3, #0
  405cd4:	f8c8 3000 	str.w	r3, [r8]
	xLastTime = xTimeNow;
  405cd8:	4b20      	ldr	r3, [pc, #128]	; (405d5c <prvSampleTimeNow+0xa0>)
  405cda:	601f      	str	r7, [r3, #0]
}
  405cdc:	4638      	mov	r0, r7
  405cde:	b002      	add	sp, #8
  405ce0:	e8bd 87f0 	ldmia.w	sp!, {r4, r5, r6, r7, r8, r9, sl, pc}
				xResult = xTimerGenericCommand( pxTimer, tmrCOMMAND_START_DONT_TRACE, xNextExpireTime, NULL, tmrNO_DELAY );
  405ce4:	2100      	movs	r1, #0
  405ce6:	9100      	str	r1, [sp, #0]
  405ce8:	460b      	mov	r3, r1
  405cea:	4652      	mov	r2, sl
  405cec:	4620      	mov	r0, r4
  405cee:	4c1c      	ldr	r4, [pc, #112]	; (405d60 <prvSampleTimeNow+0xa4>)
  405cf0:	47a0      	blx	r4
				configASSERT( xResult );
  405cf2:	b960      	cbnz	r0, 405d0e <prvSampleTimeNow+0x52>
  405cf4:	f04f 0380 	mov.w	r3, #128	; 0x80
  405cf8:	b672      	cpsid	i
  405cfa:	f383 8811 	msr	BASEPRI, r3
  405cfe:	f3bf 8f6f 	isb	sy
  405d02:	f3bf 8f4f 	dsb	sy
  405d06:	b662      	cpsie	i
  405d08:	e7fe      	b.n	405d08 <prvSampleTimeNow+0x4c>
	while( listLIST_IS_EMPTY( pxCurrentTimerList ) == pdFALSE )
  405d0a:	4d16      	ldr	r5, [pc, #88]	; (405d64 <prvSampleTimeNow+0xa8>)
		( void ) uxListRemove( &( pxTimer->xTimerListItem ) );
  405d0c:	4e16      	ldr	r6, [pc, #88]	; (405d68 <prvSampleTimeNow+0xac>)
	while( listLIST_IS_EMPTY( pxCurrentTimerList ) == pdFALSE )
  405d0e:	682b      	ldr	r3, [r5, #0]
  405d10:	681a      	ldr	r2, [r3, #0]
  405d12:	b1c2      	cbz	r2, 405d46 <prvSampleTimeNow+0x8a>
		xNextExpireTime = listGET_ITEM_VALUE_OF_HEAD_ENTRY( pxCurrentTimerList );
  405d14:	68db      	ldr	r3, [r3, #12]
  405d16:	f8d3 a000 	ldr.w	sl, [r3]
		pxTimer = ( Timer_t * ) listGET_OWNER_OF_HEAD_ENTRY( pxCurrentTimerList );
  405d1a:	68dc      	ldr	r4, [r3, #12]
		( void ) uxListRemove( &( pxTimer->xTimerListItem ) );
  405d1c:	f104 0904 	add.w	r9, r4, #4
  405d20:	4648      	mov	r0, r9
  405d22:	47b0      	blx	r6
		pxTimer->pxCallbackFunction( ( TimerHandle_t ) pxTimer );
  405d24:	6a63      	ldr	r3, [r4, #36]	; 0x24
  405d26:	4620      	mov	r0, r4
  405d28:	4798      	blx	r3
		if( pxTimer->uxAutoReload == ( UBaseType_t ) pdTRUE )
  405d2a:	69e3      	ldr	r3, [r4, #28]
  405d2c:	2b01      	cmp	r3, #1
  405d2e:	d1ee      	bne.n	405d0e <prvSampleTimeNow+0x52>
			xReloadTime = ( xNextExpireTime + pxTimer->xTimerPeriodInTicks );
  405d30:	69a3      	ldr	r3, [r4, #24]
  405d32:	4453      	add	r3, sl
			if( xReloadTime > xNextExpireTime )
  405d34:	459a      	cmp	sl, r3
  405d36:	d2d5      	bcs.n	405ce4 <prvSampleTimeNow+0x28>
				listSET_LIST_ITEM_VALUE( &( pxTimer->xTimerListItem ), xReloadTime );
  405d38:	6063      	str	r3, [r4, #4]
				listSET_LIST_ITEM_OWNER( &( pxTimer->xTimerListItem ), pxTimer );
  405d3a:	6124      	str	r4, [r4, #16]
				vListInsert( pxCurrentTimerList, &( pxTimer->xTimerListItem ) );
  405d3c:	4649      	mov	r1, r9
  405d3e:	6828      	ldr	r0, [r5, #0]
  405d40:	4b0a      	ldr	r3, [pc, #40]	; (405d6c <prvSampleTimeNow+0xb0>)
  405d42:	4798      	blx	r3
  405d44:	e7e3      	b.n	405d0e <prvSampleTimeNow+0x52>
	pxCurrentTimerList = pxOverflowTimerList;
  405d46:	4a0a      	ldr	r2, [pc, #40]	; (405d70 <prvSampleTimeNow+0xb4>)
  405d48:	6810      	ldr	r0, [r2, #0]
  405d4a:	4906      	ldr	r1, [pc, #24]	; (405d64 <prvSampleTimeNow+0xa8>)
  405d4c:	6008      	str	r0, [r1, #0]
	pxOverflowTimerList = pxTemp;
  405d4e:	6013      	str	r3, [r2, #0]
		*pxTimerListsWereSwitched = pdTRUE;
  405d50:	2301      	movs	r3, #1
  405d52:	f8c8 3000 	str.w	r3, [r8]
  405d56:	e7bf      	b.n	405cd8 <prvSampleTimeNow+0x1c>
  405d58:	004052ad 	.word	0x004052ad
  405d5c:	2040c3f4 	.word	0x2040c3f4
  405d60:	00405c4d 	.word	0x00405c4d
  405d64:	2040c3c4 	.word	0x2040c3c4
  405d68:	00404361 	.word	0x00404361
  405d6c:	0040432d 	.word	0x0040432d
  405d70:	2040c3c8 	.word	0x2040c3c8

00405d74 <prvTimerTask>:
{
  405d74:	e92d 47f0 	stmdb	sp!, {r4, r5, r6, r7, r8, r9, sl, lr}
  405d78:	b088      	sub	sp, #32
	*pxListWasEmpty = listLIST_IS_EMPTY( pxCurrentTimerList );
  405d7a:	4e75      	ldr	r6, [pc, #468]	; (405f50 <prvTimerTask+0x1dc>)
	vTaskSuspendAll();
  405d7c:	4f75      	ldr	r7, [pc, #468]	; (405f54 <prvTimerTask+0x1e0>)
					portYIELD_WITHIN_API();
  405d7e:	f8df 91fc 	ldr.w	r9, [pc, #508]	; 405f7c <prvTimerTask+0x208>
	( void ) uxListRemove( &( pxTimer->xTimerListItem ) );
  405d82:	f8df 81fc 	ldr.w	r8, [pc, #508]	; 405f80 <prvTimerTask+0x20c>
	*pxListWasEmpty = listLIST_IS_EMPTY( pxCurrentTimerList );
  405d86:	6833      	ldr	r3, [r6, #0]
	if( *pxListWasEmpty == pdFALSE )
  405d88:	681a      	ldr	r2, [r3, #0]
  405d8a:	2a00      	cmp	r2, #0
  405d8c:	f000 80ce 	beq.w	405f2c <prvTimerTask+0x1b8>
		xNextExpireTime = listGET_ITEM_VALUE_OF_HEAD_ENTRY( pxCurrentTimerList );
  405d90:	68db      	ldr	r3, [r3, #12]
  405d92:	681c      	ldr	r4, [r3, #0]
	vTaskSuspendAll();
  405d94:	47b8      	blx	r7
		xTimeNow = prvSampleTimeNow( &xTimerListsWereSwitched );
  405d96:	a804      	add	r0, sp, #16
  405d98:	4b6f      	ldr	r3, [pc, #444]	; (405f58 <prvTimerTask+0x1e4>)
  405d9a:	4798      	blx	r3
  405d9c:	4605      	mov	r5, r0
		if( xTimerListsWereSwitched == pdFALSE )
  405d9e:	9b04      	ldr	r3, [sp, #16]
  405da0:	2b00      	cmp	r3, #0
  405da2:	d144      	bne.n	405e2e <prvTimerTask+0xba>
			if( ( xListWasEmpty == pdFALSE ) && ( xNextExpireTime <= xTimeNow ) )
  405da4:	42a0      	cmp	r0, r4
  405da6:	d212      	bcs.n	405dce <prvTimerTask+0x5a>
  405da8:	2200      	movs	r2, #0
				vQueueWaitForMessageRestricted( xTimerQueue, ( xNextExpireTime - xTimeNow ), xListWasEmpty );
  405daa:	1b61      	subs	r1, r4, r5
  405dac:	4b6b      	ldr	r3, [pc, #428]	; (405f5c <prvTimerTask+0x1e8>)
  405dae:	6818      	ldr	r0, [r3, #0]
  405db0:	4b6b      	ldr	r3, [pc, #428]	; (405f60 <prvTimerTask+0x1ec>)
  405db2:	4798      	blx	r3
				if( xTaskResumeAll() == pdFALSE )
  405db4:	4b6b      	ldr	r3, [pc, #428]	; (405f64 <prvTimerTask+0x1f0>)
  405db6:	4798      	blx	r3
  405db8:	2800      	cmp	r0, #0
  405dba:	d13a      	bne.n	405e32 <prvTimerTask+0xbe>
					portYIELD_WITHIN_API();
  405dbc:	f04f 5380 	mov.w	r3, #268435456	; 0x10000000
  405dc0:	f8c9 3000 	str.w	r3, [r9]
  405dc4:	f3bf 8f4f 	dsb	sy
  405dc8:	f3bf 8f6f 	isb	sy
  405dcc:	e031      	b.n	405e32 <prvTimerTask+0xbe>
				( void ) xTaskResumeAll();
  405dce:	4b65      	ldr	r3, [pc, #404]	; (405f64 <prvTimerTask+0x1f0>)
  405dd0:	4798      	blx	r3
Timer_t * const pxTimer = ( Timer_t * ) listGET_OWNER_OF_HEAD_ENTRY( pxCurrentTimerList );
  405dd2:	6833      	ldr	r3, [r6, #0]
  405dd4:	68db      	ldr	r3, [r3, #12]
  405dd6:	f8d3 a00c 	ldr.w	sl, [r3, #12]
	( void ) uxListRemove( &( pxTimer->xTimerListItem ) );
  405dda:	f10a 0004 	add.w	r0, sl, #4
  405dde:	47c0      	blx	r8
	if( pxTimer->uxAutoReload == ( UBaseType_t ) pdTRUE )
  405de0:	f8da 301c 	ldr.w	r3, [sl, #28]
  405de4:	2b01      	cmp	r3, #1
  405de6:	d004      	beq.n	405df2 <prvTimerTask+0x7e>
	pxTimer->pxCallbackFunction( ( TimerHandle_t ) pxTimer );
  405de8:	f8da 3024 	ldr.w	r3, [sl, #36]	; 0x24
  405dec:	4650      	mov	r0, sl
  405dee:	4798      	blx	r3
  405df0:	e01f      	b.n	405e32 <prvTimerTask+0xbe>
		if( prvInsertTimerInActiveList( pxTimer, ( xNextExpireTime + pxTimer->xTimerPeriodInTicks ), xTimeNow, xNextExpireTime ) == pdTRUE )
  405df2:	f8da 1018 	ldr.w	r1, [sl, #24]
  405df6:	4623      	mov	r3, r4
  405df8:	462a      	mov	r2, r5
  405dfa:	4421      	add	r1, r4
  405dfc:	4650      	mov	r0, sl
  405dfe:	4d5a      	ldr	r5, [pc, #360]	; (405f68 <prvTimerTask+0x1f4>)
  405e00:	47a8      	blx	r5
  405e02:	2801      	cmp	r0, #1
  405e04:	d1f0      	bne.n	405de8 <prvTimerTask+0x74>
			xResult = xTimerGenericCommand( pxTimer, tmrCOMMAND_START_DONT_TRACE, xNextExpireTime, NULL, tmrNO_DELAY );
  405e06:	2100      	movs	r1, #0
  405e08:	9100      	str	r1, [sp, #0]
  405e0a:	460b      	mov	r3, r1
  405e0c:	4622      	mov	r2, r4
  405e0e:	4650      	mov	r0, sl
  405e10:	4c56      	ldr	r4, [pc, #344]	; (405f6c <prvTimerTask+0x1f8>)
  405e12:	47a0      	blx	r4
			configASSERT( xResult );
  405e14:	2800      	cmp	r0, #0
  405e16:	d1e7      	bne.n	405de8 <prvTimerTask+0x74>
  405e18:	f04f 0380 	mov.w	r3, #128	; 0x80
  405e1c:	b672      	cpsid	i
  405e1e:	f383 8811 	msr	BASEPRI, r3
  405e22:	f3bf 8f6f 	isb	sy
  405e26:	f3bf 8f4f 	dsb	sy
  405e2a:	b662      	cpsie	i
  405e2c:	e7fe      	b.n	405e2c <prvTimerTask+0xb8>
			( void ) xTaskResumeAll();
  405e2e:	4b4d      	ldr	r3, [pc, #308]	; (405f64 <prvTimerTask+0x1f0>)
  405e30:	4798      	blx	r3
	while( xQueueReceive( xTimerQueue, &xMessage, tmrNO_DELAY ) != pdFAIL ) /*lint !e603 xMessage does not have to be initialised as it is passed out, not in, and it is not used unless xQueueReceive() returns pdTRUE. */
  405e32:	4d4a      	ldr	r5, [pc, #296]	; (405f5c <prvTimerTask+0x1e8>)
  405e34:	4c4e      	ldr	r4, [pc, #312]	; (405f70 <prvTimerTask+0x1fc>)
  405e36:	e006      	b.n	405e46 <prvTimerTask+0xd2>
				pxCallback->pxCallbackFunction( pxCallback->pvParameter1, pxCallback->ulParameter2 );
  405e38:	9907      	ldr	r1, [sp, #28]
  405e3a:	9806      	ldr	r0, [sp, #24]
  405e3c:	9b05      	ldr	r3, [sp, #20]
  405e3e:	4798      	blx	r3
		if( xMessage.xMessageID >= ( BaseType_t ) 0 )
  405e40:	9b04      	ldr	r3, [sp, #16]
  405e42:	2b00      	cmp	r3, #0
  405e44:	da09      	bge.n	405e5a <prvTimerTask+0xe6>
	while( xQueueReceive( xTimerQueue, &xMessage, tmrNO_DELAY ) != pdFAIL ) /*lint !e603 xMessage does not have to be initialised as it is passed out, not in, and it is not used unless xQueueReceive() returns pdTRUE. */
  405e46:	2300      	movs	r3, #0
  405e48:	461a      	mov	r2, r3
  405e4a:	a904      	add	r1, sp, #16
  405e4c:	6828      	ldr	r0, [r5, #0]
  405e4e:	47a0      	blx	r4
  405e50:	2800      	cmp	r0, #0
  405e52:	d098      	beq.n	405d86 <prvTimerTask+0x12>
			if( xMessage.xMessageID < ( BaseType_t ) 0 )
  405e54:	9b04      	ldr	r3, [sp, #16]
  405e56:	2b00      	cmp	r3, #0
  405e58:	dbee      	blt.n	405e38 <prvTimerTask+0xc4>
			pxTimer = xMessage.u.xTimerParameters.pxTimer;
  405e5a:	f8dd a018 	ldr.w	sl, [sp, #24]
			if( listIS_CONTAINED_WITHIN( NULL, &( pxTimer->xTimerListItem ) ) == pdFALSE )
  405e5e:	f8da 3014 	ldr.w	r3, [sl, #20]
  405e62:	b113      	cbz	r3, 405e6a <prvTimerTask+0xf6>
				( void ) uxListRemove( &( pxTimer->xTimerListItem ) );
  405e64:	f10a 0004 	add.w	r0, sl, #4
  405e68:	47c0      	blx	r8
			xTimeNow = prvSampleTimeNow( &xTimerListsWereSwitched );
  405e6a:	a803      	add	r0, sp, #12
  405e6c:	4b3a      	ldr	r3, [pc, #232]	; (405f58 <prvTimerTask+0x1e4>)
  405e6e:	4798      	blx	r3
			switch( xMessage.xMessageID )
  405e70:	9b04      	ldr	r3, [sp, #16]
  405e72:	2b09      	cmp	r3, #9
  405e74:	d8e7      	bhi.n	405e46 <prvTimerTask+0xd2>
  405e76:	a201      	add	r2, pc, #4	; (adr r2, 405e7c <prvTimerTask+0x108>)
  405e78:	f852 f023 	ldr.w	pc, [r2, r3, lsl #2]
  405e7c:	00405ea5 	.word	0x00405ea5
  405e80:	00405ea5 	.word	0x00405ea5
  405e84:	00405ea5 	.word	0x00405ea5
  405e88:	00405e47 	.word	0x00405e47
  405e8c:	00405ef9 	.word	0x00405ef9
  405e90:	00405f25 	.word	0x00405f25
  405e94:	00405ea5 	.word	0x00405ea5
  405e98:	00405ea5 	.word	0x00405ea5
  405e9c:	00405e47 	.word	0x00405e47
  405ea0:	00405ef9 	.word	0x00405ef9
					if( prvInsertTimerInActiveList( pxTimer,  xMessage.u.xTimerParameters.xMessageValue + pxTimer->xTimerPeriodInTicks, xTimeNow, xMessage.u.xTimerParameters.xMessageValue ) == pdTRUE )
  405ea4:	9c05      	ldr	r4, [sp, #20]
  405ea6:	f8da 1018 	ldr.w	r1, [sl, #24]
  405eaa:	4623      	mov	r3, r4
  405eac:	4602      	mov	r2, r0
  405eae:	4421      	add	r1, r4
  405eb0:	4650      	mov	r0, sl
  405eb2:	4c2d      	ldr	r4, [pc, #180]	; (405f68 <prvTimerTask+0x1f4>)
  405eb4:	47a0      	blx	r4
  405eb6:	2801      	cmp	r0, #1
  405eb8:	d1bc      	bne.n	405e34 <prvTimerTask+0xc0>
						pxTimer->pxCallbackFunction( ( TimerHandle_t ) pxTimer );
  405eba:	f8da 3024 	ldr.w	r3, [sl, #36]	; 0x24
  405ebe:	4650      	mov	r0, sl
  405ec0:	4798      	blx	r3
						if( pxTimer->uxAutoReload == ( UBaseType_t ) pdTRUE )
  405ec2:	f8da 301c 	ldr.w	r3, [sl, #28]
  405ec6:	2b01      	cmp	r3, #1
  405ec8:	d1b4      	bne.n	405e34 <prvTimerTask+0xc0>
							xResult = xTimerGenericCommand( pxTimer, tmrCOMMAND_START_DONT_TRACE, xMessage.u.xTimerParameters.xMessageValue + pxTimer->xTimerPeriodInTicks, NULL, tmrNO_DELAY );
  405eca:	f8da 2018 	ldr.w	r2, [sl, #24]
  405ece:	2100      	movs	r1, #0
  405ed0:	9100      	str	r1, [sp, #0]
  405ed2:	460b      	mov	r3, r1
  405ed4:	9805      	ldr	r0, [sp, #20]
  405ed6:	4402      	add	r2, r0
  405ed8:	4650      	mov	r0, sl
  405eda:	4c24      	ldr	r4, [pc, #144]	; (405f6c <prvTimerTask+0x1f8>)
  405edc:	47a0      	blx	r4
							configASSERT( xResult );
  405ede:	2800      	cmp	r0, #0
  405ee0:	d1a8      	bne.n	405e34 <prvTimerTask+0xc0>
  405ee2:	f04f 0380 	mov.w	r3, #128	; 0x80
  405ee6:	b672      	cpsid	i
  405ee8:	f383 8811 	msr	BASEPRI, r3
  405eec:	f3bf 8f6f 	isb	sy
  405ef0:	f3bf 8f4f 	dsb	sy
  405ef4:	b662      	cpsie	i
  405ef6:	e7fe      	b.n	405ef6 <prvTimerTask+0x182>
					pxTimer->xTimerPeriodInTicks = xMessage.u.xTimerParameters.xMessageValue;
  405ef8:	9905      	ldr	r1, [sp, #20]
  405efa:	f8ca 1018 	str.w	r1, [sl, #24]
					configASSERT( ( pxTimer->xTimerPeriodInTicks > 0 ) );
  405efe:	b131      	cbz	r1, 405f0e <prvTimerTask+0x19a>
					( void ) prvInsertTimerInActiveList( pxTimer, ( xTimeNow + pxTimer->xTimerPeriodInTicks ), xTimeNow, xTimeNow );
  405f00:	4603      	mov	r3, r0
  405f02:	4602      	mov	r2, r0
  405f04:	4401      	add	r1, r0
  405f06:	4650      	mov	r0, sl
  405f08:	4c17      	ldr	r4, [pc, #92]	; (405f68 <prvTimerTask+0x1f4>)
  405f0a:	47a0      	blx	r4
  405f0c:	e792      	b.n	405e34 <prvTimerTask+0xc0>
  405f0e:	f04f 0380 	mov.w	r3, #128	; 0x80
  405f12:	b672      	cpsid	i
  405f14:	f383 8811 	msr	BASEPRI, r3
  405f18:	f3bf 8f6f 	isb	sy
  405f1c:	f3bf 8f4f 	dsb	sy
  405f20:	b662      	cpsie	i
  405f22:	e7fe      	b.n	405f22 <prvTimerTask+0x1ae>
					vPortFree( pxTimer );
  405f24:	4650      	mov	r0, sl
  405f26:	4b13      	ldr	r3, [pc, #76]	; (405f74 <prvTimerTask+0x200>)
  405f28:	4798      	blx	r3
  405f2a:	e783      	b.n	405e34 <prvTimerTask+0xc0>
	vTaskSuspendAll();
  405f2c:	47b8      	blx	r7
		xTimeNow = prvSampleTimeNow( &xTimerListsWereSwitched );
  405f2e:	a804      	add	r0, sp, #16
  405f30:	4b09      	ldr	r3, [pc, #36]	; (405f58 <prvTimerTask+0x1e4>)
  405f32:	4798      	blx	r3
  405f34:	4605      	mov	r5, r0
		if( xTimerListsWereSwitched == pdFALSE )
  405f36:	9b04      	ldr	r3, [sp, #16]
  405f38:	2b00      	cmp	r3, #0
  405f3a:	f47f af78 	bne.w	405e2e <prvTimerTask+0xba>
					xListWasEmpty = listLIST_IS_EMPTY( pxOverflowTimerList );
  405f3e:	4b0e      	ldr	r3, [pc, #56]	; (405f78 <prvTimerTask+0x204>)
  405f40:	681b      	ldr	r3, [r3, #0]
  405f42:	681a      	ldr	r2, [r3, #0]
  405f44:	fab2 f282 	clz	r2, r2
  405f48:	0952      	lsrs	r2, r2, #5
  405f4a:	2400      	movs	r4, #0
  405f4c:	e72d      	b.n	405daa <prvTimerTask+0x36>
  405f4e:	bf00      	nop
  405f50:	2040c3c4 	.word	0x2040c3c4
  405f54:	0040529d 	.word	0x0040529d
  405f58:	00405cbd 	.word	0x00405cbd
  405f5c:	2040c3f8 	.word	0x2040c3f8
  405f60:	00404f01 	.word	0x00404f01
  405f64:	00405405 	.word	0x00405405
  405f68:	00405b25 	.word	0x00405b25
  405f6c:	00405c4d 	.word	0x00405c4d
  405f70:	00404cfd 	.word	0x00404cfd
  405f74:	00404711 	.word	0x00404711
  405f78:	2040c3c8 	.word	0x2040c3c8
  405f7c:	e000ed04 	.word	0xe000ed04
  405f80:	00404361 	.word	0x00404361

00405f84 <_read>:
int __attribute__((weak))
_read (int file, char * ptr, int len); // Remove GCC compiler warning

int __attribute__((weak))
_read (int file, char * ptr, int len)
{
  405f84:	e92d 41f0 	stmdb	sp!, {r4, r5, r6, r7, r8, lr}
	int nChars = 0;

	if (file != 0) {
  405f88:	b980      	cbnz	r0, 405fac <_read+0x28>
  405f8a:	460c      	mov	r4, r1
  405f8c:	4690      	mov	r8, r2
		return -1;
	}

	for (; len > 0; --len) {
  405f8e:	2a00      	cmp	r2, #0
  405f90:	dd0f      	ble.n	405fb2 <_read+0x2e>
  405f92:	188f      	adds	r7, r1, r2
		ptr_get(stdio_base, ptr);
  405f94:	4e08      	ldr	r6, [pc, #32]	; (405fb8 <_read+0x34>)
  405f96:	4d09      	ldr	r5, [pc, #36]	; (405fbc <_read+0x38>)
  405f98:	6830      	ldr	r0, [r6, #0]
  405f9a:	4621      	mov	r1, r4
  405f9c:	682b      	ldr	r3, [r5, #0]
  405f9e:	4798      	blx	r3
		ptr++;
  405fa0:	3401      	adds	r4, #1
	for (; len > 0; --len) {
  405fa2:	42bc      	cmp	r4, r7
  405fa4:	d1f8      	bne.n	405f98 <_read+0x14>
		nChars++;
	}
	return nChars;
}
  405fa6:	4640      	mov	r0, r8
  405fa8:	e8bd 81f0 	ldmia.w	sp!, {r4, r5, r6, r7, r8, pc}
		return -1;
  405fac:	f04f 38ff 	mov.w	r8, #4294967295
  405fb0:	e7f9      	b.n	405fa6 <_read+0x22>
	for (; len > 0; --len) {
  405fb2:	4680      	mov	r8, r0
  405fb4:	e7f7      	b.n	405fa6 <_read+0x22>
  405fb6:	bf00      	nop
  405fb8:	2040c504 	.word	0x2040c504
  405fbc:	2040c4fc 	.word	0x2040c4fc

00405fc0 <_write>:
int __attribute__((weak))
_write (int file, const char *ptr, int len)
{
	int nChars = 0;

	if ((file != 1) && (file != 2) && (file!=3)) {
  405fc0:	3801      	subs	r0, #1
  405fc2:	2802      	cmp	r0, #2
  405fc4:	d815      	bhi.n	405ff2 <_write+0x32>
{
  405fc6:	e92d 41f0 	stmdb	sp!, {r4, r5, r6, r7, r8, lr}
  405fca:	460e      	mov	r6, r1
  405fcc:	4614      	mov	r4, r2
		return -1;
	}

	for (; len != 0; --len) {
  405fce:	b19a      	cbz	r2, 405ff8 <_write+0x38>
  405fd0:	460d      	mov	r5, r1
		if (ptr_put(stdio_base, *ptr++) < 0) {
  405fd2:	f8df 8038 	ldr.w	r8, [pc, #56]	; 40600c <_write+0x4c>
  405fd6:	4f0c      	ldr	r7, [pc, #48]	; (406008 <_write+0x48>)
  405fd8:	f8d8 0000 	ldr.w	r0, [r8]
  405fdc:	f815 1b01 	ldrb.w	r1, [r5], #1
  405fe0:	683b      	ldr	r3, [r7, #0]
  405fe2:	4798      	blx	r3
  405fe4:	2800      	cmp	r0, #0
  405fe6:	db0a      	blt.n	405ffe <_write+0x3e>
  405fe8:	1ba8      	subs	r0, r5, r6
	for (; len != 0; --len) {
  405fea:	3c01      	subs	r4, #1
  405fec:	d1f4      	bne.n	405fd8 <_write+0x18>
  405fee:	e8bd 81f0 	ldmia.w	sp!, {r4, r5, r6, r7, r8, pc}
		return -1;
  405ff2:	f04f 30ff 	mov.w	r0, #4294967295
  405ff6:	4770      	bx	lr
	for (; len != 0; --len) {
  405ff8:	4610      	mov	r0, r2
  405ffa:	e8bd 81f0 	ldmia.w	sp!, {r4, r5, r6, r7, r8, pc}
			return -1;
  405ffe:	f04f 30ff 	mov.w	r0, #4294967295
		}
		++nChars;
	}
	return nChars;
}
  406002:	e8bd 81f0 	ldmia.w	sp!, {r4, r5, r6, r7, r8, pc}
  406006:	bf00      	nop
  406008:	2040c500 	.word	0x2040c500
  40600c:	2040c504 	.word	0x2040c504

00406010 <uart_write>:
 * \retval 1 I/O Failure, UART is not ready.
 */
uint32_t uart_write(Uart *p_uart, const uint8_t uc_data)
{
	/* Check if the transmitter is ready */
	if (!(p_uart->UART_SR & UART_SR_TXRDY))
  406010:	6943      	ldr	r3, [r0, #20]
  406012:	f013 0f02 	tst.w	r3, #2
  406016:	d002      	beq.n	40601e <uart_write+0xe>
		return 1;

	/* Send character */
	p_uart->UART_THR = uc_data;
  406018:	61c1      	str	r1, [r0, #28]
	return 0;
  40601a:	2000      	movs	r0, #0
  40601c:	4770      	bx	lr
		return 1;
  40601e:	2001      	movs	r0, #1
}
  406020:	4770      	bx	lr

00406022 <uart_read>:
 * \retval 1 I/O Failure, UART is not ready.
 */
uint32_t uart_read(Uart *p_uart, uint8_t *puc_data)
{
	/* Check if the receiver is ready */
	if ((p_uart->UART_SR & UART_SR_RXRDY) == 0)
  406022:	6943      	ldr	r3, [r0, #20]
  406024:	f013 0f01 	tst.w	r3, #1
  406028:	d003      	beq.n	406032 <uart_read+0x10>
		return 1;

	/* Read character */
	*puc_data = (uint8_t) p_uart->UART_RHR;
  40602a:	6983      	ldr	r3, [r0, #24]
  40602c:	700b      	strb	r3, [r1, #0]
	return 0;
  40602e:	2000      	movs	r0, #0
  406030:	4770      	bx	lr
		return 1;
  406032:	2001      	movs	r0, #1
}
  406034:	4770      	bx	lr

00406036 <usart_set_async_baudrate>:
 * \retval 1 Baud rate set point is out of range for the given input clock
 * frequency.
 */
uint32_t usart_set_async_baudrate(Usart *p_usart,
		uint32_t baudrate, uint32_t ul_mck)
{
  406036:	b410      	push	{r4}
	uint32_t cd_fp;
	uint32_t cd;
	uint32_t fp;

	/* Calculate the receiver sampling divide of baudrate clock. */
	if (ul_mck >= HIGH_FRQ_SAMPLE_DIV * baudrate) {
  406038:	010b      	lsls	r3, r1, #4
  40603a:	4293      	cmp	r3, r2
  40603c:	d914      	bls.n	406068 <usart_set_async_baudrate+0x32>
	} else {
		over = LOW_FRQ_SAMPLE_DIV;
	}

	/* Calculate clock divider according to the fraction calculated formula. */
	cd_fp = (8 * ul_mck + (over * baudrate) / 2) / (over * baudrate);
  40603e:	00c9      	lsls	r1, r1, #3
  406040:	084b      	lsrs	r3, r1, #1
  406042:	eb03 02c2 	add.w	r2, r3, r2, lsl #3
  406046:	fbb2 f2f1 	udiv	r2, r2, r1
	cd = cd_fp >> 3;
  40604a:	08d3      	lsrs	r3, r2, #3
	fp = cd_fp & 0x07;
	if (cd < MIN_CD_VALUE || cd > MAX_CD_VALUE) {
  40604c:	1e5c      	subs	r4, r3, #1
  40604e:	f64f 71fe 	movw	r1, #65534	; 0xfffe
  406052:	428c      	cmp	r4, r1
  406054:	d901      	bls.n	40605a <usart_set_async_baudrate+0x24>
		return 1;
  406056:	2001      	movs	r0, #1
  406058:	e017      	b.n	40608a <usart_set_async_baudrate+0x54>
	}

	/* Configure the OVER bit in MR register. */
	if (over == 8) {
		p_usart->US_MR |= US_MR_OVER;
  40605a:	6841      	ldr	r1, [r0, #4]
  40605c:	f441 2100 	orr.w	r1, r1, #524288	; 0x80000
  406060:	6041      	str	r1, [r0, #4]
  406062:	e00c      	b.n	40607e <usart_set_async_baudrate+0x48>
		return 1;
  406064:	2001      	movs	r0, #1
  406066:	e010      	b.n	40608a <usart_set_async_baudrate+0x54>
	cd_fp = (8 * ul_mck + (over * baudrate) / 2) / (over * baudrate);
  406068:	0859      	lsrs	r1, r3, #1
  40606a:	eb01 02c2 	add.w	r2, r1, r2, lsl #3
  40606e:	fbb2 f2f3 	udiv	r2, r2, r3
	cd = cd_fp >> 3;
  406072:	08d3      	lsrs	r3, r2, #3
	if (cd < MIN_CD_VALUE || cd > MAX_CD_VALUE) {
  406074:	1e5c      	subs	r4, r3, #1
  406076:	f64f 71fe 	movw	r1, #65534	; 0xfffe
  40607a:	428c      	cmp	r4, r1
  40607c:	d8f2      	bhi.n	406064 <usart_set_async_baudrate+0x2e>
	}

	/* Configure the baudrate generate register. */
	p_usart->US_BRGR = (cd << US_BRGR_CD_Pos) | (fp << US_BRGR_FP_Pos);
  40607e:	0412      	lsls	r2, r2, #16
  406080:	f402 22e0 	and.w	r2, r2, #458752	; 0x70000
  406084:	431a      	orrs	r2, r3
  406086:	6202      	str	r2, [r0, #32]

	return 0;
  406088:	2000      	movs	r0, #0
}
  40608a:	f85d 4b04 	ldr.w	r4, [sp], #4
  40608e:	4770      	bx	lr

00406090 <usart_reset>:
 *
 * \param p_usart Pointer to a USART instance.
 */
void usart_disable_writeprotect(Usart *p_usart)
{
	p_usart->US_WPMR = US_WPMR_WPKEY_PASSWD;
  406090:	4b08      	ldr	r3, [pc, #32]	; (4060b4 <usart_reset+0x24>)
  406092:	f8c0 30e4 	str.w	r3, [r0, #228]	; 0xe4
	p_usart->US_MR = 0;
  406096:	2300      	movs	r3, #0
  406098:	6043      	str	r3, [r0, #4]
	p_usart->US_RTOR = 0;
  40609a:	6243      	str	r3, [r0, #36]	; 0x24
	p_usart->US_TTGR = 0;
  40609c:	6283      	str	r3, [r0, #40]	; 0x28
	p_usart->US_CR = US_CR_RSTTX | US_CR_TXDIS;
  40609e:	2388      	movs	r3, #136	; 0x88
  4060a0:	6003      	str	r3, [r0, #0]
	p_usart->US_CR = US_CR_RSTRX | US_CR_RXDIS;
  4060a2:	2324      	movs	r3, #36	; 0x24
  4060a4:	6003      	str	r3, [r0, #0]
	p_usart->US_CR = US_CR_RSTSTA;
  4060a6:	f44f 7380 	mov.w	r3, #256	; 0x100
  4060aa:	6003      	str	r3, [r0, #0]
	p_usart->US_CR = US_CR_RTSDIS;
  4060ac:	f44f 2300 	mov.w	r3, #524288	; 0x80000
  4060b0:	6003      	str	r3, [r0, #0]
  4060b2:	4770      	bx	lr
  4060b4:	55534100 	.word	0x55534100

004060b8 <usart_init_rs232>:
{
  4060b8:	b570      	push	{r4, r5, r6, lr}
  4060ba:	4605      	mov	r5, r0
  4060bc:	460c      	mov	r4, r1
  4060be:	4616      	mov	r6, r2
	usart_reset(p_usart);
  4060c0:	4b0f      	ldr	r3, [pc, #60]	; (406100 <usart_init_rs232+0x48>)
  4060c2:	4798      	blx	r3
	ul_reg_val = 0;
  4060c4:	2200      	movs	r2, #0
  4060c6:	4b0f      	ldr	r3, [pc, #60]	; (406104 <usart_init_rs232+0x4c>)
  4060c8:	601a      	str	r2, [r3, #0]
	if (!p_usart_opt || usart_set_async_baudrate(p_usart,
  4060ca:	b1a4      	cbz	r4, 4060f6 <usart_init_rs232+0x3e>
  4060cc:	4632      	mov	r2, r6
  4060ce:	6821      	ldr	r1, [r4, #0]
  4060d0:	4628      	mov	r0, r5
  4060d2:	4b0d      	ldr	r3, [pc, #52]	; (406108 <usart_init_rs232+0x50>)
  4060d4:	4798      	blx	r3
  4060d6:	4602      	mov	r2, r0
  4060d8:	b978      	cbnz	r0, 4060fa <usart_init_rs232+0x42>
	ul_reg_val |= p_usart_opt->char_length | p_usart_opt->parity_type |
  4060da:	6863      	ldr	r3, [r4, #4]
  4060dc:	68a1      	ldr	r1, [r4, #8]
  4060de:	430b      	orrs	r3, r1
  4060e0:	6921      	ldr	r1, [r4, #16]
  4060e2:	430b      	orrs	r3, r1
			p_usart_opt->channel_mode | p_usart_opt->stop_bits;
  4060e4:	68e1      	ldr	r1, [r4, #12]
  4060e6:	430b      	orrs	r3, r1
	ul_reg_val |= p_usart_opt->char_length | p_usart_opt->parity_type |
  4060e8:	4906      	ldr	r1, [pc, #24]	; (406104 <usart_init_rs232+0x4c>)
  4060ea:	600b      	str	r3, [r1, #0]
	p_usart->US_MR |= ul_reg_val;
  4060ec:	6869      	ldr	r1, [r5, #4]
  4060ee:	430b      	orrs	r3, r1
  4060f0:	606b      	str	r3, [r5, #4]
}
  4060f2:	4610      	mov	r0, r2
  4060f4:	bd70      	pop	{r4, r5, r6, pc}
		return 1;
  4060f6:	2201      	movs	r2, #1
  4060f8:	e7fb      	b.n	4060f2 <usart_init_rs232+0x3a>
  4060fa:	2201      	movs	r2, #1
  4060fc:	e7f9      	b.n	4060f2 <usart_init_rs232+0x3a>
  4060fe:	bf00      	nop
  406100:	00406091 	.word	0x00406091
  406104:	2040c3fc 	.word	0x2040c3fc
  406108:	00406037 	.word	0x00406037

0040610c <usart_enable_tx>:
	p_usart->US_CR = US_CR_TXEN;
  40610c:	2340      	movs	r3, #64	; 0x40
  40610e:	6003      	str	r3, [r0, #0]
  406110:	4770      	bx	lr

00406112 <usart_enable_rx>:
	p_usart->US_CR = US_CR_RXEN;
  406112:	2310      	movs	r3, #16
  406114:	6003      	str	r3, [r0, #0]
  406116:	4770      	bx	lr

00406118 <usart_write>:
	if (!(p_usart->US_CSR & US_CSR_TXRDY)) {
  406118:	6943      	ldr	r3, [r0, #20]
  40611a:	f013 0f02 	tst.w	r3, #2
  40611e:	d004      	beq.n	40612a <usart_write+0x12>
	p_usart->US_THR = US_THR_TXCHR(c);
  406120:	f3c1 0108 	ubfx	r1, r1, #0, #9
  406124:	61c1      	str	r1, [r0, #28]
	return 0;
  406126:	2000      	movs	r0, #0
  406128:	4770      	bx	lr
		return 1;
  40612a:	2001      	movs	r0, #1
}
  40612c:	4770      	bx	lr

0040612e <usart_read>:
	if (!(p_usart->US_CSR & US_CSR_RXRDY)) {
  40612e:	6943      	ldr	r3, [r0, #20]
  406130:	f013 0f01 	tst.w	r3, #1
  406134:	d005      	beq.n	406142 <usart_read+0x14>
	*c = p_usart->US_RHR & US_RHR_RXCHR_Msk;
  406136:	6983      	ldr	r3, [r0, #24]
  406138:	f3c3 0308 	ubfx	r3, r3, #0, #9
  40613c:	600b      	str	r3, [r1, #0]
	return 0;
  40613e:	2000      	movs	r0, #0
  406140:	4770      	bx	lr
		return 1;
  406142:	2001      	movs	r0, #1
}
  406144:	4770      	bx	lr
	...

00406148 <task_adc>:

	/* Selecina canal e inicializa convers?o */
	afec_channel_enable(AFEC0, AFEC_CHANNEL_TEMP_SENSOR);
}

void task_adc(void){
  406148:	b580      	push	{r7, lr}
  40614a:	b094      	sub	sp, #80	; 0x50
	xQueueAnalog = xQueueCreate( 10, sizeof( int32_t ) );
  40614c:	2200      	movs	r2, #0
  40614e:	2104      	movs	r1, #4
  406150:	200a      	movs	r0, #10
  406152:	4b3a      	ldr	r3, [pc, #232]	; (40623c <task_adc+0xf4>)
  406154:	4798      	blx	r3
  406156:	4b3a      	ldr	r3, [pc, #232]	; (406240 <task_adc+0xf8>)
  406158:	6018      	str	r0, [r3, #0]
	afec_enable(AFEC0);
  40615a:	4c3a      	ldr	r4, [pc, #232]	; (406244 <task_adc+0xfc>)
  40615c:	4620      	mov	r0, r4
  40615e:	4b3a      	ldr	r3, [pc, #232]	; (406248 <task_adc+0x100>)
  406160:	4798      	blx	r3
	afec_get_config_defaults(&afec_cfg);
  406162:	a804      	add	r0, sp, #16
  406164:	4b39      	ldr	r3, [pc, #228]	; (40624c <task_adc+0x104>)
  406166:	4798      	blx	r3
	afec_init(AFEC0, &afec_cfg);
  406168:	a904      	add	r1, sp, #16
  40616a:	4620      	mov	r0, r4
  40616c:	4b38      	ldr	r3, [pc, #224]	; (406250 <task_adc+0x108>)
  40616e:	4798      	blx	r3
	reg = afec->AFEC_MR;
  406170:	6863      	ldr	r3, [r4, #4]
		reg &= ~(AFEC_MR_TRGSEL_Msk | AFEC_MR_TRGEN | AFEC_MR_FREERUN_ON);
  406172:	f023 038f 	bic.w	r3, r3, #143	; 0x8f
	afec->AFEC_MR = reg;
  406176:	6063      	str	r3, [r4, #4]
	afec_set_callback(AFEC0, AFEC_INTERRUPT_EOC_0,	AFEC_Temp_callback, 5);
  406178:	2305      	movs	r3, #5
  40617a:	4a36      	ldr	r2, [pc, #216]	; (406254 <task_adc+0x10c>)
  40617c:	2100      	movs	r1, #0
  40617e:	4620      	mov	r0, r4
  406180:	4d35      	ldr	r5, [pc, #212]	; (406258 <task_adc+0x110>)
  406182:	47a8      	blx	r5
	afec_ch_get_config_defaults(&afec_ch_cfg);
  406184:	a801      	add	r0, sp, #4
  406186:	4b35      	ldr	r3, [pc, #212]	; (40625c <task_adc+0x114>)
  406188:	4798      	blx	r3
	afec_ch_cfg.gain = AFEC_GAINVALUE_0;
  40618a:	2500      	movs	r5, #0
  40618c:	f88d 5005 	strb.w	r5, [sp, #5]
	afec_ch_set_config(AFEC0, AFEC_CHANNEL_TEMP_SENSOR, &afec_ch_cfg);
  406190:	aa01      	add	r2, sp, #4
  406192:	4629      	mov	r1, r5
  406194:	4620      	mov	r0, r4
  406196:	4b32      	ldr	r3, [pc, #200]	; (406260 <task_adc+0x118>)
  406198:	4798      	blx	r3
	afec->AFEC_CSELR = afec_ch;
  40619a:	6665      	str	r5, [r4, #100]	; 0x64
	afec->AFEC_COCR = (aoffset & AFEC_COCR_AOFF_Msk);
  40619c:	f44f 7300 	mov.w	r3, #512	; 0x200
  4061a0:	66e3      	str	r3, [r4, #108]	; 0x6c
	afec_temp_sensor_get_config_defaults(&afec_temp_sensor_cfg);
  4061a2:	a802      	add	r0, sp, #8
  4061a4:	4b2f      	ldr	r3, [pc, #188]	; (406264 <task_adc+0x11c>)
  4061a6:	4798      	blx	r3
	afec_temp_sensor_set_config(AFEC0, &afec_temp_sensor_cfg);
  4061a8:	a902      	add	r1, sp, #8
  4061aa:	4620      	mov	r0, r4
  4061ac:	4b2e      	ldr	r3, [pc, #184]	; (406268 <task_adc+0x120>)
  4061ae:	4798      	blx	r3
	afec->AFEC_CHER = (afec_ch == AFEC_CHANNEL_ALL) ?
  4061b0:	2301      	movs	r3, #1
  4061b2:	6163      	str	r3, [r4, #20]
	afec->AFEC_CR = AFEC_CR_START;
  4061b4:	2302      	movs	r3, #2
  4061b6:	6023      	str	r3, [r4, #0]
	config_ADC_TEMP();
	afec_start_software_conversion(AFEC0);
	int32_t adcVal;
	data d;
	int32_t tempVal;
	printf("\nentrou na task adc\n");
  4061b8:	482c      	ldr	r0, [pc, #176]	; (40626c <task_adc+0x124>)
  4061ba:	4b2d      	ldr	r3, [pc, #180]	; (406270 <task_adc+0x128>)
  4061bc:	4798      	blx	r3

	while (true) {
		
		if (xQueueReceive( xQueueAnalog, &(adcVal), ( TickType_t )  10 / portTICK_PERIOD_MS)) {
  4061be:	4f20      	ldr	r7, [pc, #128]	; (406240 <task_adc+0xf8>)
  4061c0:	4e2c      	ldr	r6, [pc, #176]	; (406274 <task_adc+0x12c>)
			data d = {D_TYPE_TEMP, convert_adc_to_temp(adcVal), 983019283};
  4061c2:	f8df 80c4 	ldr.w	r8, [pc, #196]	; 406288 <task_adc+0x140>
  4061c6:	e003      	b.n	4061d0 <task_adc+0x88>
			afec_start_software_conversion(AFEC0);
			xQueueSend( xQueueSDCard, &d, 0);

		}

		vTaskDelay(1000/portTICK_PERIOD_MS);
  4061c8:	f44f 707a 	mov.w	r0, #1000	; 0x3e8
  4061cc:	4b2a      	ldr	r3, [pc, #168]	; (406278 <task_adc+0x130>)
  4061ce:	4798      	blx	r3
		if (xQueueReceive( xQueueAnalog, &(adcVal), ( TickType_t )  10 / portTICK_PERIOD_MS)) {
  4061d0:	2300      	movs	r3, #0
  4061d2:	220a      	movs	r2, #10
  4061d4:	a913      	add	r1, sp, #76	; 0x4c
  4061d6:	6838      	ldr	r0, [r7, #0]
  4061d8:	47b0      	blx	r6
  4061da:	2800      	cmp	r0, #0
  4061dc:	d0f4      	beq.n	4061c8 <task_adc+0x80>
			data d = {D_TYPE_TEMP, convert_adc_to_temp(adcVal), 983019283};
  4061de:	ac04      	add	r4, sp, #16
  4061e0:	4d26      	ldr	r5, [pc, #152]	; (40627c <task_adc+0x134>)
  4061e2:	cd0f      	ldmia	r5!, {r0, r1, r2, r3}
  4061e4:	c40f      	stmia	r4!, {r0, r1, r2, r3}
  4061e6:	e895 0007 	ldmia.w	r5, {r0, r1, r2}
  4061ea:	c403      	stmia	r4!, {r0, r1}
  4061ec:	f824 2b02 	strh.w	r2, [r4], #2
  4061f0:	0c12      	lsrs	r2, r2, #16
  4061f2:	7022      	strb	r2, [r4, #0]
  4061f4:	2300      	movs	r3, #0
  4061f6:	f8cd 302b 	str.w	r3, [sp, #43]	; 0x2b
  4061fa:	f8cd 302f 	str.w	r3, [sp, #47]	; 0x2f
  4061fe:	f8cd 3033 	str.w	r3, [sp, #51]	; 0x33
  406202:	f8cd 3037 	str.w	r3, [sp, #55]	; 0x37
  406206:	f8cd 303b 	str.w	r3, [sp, #59]	; 0x3b
  40620a:	f8cd 303e 	str.w	r3, [sp, #62]	; 0x3e
	ul_vol = ADC_value * 100 / 4096;
  40620e:	2364      	movs	r3, #100	; 0x64
  406210:	9a13      	ldr	r2, [sp, #76]	; 0x4c
  406212:	fb03 f302 	mul.w	r3, r3, r2
  406216:	2b00      	cmp	r3, #0
  406218:	bfb8      	it	lt
  40621a:	f603 73ff 	addwlt	r3, r3, #4095	; 0xfff
  40621e:	131b      	asrs	r3, r3, #12
			data d = {D_TYPE_TEMP, convert_adc_to_temp(adcVal), 983019283};
  406220:	9311      	str	r3, [sp, #68]	; 0x44
  406222:	f8cd 8048 	str.w	r8, [sp, #72]	; 0x48
  406226:	2202      	movs	r2, #2
  406228:	4b06      	ldr	r3, [pc, #24]	; (406244 <task_adc+0xfc>)
  40622a:	601a      	str	r2, [r3, #0]
			xQueueSend( xQueueSDCard, &d, 0);
  40622c:	2300      	movs	r3, #0
  40622e:	461a      	mov	r2, r3
  406230:	a904      	add	r1, sp, #16
  406232:	4813      	ldr	r0, [pc, #76]	; (406280 <task_adc+0x138>)
  406234:	6800      	ldr	r0, [r0, #0]
  406236:	4c13      	ldr	r4, [pc, #76]	; (406284 <task_adc+0x13c>)
  406238:	47a0      	blx	r4
  40623a:	e7c5      	b.n	4061c8 <task_adc+0x80>
  40623c:	0040499d 	.word	0x0040499d
  406240:	2040c514 	.word	0x2040c514
  406244:	4003c000 	.word	0x4003c000
  406248:	0040168d 	.word	0x0040168d
  40624c:	004014bd 	.word	0x004014bd
  406250:	0040150d 	.word	0x0040150d
  406254:	0040628d 	.word	0x0040628d
  406258:	0040160d 	.word	0x0040160d
  40625c:	004014ed 	.word	0x004014ed
  406260:	00401479 	.word	0x00401479
  406264:	004014f7 	.word	0x004014f7
  406268:	004014a9 	.word	0x004014a9
  40626c:	00409f08 	.word	0x00409f08
  406270:	004068b5 	.word	0x004068b5
  406274:	00404cfd 	.word	0x00404cfd
  406278:	00405525 	.word	0x00405525
  40627c:	00409e1c 	.word	0x00409e1c
  406280:	2040c51c 	.word	0x2040c51c
  406284:	00404a19 	.word	0x00404a19
  406288:	3a97af13 	.word	0x3a97af13

0040628c <AFEC_Temp_callback>:
{
  40628c:	b510      	push	{r4, lr}
  40628e:	b082      	sub	sp, #8
	afec->AFEC_CSELR = afec_ch;
  406290:	4b06      	ldr	r3, [pc, #24]	; (4062ac <AFEC_Temp_callback+0x20>)
  406292:	2200      	movs	r2, #0
  406294:	665a      	str	r2, [r3, #100]	; 0x64
	return afec->AFEC_CDR;
  406296:	6e9b      	ldr	r3, [r3, #104]	; 0x68
	adcVal = afec_channel_get_value(AFEC0, AFEC_CHANNEL_TEMP_SENSOR);
  406298:	a902      	add	r1, sp, #8
  40629a:	f841 3d04 	str.w	r3, [r1, #-4]!
	xQueueSendFromISR( xQueueAnalog, &adcVal, 0);
  40629e:	4613      	mov	r3, r2
  4062a0:	4803      	ldr	r0, [pc, #12]	; (4062b0 <AFEC_Temp_callback+0x24>)
  4062a2:	6800      	ldr	r0, [r0, #0]
  4062a4:	4c03      	ldr	r4, [pc, #12]	; (4062b4 <AFEC_Temp_callback+0x28>)
  4062a6:	47a0      	blx	r4
}
  4062a8:	b002      	add	sp, #8
  4062aa:	bd10      	pop	{r4, pc}
  4062ac:	4003c000 	.word	0x4003c000
  4062b0:	2040c514 	.word	0x2040c514
  4062b4:	00404bfd 	.word	0x00404bfd

004062b8 <task_sd_card>:

	}
}
void task_sd_card(void){
  4062b8:	e92d 43f0 	stmdb	sp!, {r4, r5, r6, r7, r8, r9, lr}
  4062bc:	f5ad 7d29 	sub.w	sp, sp, #676	; 0x2a4
	//xQueueSDCard = xQueueCreate( 10, sizeof( int32_t ) );
	xQueueSDCard = xQueueCreate( 10, sizeof( data ) );
  4062c0:	2200      	movs	r2, #0
  4062c2:	213c      	movs	r1, #60	; 0x3c
  4062c4:	200a      	movs	r0, #10
  4062c6:	4b3d      	ldr	r3, [pc, #244]	; (4063bc <task_sd_card+0x104>)
  4062c8:	4798      	blx	r3
  4062ca:	4b3d      	ldr	r3, [pc, #244]	; (4063c0 <task_sd_card+0x108>)
  4062cc:	6018      	str	r0, [r3, #0]

	char test_file_name[] = "0:sd_mmc_test.txt";
	char analog_file_name[] = "0:analog.txt";
  4062ce:	4b3d      	ldr	r3, [pc, #244]	; (4063c4 <task_sd_card+0x10c>)
  4062d0:	aca4      	add	r4, sp, #656	; 0x290
  4062d2:	cb0f      	ldmia	r3, {r0, r1, r2, r3}
  4062d4:	c407      	stmia	r4!, {r0, r1, r2}
  4062d6:	7023      	strb	r3, [r4, #0]
	FATFS fs;
	FIL file_object;
	
	
	/* Initialize SD MMC stack */
	sd_mmc_init();
  4062d8:	4b3b      	ldr	r3, [pc, #236]	; (4063c8 <task_sd_card+0x110>)
  4062da:	4798      	blx	r3

	printf("\x0C\n\r-- SD/MMC/SDIO Card Example on FatFs --\n\r");
  4062dc:	483b      	ldr	r0, [pc, #236]	; (4063cc <task_sd_card+0x114>)
  4062de:	4c3c      	ldr	r4, [pc, #240]	; (4063d0 <task_sd_card+0x118>)
  4062e0:	47a0      	blx	r4
	printf("-- Compiled: %s %s --\n\r", __DATE__, __TIME__);
  4062e2:	4a3c      	ldr	r2, [pc, #240]	; (4063d4 <task_sd_card+0x11c>)
  4062e4:	493c      	ldr	r1, [pc, #240]	; (4063d8 <task_sd_card+0x120>)
  4062e6:	483d      	ldr	r0, [pc, #244]	; (4063dc <task_sd_card+0x124>)
  4062e8:	47a0      	blx	r4

	data d;

	while(true){
		
		printf("Please plug an SD, MMC or SDIO card in slot.\n\r");
  4062ea:	f8df 913c 	ldr.w	r9, [pc, #316]	; 406428 <task_sd_card+0x170>
  4062ee:	4627      	mov	r7, r4

		/* Wait card present and ready */
		do {
			status = sd_mmc_test_unit_ready(0);
  4062f0:	4e3b      	ldr	r6, [pc, #236]	; (4063e0 <task_sd_card+0x128>)
			if (CTRL_FAIL == status) {
				printf("Card install FAIL\n\r");
  4062f2:	f8df 8138 	ldr.w	r8, [pc, #312]	; 40642c <task_sd_card+0x174>
  4062f6:	e020      	b.n	40633a <task_sd_card+0x82>
  4062f8:	4640      	mov	r0, r8
  4062fa:	47b8      	blx	r7
				printf("Please unplug and re-plug the card.\n\r");
  4062fc:	4839      	ldr	r0, [pc, #228]	; (4063e4 <task_sd_card+0x12c>)
  4062fe:	47b8      	blx	r7
				while (CTRL_NO_PRESENT != sd_mmc_check(0)) {
  406300:	2500      	movs	r5, #0
  406302:	4c39      	ldr	r4, [pc, #228]	; (4063e8 <task_sd_card+0x130>)
  406304:	4628      	mov	r0, r5
  406306:	47a0      	blx	r4
  406308:	2802      	cmp	r0, #2
  40630a:	d1fb      	bne.n	406304 <task_sd_card+0x4c>
			status = sd_mmc_test_unit_ready(0);
  40630c:	2000      	movs	r0, #0
  40630e:	47b0      	blx	r6
			if (CTRL_FAIL == status) {
  406310:	2801      	cmp	r0, #1
  406312:	d0f1      	beq.n	4062f8 <task_sd_card+0x40>
				}
			}
		} while (CTRL_GOOD != status);
  406314:	2800      	cmp	r0, #0
  406316:	d1f9      	bne.n	40630c <task_sd_card+0x54>

		printf("Mount disk (f_mount)...\r\n");
  406318:	4834      	ldr	r0, [pc, #208]	; (4063ec <task_sd_card+0x134>)
  40631a:	47b8      	blx	r7
		memset(&fs, 0, sizeof(FATFS));
  40631c:	f44f 720c 	mov.w	r2, #560	; 0x230
  406320:	2100      	movs	r1, #0
  406322:	a818      	add	r0, sp, #96	; 0x60
  406324:	4b32      	ldr	r3, [pc, #200]	; (4063f0 <task_sd_card+0x138>)
  406326:	4798      	blx	r3
		res = f_mount(LUN_ID_SD_MMC_0_MEM, &fs);
  406328:	a918      	add	r1, sp, #96	; 0x60
  40632a:	2000      	movs	r0, #0
  40632c:	4b31      	ldr	r3, [pc, #196]	; (4063f4 <task_sd_card+0x13c>)
  40632e:	4798      	blx	r3
		if (FR_INVALID_DRIVE == res) {
  406330:	280b      	cmp	r0, #11
  406332:	d105      	bne.n	406340 <task_sd_card+0x88>
			printf("[FAIL] res %d\r\n", res);
  406334:	210b      	movs	r1, #11
  406336:	4830      	ldr	r0, [pc, #192]	; (4063f8 <task_sd_card+0x140>)
  406338:	47b8      	blx	r7
		printf("Please plug an SD, MMC or SDIO card in slot.\n\r");
  40633a:	4648      	mov	r0, r9
  40633c:	47b8      	blx	r7
  40633e:	e7e5      	b.n	40630c <task_sd_card+0x54>
			}else{
			printf("[Mounting SDCARD Successful]\r\n");
  406340:	482e      	ldr	r0, [pc, #184]	; (4063fc <task_sd_card+0x144>)
  406342:	4b23      	ldr	r3, [pc, #140]	; (4063d0 <task_sd_card+0x118>)
  406344:	4798      	blx	r3
			break;
		}
	}
	while (true) {
		
		printf("Opening/Creating a file (f_open)...\r\n");
  406346:	4f2e      	ldr	r7, [pc, #184]	; (406400 <task_sd_card+0x148>)
  406348:	4d21      	ldr	r5, [pc, #132]	; (4063d0 <task_sd_card+0x118>)
		analog_file_name[0] = LUN_ID_SD_MMC_0_MEM + '0';
		res = f_open(&file_object,
  40634a:	4e2e      	ldr	r6, [pc, #184]	; (406404 <task_sd_card+0x14c>)
			break;
  40634c:	e00b      	b.n	406366 <task_sd_card+0xae>
		(char const *)analog_file_name,
		FA_OPEN_EXISTING | FA_WRITE);
		if (res != FR_OK) {
			printf("[FAIL] res %d\r\n", res);
  40634e:	482a      	ldr	r0, [pc, #168]	; (4063f8 <task_sd_card+0x140>)
  406350:	47a8      	blx	r5
  406352:	e014      	b.n	40637e <task_sd_card+0xc6>
			if (0 == f_printf(&file_object, d.type, d.timestamp, d.value)) {
				f_close(&file_object);
				printf("[FAIL]\r\n");
			}

			printf("[OK]\r\n");
  406354:	482c      	ldr	r0, [pc, #176]	; (406408 <task_sd_card+0x150>)
  406356:	47a8      	blx	r5
			f_close(&file_object);
  406358:	a80f      	add	r0, sp, #60	; 0x3c
  40635a:	4b2c      	ldr	r3, [pc, #176]	; (40640c <task_sd_card+0x154>)
  40635c:	4798      	blx	r3
		}

		vTaskDelay(1000/portTICK_PERIOD_MS);
  40635e:	f44f 707a 	mov.w	r0, #1000	; 0x3e8
  406362:	4b2b      	ldr	r3, [pc, #172]	; (406410 <task_sd_card+0x158>)
  406364:	4798      	blx	r3
		printf("Opening/Creating a file (f_open)...\r\n");
  406366:	4638      	mov	r0, r7
  406368:	47a8      	blx	r5
		analog_file_name[0] = LUN_ID_SD_MMC_0_MEM + '0';
  40636a:	a9a8      	add	r1, sp, #672	; 0x2a0
  40636c:	2330      	movs	r3, #48	; 0x30
  40636e:	f801 3d10 	strb.w	r3, [r1, #-16]!
		res = f_open(&file_object,
  406372:	2202      	movs	r2, #2
  406374:	a80f      	add	r0, sp, #60	; 0x3c
  406376:	47b0      	blx	r6
		if (res != FR_OK) {
  406378:	4601      	mov	r1, r0
  40637a:	2800      	cmp	r0, #0
  40637c:	d1e7      	bne.n	40634e <task_sd_card+0x96>
		if (xQueueReceive( xQueueSDCard, &(d), ( TickType_t )  10 / portTICK_PERIOD_MS)) {
  40637e:	2300      	movs	r3, #0
  406380:	220a      	movs	r2, #10
  406382:	4669      	mov	r1, sp
  406384:	480e      	ldr	r0, [pc, #56]	; (4063c0 <task_sd_card+0x108>)
  406386:	6800      	ldr	r0, [r0, #0]
  406388:	4c22      	ldr	r4, [pc, #136]	; (406414 <task_sd_card+0x15c>)
  40638a:	47a0      	blx	r4
  40638c:	2800      	cmp	r0, #0
  40638e:	d0e6      	beq.n	40635e <task_sd_card+0xa6>
			printf("Chegou Temp Information: %d",d.value);
  406390:	990d      	ldr	r1, [sp, #52]	; 0x34
  406392:	4821      	ldr	r0, [pc, #132]	; (406418 <task_sd_card+0x160>)
  406394:	47a8      	blx	r5
			f_lseek( &file_object, file_object.fsize );
  406396:	9912      	ldr	r1, [sp, #72]	; 0x48
  406398:	a80f      	add	r0, sp, #60	; 0x3c
  40639a:	4b20      	ldr	r3, [pc, #128]	; (40641c <task_sd_card+0x164>)
  40639c:	4798      	blx	r3
			if (0 == f_printf(&file_object, d.type, d.timestamp, d.value)) {
  40639e:	9b0d      	ldr	r3, [sp, #52]	; 0x34
  4063a0:	9a0e      	ldr	r2, [sp, #56]	; 0x38
  4063a2:	4669      	mov	r1, sp
  4063a4:	a80f      	add	r0, sp, #60	; 0x3c
  4063a6:	4c1e      	ldr	r4, [pc, #120]	; (406420 <task_sd_card+0x168>)
  4063a8:	47a0      	blx	r4
  4063aa:	2800      	cmp	r0, #0
  4063ac:	d1d2      	bne.n	406354 <task_sd_card+0x9c>
				f_close(&file_object);
  4063ae:	a80f      	add	r0, sp, #60	; 0x3c
  4063b0:	4b16      	ldr	r3, [pc, #88]	; (40640c <task_sd_card+0x154>)
  4063b2:	4798      	blx	r3
				printf("[FAIL]\r\n");
  4063b4:	481b      	ldr	r0, [pc, #108]	; (406424 <task_sd_card+0x16c>)
  4063b6:	47a8      	blx	r5
  4063b8:	e7cc      	b.n	406354 <task_sd_card+0x9c>
  4063ba:	bf00      	nop
  4063bc:	0040499d 	.word	0x0040499d
  4063c0:	2040c51c 	.word	0x2040c51c
  4063c4:	0040a090 	.word	0x0040a090
  4063c8:	00400385 	.word	0x00400385
  4063cc:	00409f20 	.word	0x00409f20
  4063d0:	004068b5 	.word	0x004068b5
  4063d4:	00409f50 	.word	0x00409f50
  4063d8:	00409f5c 	.word	0x00409f5c
  4063dc:	00409f68 	.word	0x00409f68
  4063e0:	00400efd 	.word	0x00400efd
  4063e4:	00409fc4 	.word	0x00409fc4
  4063e8:	004003b1 	.word	0x004003b1
  4063ec:	00409fec 	.word	0x00409fec
  4063f0:	00406a11 	.word	0x00406a11
  4063f4:	0040395d 	.word	0x0040395d
  4063f8:	0040a008 	.word	0x0040a008
  4063fc:	0040a018 	.word	0x0040a018
  406400:	0040a038 	.word	0x0040a038
  406404:	00403985 	.word	0x00403985
  406408:	0040a088 	.word	0x0040a088
  40640c:	00403dbd 	.word	0x00403dbd
  406410:	00405525 	.word	0x00405525
  406414:	00404cfd 	.word	0x00404cfd
  406418:	0040a060 	.word	0x0040a060
  40641c:	00403dd5 	.word	0x00403dd5
  406420:	00403f8d 	.word	0x00403f8d
  406424:	0040a07c 	.word	0x0040a07c
  406428:	00409f80 	.word	0x00409f80
  40642c:	00409fb0 	.word	0x00409fb0

00406430 <usart_serial_getchar>:
 * \param p_usart   Base address of the USART instance.
 * \param data   Data to read
 *
 */
static inline void usart_serial_getchar(usart_if p_usart, uint8_t *data)
{
  406430:	b5f0      	push	{r4, r5, r6, r7, lr}
  406432:	b083      	sub	sp, #12
  406434:	4605      	mov	r5, r0
  406436:	460c      	mov	r4, r1
	uint32_t val = 0;
  406438:	2300      	movs	r3, #0
  40643a:	9301      	str	r3, [sp, #4]
	if (UART == (Uart*)p_usart) {
		while (uart_read((Uart*)p_usart, data));
	}
#else
# ifdef UART0
	if (UART0 == (Uart*)p_usart) {
  40643c:	4b2a      	ldr	r3, [pc, #168]	; (4064e8 <usart_serial_getchar+0xb8>)
  40643e:	4298      	cmp	r0, r3
  406440:	d013      	beq.n	40646a <usart_serial_getchar+0x3a>
		while (uart_read((Uart*)p_usart, data));
	}
# endif
# ifdef UART1
	if (UART1 == (Uart*)p_usart) {
  406442:	4b2a      	ldr	r3, [pc, #168]	; (4064ec <usart_serial_getchar+0xbc>)
  406444:	4298      	cmp	r0, r3
  406446:	d018      	beq.n	40647a <usart_serial_getchar+0x4a>
		while (uart_read((Uart*)p_usart, data));
	}
# endif
# ifdef UART2
	if (UART2 == (Uart*)p_usart) {
  406448:	4b29      	ldr	r3, [pc, #164]	; (4064f0 <usart_serial_getchar+0xc0>)
  40644a:	4298      	cmp	r0, r3
  40644c:	d01d      	beq.n	40648a <usart_serial_getchar+0x5a>
		while (uart_read((Uart*)p_usart, data));
	}
# endif
# ifdef UART3
	if (UART3 == (Uart*)p_usart) {
  40644e:	4b29      	ldr	r3, [pc, #164]	; (4064f4 <usart_serial_getchar+0xc4>)
  406450:	429d      	cmp	r5, r3
  406452:	d022      	beq.n	40649a <usart_serial_getchar+0x6a>
		while (usart_read(p_usart, &val));
		*data = (uint8_t)(val & 0xFF);
	}
#else
# ifdef USART0
	if (USART0 == p_usart) {
  406454:	4b28      	ldr	r3, [pc, #160]	; (4064f8 <usart_serial_getchar+0xc8>)
  406456:	429d      	cmp	r5, r3
  406458:	d027      	beq.n	4064aa <usart_serial_getchar+0x7a>
		while (usart_read(p_usart, &val));
		*data = (uint8_t)(val & 0xFF);
	}
# endif
# ifdef USART1
	if (USART1 == p_usart) {
  40645a:	4b28      	ldr	r3, [pc, #160]	; (4064fc <usart_serial_getchar+0xcc>)
  40645c:	429d      	cmp	r5, r3
  40645e:	d02e      	beq.n	4064be <usart_serial_getchar+0x8e>
		while (usart_read(p_usart, &val));
		*data = (uint8_t)(val & 0xFF);
	}
# endif
# ifdef USART2
	if (USART2 == p_usart) {
  406460:	4b27      	ldr	r3, [pc, #156]	; (406500 <usart_serial_getchar+0xd0>)
  406462:	429d      	cmp	r5, r3
  406464:	d035      	beq.n	4064d2 <usart_serial_getchar+0xa2>
		*data = (uint8_t)(val & 0xFF);
	}
# endif
#endif /* ifdef USART */

}
  406466:	b003      	add	sp, #12
  406468:	bdf0      	pop	{r4, r5, r6, r7, pc}
		while (uart_read((Uart*)p_usart, data));
  40646a:	461f      	mov	r7, r3
  40646c:	4e25      	ldr	r6, [pc, #148]	; (406504 <usart_serial_getchar+0xd4>)
  40646e:	4621      	mov	r1, r4
  406470:	4638      	mov	r0, r7
  406472:	47b0      	blx	r6
  406474:	2800      	cmp	r0, #0
  406476:	d1fa      	bne.n	40646e <usart_serial_getchar+0x3e>
  406478:	e7e9      	b.n	40644e <usart_serial_getchar+0x1e>
		while (uart_read((Uart*)p_usart, data));
  40647a:	461f      	mov	r7, r3
  40647c:	4e21      	ldr	r6, [pc, #132]	; (406504 <usart_serial_getchar+0xd4>)
  40647e:	4621      	mov	r1, r4
  406480:	4638      	mov	r0, r7
  406482:	47b0      	blx	r6
  406484:	2800      	cmp	r0, #0
  406486:	d1fa      	bne.n	40647e <usart_serial_getchar+0x4e>
  406488:	e7e4      	b.n	406454 <usart_serial_getchar+0x24>
		while (uart_read((Uart*)p_usart, data));
  40648a:	461f      	mov	r7, r3
  40648c:	4e1d      	ldr	r6, [pc, #116]	; (406504 <usart_serial_getchar+0xd4>)
  40648e:	4621      	mov	r1, r4
  406490:	4638      	mov	r0, r7
  406492:	47b0      	blx	r6
  406494:	2800      	cmp	r0, #0
  406496:	d1fa      	bne.n	40648e <usart_serial_getchar+0x5e>
  406498:	e7df      	b.n	40645a <usart_serial_getchar+0x2a>
		while (uart_read((Uart*)p_usart, data));
  40649a:	461f      	mov	r7, r3
  40649c:	4e19      	ldr	r6, [pc, #100]	; (406504 <usart_serial_getchar+0xd4>)
  40649e:	4621      	mov	r1, r4
  4064a0:	4638      	mov	r0, r7
  4064a2:	47b0      	blx	r6
  4064a4:	2800      	cmp	r0, #0
  4064a6:	d1fa      	bne.n	40649e <usart_serial_getchar+0x6e>
  4064a8:	e7da      	b.n	406460 <usart_serial_getchar+0x30>
		while (usart_read(p_usart, &val));
  4064aa:	461e      	mov	r6, r3
  4064ac:	4d16      	ldr	r5, [pc, #88]	; (406508 <usart_serial_getchar+0xd8>)
  4064ae:	a901      	add	r1, sp, #4
  4064b0:	4630      	mov	r0, r6
  4064b2:	47a8      	blx	r5
  4064b4:	2800      	cmp	r0, #0
  4064b6:	d1fa      	bne.n	4064ae <usart_serial_getchar+0x7e>
		*data = (uint8_t)(val & 0xFF);
  4064b8:	9b01      	ldr	r3, [sp, #4]
  4064ba:	7023      	strb	r3, [r4, #0]
  4064bc:	e7d3      	b.n	406466 <usart_serial_getchar+0x36>
		while (usart_read(p_usart, &val));
  4064be:	461e      	mov	r6, r3
  4064c0:	4d11      	ldr	r5, [pc, #68]	; (406508 <usart_serial_getchar+0xd8>)
  4064c2:	a901      	add	r1, sp, #4
  4064c4:	4630      	mov	r0, r6
  4064c6:	47a8      	blx	r5
  4064c8:	2800      	cmp	r0, #0
  4064ca:	d1fa      	bne.n	4064c2 <usart_serial_getchar+0x92>
		*data = (uint8_t)(val & 0xFF);
  4064cc:	9b01      	ldr	r3, [sp, #4]
  4064ce:	7023      	strb	r3, [r4, #0]
  4064d0:	e7c9      	b.n	406466 <usart_serial_getchar+0x36>
		while (usart_read(p_usart, &val));
  4064d2:	461e      	mov	r6, r3
  4064d4:	4d0c      	ldr	r5, [pc, #48]	; (406508 <usart_serial_getchar+0xd8>)
  4064d6:	a901      	add	r1, sp, #4
  4064d8:	4630      	mov	r0, r6
  4064da:	47a8      	blx	r5
  4064dc:	2800      	cmp	r0, #0
  4064de:	d1fa      	bne.n	4064d6 <usart_serial_getchar+0xa6>
		*data = (uint8_t)(val & 0xFF);
  4064e0:	9b01      	ldr	r3, [sp, #4]
  4064e2:	7023      	strb	r3, [r4, #0]
}
  4064e4:	e7bf      	b.n	406466 <usart_serial_getchar+0x36>
  4064e6:	bf00      	nop
  4064e8:	400e0800 	.word	0x400e0800
  4064ec:	400e0a00 	.word	0x400e0a00
  4064f0:	400e1a00 	.word	0x400e1a00
  4064f4:	400e1c00 	.word	0x400e1c00
  4064f8:	40024000 	.word	0x40024000
  4064fc:	40028000 	.word	0x40028000
  406500:	4002c000 	.word	0x4002c000
  406504:	00406023 	.word	0x00406023
  406508:	0040612f 	.word	0x0040612f

0040650c <usart_serial_putchar>:
{
  40650c:	b570      	push	{r4, r5, r6, lr}
  40650e:	460c      	mov	r4, r1
	if (UART0 == (Uart*)p_usart) {
  406510:	4b2a      	ldr	r3, [pc, #168]	; (4065bc <usart_serial_putchar+0xb0>)
  406512:	4298      	cmp	r0, r3
  406514:	d013      	beq.n	40653e <usart_serial_putchar+0x32>
	if (UART1 == (Uart*)p_usart) {
  406516:	4b2a      	ldr	r3, [pc, #168]	; (4065c0 <usart_serial_putchar+0xb4>)
  406518:	4298      	cmp	r0, r3
  40651a:	d019      	beq.n	406550 <usart_serial_putchar+0x44>
	if (UART2 == (Uart*)p_usart) {
  40651c:	4b29      	ldr	r3, [pc, #164]	; (4065c4 <usart_serial_putchar+0xb8>)
  40651e:	4298      	cmp	r0, r3
  406520:	d01f      	beq.n	406562 <usart_serial_putchar+0x56>
	if (UART3 == (Uart*)p_usart) {
  406522:	4b29      	ldr	r3, [pc, #164]	; (4065c8 <usart_serial_putchar+0xbc>)
  406524:	4298      	cmp	r0, r3
  406526:	d025      	beq.n	406574 <usart_serial_putchar+0x68>
	if (USART0 == p_usart) {
  406528:	4b28      	ldr	r3, [pc, #160]	; (4065cc <usart_serial_putchar+0xc0>)
  40652a:	4298      	cmp	r0, r3
  40652c:	d02b      	beq.n	406586 <usart_serial_putchar+0x7a>
	if (USART1 == p_usart) {
  40652e:	4b28      	ldr	r3, [pc, #160]	; (4065d0 <usart_serial_putchar+0xc4>)
  406530:	4298      	cmp	r0, r3
  406532:	d031      	beq.n	406598 <usart_serial_putchar+0x8c>
	if (USART2 == p_usart) {
  406534:	4b27      	ldr	r3, [pc, #156]	; (4065d4 <usart_serial_putchar+0xc8>)
  406536:	4298      	cmp	r0, r3
  406538:	d037      	beq.n	4065aa <usart_serial_putchar+0x9e>
	return 0;
  40653a:	2000      	movs	r0, #0
}
  40653c:	bd70      	pop	{r4, r5, r6, pc}
		while (uart_write((Uart*)p_usart, c)!=0);
  40653e:	461e      	mov	r6, r3
  406540:	4d25      	ldr	r5, [pc, #148]	; (4065d8 <usart_serial_putchar+0xcc>)
  406542:	4621      	mov	r1, r4
  406544:	4630      	mov	r0, r6
  406546:	47a8      	blx	r5
  406548:	2800      	cmp	r0, #0
  40654a:	d1fa      	bne.n	406542 <usart_serial_putchar+0x36>
		return 1;
  40654c:	2001      	movs	r0, #1
  40654e:	bd70      	pop	{r4, r5, r6, pc}
		while (uart_write((Uart*)p_usart, c)!=0);
  406550:	461e      	mov	r6, r3
  406552:	4d21      	ldr	r5, [pc, #132]	; (4065d8 <usart_serial_putchar+0xcc>)
  406554:	4621      	mov	r1, r4
  406556:	4630      	mov	r0, r6
  406558:	47a8      	blx	r5
  40655a:	2800      	cmp	r0, #0
  40655c:	d1fa      	bne.n	406554 <usart_serial_putchar+0x48>
		return 1;
  40655e:	2001      	movs	r0, #1
  406560:	bd70      	pop	{r4, r5, r6, pc}
		while (uart_write((Uart*)p_usart, c)!=0);
  406562:	461e      	mov	r6, r3
  406564:	4d1c      	ldr	r5, [pc, #112]	; (4065d8 <usart_serial_putchar+0xcc>)
  406566:	4621      	mov	r1, r4
  406568:	4630      	mov	r0, r6
  40656a:	47a8      	blx	r5
  40656c:	2800      	cmp	r0, #0
  40656e:	d1fa      	bne.n	406566 <usart_serial_putchar+0x5a>
		return 1;
  406570:	2001      	movs	r0, #1
  406572:	bd70      	pop	{r4, r5, r6, pc}
		while (uart_write((Uart*)p_usart, c)!=0);
  406574:	461e      	mov	r6, r3
  406576:	4d18      	ldr	r5, [pc, #96]	; (4065d8 <usart_serial_putchar+0xcc>)
  406578:	4621      	mov	r1, r4
  40657a:	4630      	mov	r0, r6
  40657c:	47a8      	blx	r5
  40657e:	2800      	cmp	r0, #0
  406580:	d1fa      	bne.n	406578 <usart_serial_putchar+0x6c>
		return 1;
  406582:	2001      	movs	r0, #1
  406584:	bd70      	pop	{r4, r5, r6, pc}
		while (usart_write(p_usart, c)!=0);
  406586:	461e      	mov	r6, r3
  406588:	4d14      	ldr	r5, [pc, #80]	; (4065dc <usart_serial_putchar+0xd0>)
  40658a:	4621      	mov	r1, r4
  40658c:	4630      	mov	r0, r6
  40658e:	47a8      	blx	r5
  406590:	2800      	cmp	r0, #0
  406592:	d1fa      	bne.n	40658a <usart_serial_putchar+0x7e>
		return 1;
  406594:	2001      	movs	r0, #1
  406596:	bd70      	pop	{r4, r5, r6, pc}
		while (usart_write(p_usart, c)!=0);
  406598:	461e      	mov	r6, r3
  40659a:	4d10      	ldr	r5, [pc, #64]	; (4065dc <usart_serial_putchar+0xd0>)
  40659c:	4621      	mov	r1, r4
  40659e:	4630      	mov	r0, r6
  4065a0:	47a8      	blx	r5
  4065a2:	2800      	cmp	r0, #0
  4065a4:	d1fa      	bne.n	40659c <usart_serial_putchar+0x90>
		return 1;
  4065a6:	2001      	movs	r0, #1
  4065a8:	bd70      	pop	{r4, r5, r6, pc}
		while (usart_write(p_usart, c)!=0);
  4065aa:	461e      	mov	r6, r3
  4065ac:	4d0b      	ldr	r5, [pc, #44]	; (4065dc <usart_serial_putchar+0xd0>)
  4065ae:	4621      	mov	r1, r4
  4065b0:	4630      	mov	r0, r6
  4065b2:	47a8      	blx	r5
  4065b4:	2800      	cmp	r0, #0
  4065b6:	d1fa      	bne.n	4065ae <usart_serial_putchar+0xa2>
		return 1;
  4065b8:	2001      	movs	r0, #1
  4065ba:	bd70      	pop	{r4, r5, r6, pc}
  4065bc:	400e0800 	.word	0x400e0800
  4065c0:	400e0a00 	.word	0x400e0a00
  4065c4:	400e1a00 	.word	0x400e1a00
  4065c8:	400e1c00 	.word	0x400e1c00
  4065cc:	40024000 	.word	0x40024000
  4065d0:	40028000 	.word	0x40028000
  4065d4:	4002c000 	.word	0x4002c000
  4065d8:	00406011 	.word	0x00406011
  4065dc:	00406119 	.word	0x00406119

004065e0 <vApplicationStackOverflowHook>:
{
  4065e0:	b508      	push	{r3, lr}
	printf("stack overflow %x %s\r\n", pxTask, (portCHAR *)pcTaskName);
  4065e2:	460a      	mov	r2, r1
  4065e4:	4601      	mov	r1, r0
  4065e6:	4802      	ldr	r0, [pc, #8]	; (4065f0 <vApplicationStackOverflowHook+0x10>)
  4065e8:	4b02      	ldr	r3, [pc, #8]	; (4065f4 <vApplicationStackOverflowHook+0x14>)
  4065ea:	4798      	blx	r3
  4065ec:	e7fe      	b.n	4065ec <vApplicationStackOverflowHook+0xc>
  4065ee:	bf00      	nop
  4065f0:	0040a0a0 	.word	0x0040a0a0
  4065f4:	004068b5 	.word	0x004068b5

004065f8 <vApplicationTickHook>:
{
  4065f8:	4770      	bx	lr

004065fa <vApplicationMallocFailedHook>:
  4065fa:	f04f 0380 	mov.w	r3, #128	; 0x80
  4065fe:	b672      	cpsid	i
  406600:	f383 8811 	msr	BASEPRI, r3
  406604:	f3bf 8f6f 	isb	sy
  406608:	f3bf 8f4f 	dsb	sy
  40660c:	b662      	cpsie	i
  40660e:	e7fe      	b.n	40660e <vApplicationMallocFailedHook+0x14>

00406610 <pin_toggle>:
void pin_toggle(Pio *pio, uint32_t mask){
  406610:	b538      	push	{r3, r4, r5, lr}
  406612:	4604      	mov	r4, r0
  406614:	460d      	mov	r5, r1
	if(pio_get_output_data_status(pio, mask))
  406616:	4b06      	ldr	r3, [pc, #24]	; (406630 <pin_toggle+0x20>)
  406618:	4798      	blx	r3
  40661a:	b920      	cbnz	r0, 406626 <pin_toggle+0x16>
	pio_set(pio,mask);
  40661c:	4629      	mov	r1, r5
  40661e:	4620      	mov	r0, r4
  406620:	4b04      	ldr	r3, [pc, #16]	; (406634 <pin_toggle+0x24>)
  406622:	4798      	blx	r3
  406624:	bd38      	pop	{r3, r4, r5, pc}
	pio_clear(pio, mask);
  406626:	4629      	mov	r1, r5
  406628:	4620      	mov	r0, r4
  40662a:	4b03      	ldr	r3, [pc, #12]	; (406638 <pin_toggle+0x28>)
  40662c:	4798      	blx	r3
  40662e:	bd38      	pop	{r3, r4, r5, pc}
  406630:	00401e29 	.word	0x00401e29
  406634:	00401d31 	.word	0x00401d31
  406638:	00401d35 	.word	0x00401d35

0040663c <Button1_Handler>:
{
  40663c:	b510      	push	{r4, lr}
	pin_toggle(PIOD, (1<<28));
  40663e:	f04f 5180 	mov.w	r1, #268435456	; 0x10000000
  406642:	4804      	ldr	r0, [pc, #16]	; (406654 <Button1_Handler+0x18>)
  406644:	4c04      	ldr	r4, [pc, #16]	; (406658 <Button1_Handler+0x1c>)
  406646:	47a0      	blx	r4
	pin_toggle(LED_PIO, LED_PIN_MASK);
  406648:	f44f 7180 	mov.w	r1, #256	; 0x100
  40664c:	4803      	ldr	r0, [pc, #12]	; (40665c <Button1_Handler+0x20>)
  40664e:	47a0      	blx	r4
  406650:	bd10      	pop	{r4, pc}
  406652:	bf00      	nop
  406654:	400e1400 	.word	0x400e1400
  406658:	00406611 	.word	0x00406611
  40665c:	400e1200 	.word	0x400e1200

00406660 <BUT_init>:
void BUT_init(void){
  406660:	b510      	push	{r4, lr}
  406662:	b082      	sub	sp, #8
	pmc_enable_periph_clk(BUT_PIO_ID);
  406664:	200a      	movs	r0, #10
  406666:	4b10      	ldr	r3, [pc, #64]	; (4066a8 <BUT_init+0x48>)
  406668:	4798      	blx	r3
	pio_set_input(BUT_PIO, BUT_PIN_MASK, PIO_PULLUP | PIO_DEBOUNCE);
  40666a:	4c10      	ldr	r4, [pc, #64]	; (4066ac <BUT_init+0x4c>)
  40666c:	2209      	movs	r2, #9
  40666e:	f44f 6100 	mov.w	r1, #2048	; 0x800
  406672:	4620      	mov	r0, r4
  406674:	4b0e      	ldr	r3, [pc, #56]	; (4066b0 <BUT_init+0x50>)
  406676:	4798      	blx	r3
	pio_enable_interrupt(BUT_PIO, BUT_PIN_MASK);
  406678:	f44f 6100 	mov.w	r1, #2048	; 0x800
  40667c:	4620      	mov	r0, r4
  40667e:	4b0d      	ldr	r3, [pc, #52]	; (4066b4 <BUT_init+0x54>)
  406680:	4798      	blx	r3
	pio_handler_set(BUT_PIO, BUT_PIO_ID, BUT_PIN_MASK, PIO_IT_FALL_EDGE, Button1_Handler);
  406682:	4b0d      	ldr	r3, [pc, #52]	; (4066b8 <BUT_init+0x58>)
  406684:	9300      	str	r3, [sp, #0]
  406686:	2350      	movs	r3, #80	; 0x50
  406688:	f44f 6200 	mov.w	r2, #2048	; 0x800
  40668c:	210a      	movs	r1, #10
  40668e:	4620      	mov	r0, r4
  406690:	4c0a      	ldr	r4, [pc, #40]	; (4066bc <BUT_init+0x5c>)
  406692:	47a0      	blx	r4
  NVIC->ISER[(uint32_t)((int32_t)IRQn) >> 5] = (uint32_t)(1 << ((uint32_t)((int32_t)IRQn) & (uint32_t)0x1F)); /* enable interrupt */
  406694:	4b0a      	ldr	r3, [pc, #40]	; (4066c0 <BUT_init+0x60>)
  406696:	f44f 6280 	mov.w	r2, #1024	; 0x400
  40669a:	601a      	str	r2, [r3, #0]
    NVIC->IP[(uint32_t)(IRQn)]            = ((priority << (8 - __NVIC_PRIO_BITS)) & 0xff); } /* set Priority for device specific Interrupts  */
  40669c:	2220      	movs	r2, #32
  40669e:	f883 230a 	strb.w	r2, [r3, #778]	; 0x30a
};
  4066a2:	b002      	add	sp, #8
  4066a4:	bd10      	pop	{r4, pc}
  4066a6:	bf00      	nop
  4066a8:	004020b9 	.word	0x004020b9
  4066ac:	400e0e00 	.word	0x400e0e00
  4066b0:	00401dcb 	.word	0x00401dcb
  4066b4:	00401e67 	.word	0x00401e67
  4066b8:	0040663d 	.word	0x0040663d
  4066bc:	00401ec5 	.word	0x00401ec5
  4066c0:	e000e100 	.word	0xe000e100

004066c4 <LED_init>:
void LED_init(int estado){
  4066c4:	b510      	push	{r4, lr}
  4066c6:	b082      	sub	sp, #8
  4066c8:	4604      	mov	r4, r0
	pmc_enable_periph_clk(LED_PIO_ID);
  4066ca:	200c      	movs	r0, #12
  4066cc:	4b05      	ldr	r3, [pc, #20]	; (4066e4 <LED_init+0x20>)
  4066ce:	4798      	blx	r3
	pio_set_output(LED_PIO, LED_PIN_MASK, estado, 0, 0 );
  4066d0:	2300      	movs	r3, #0
  4066d2:	9300      	str	r3, [sp, #0]
  4066d4:	4622      	mov	r2, r4
  4066d6:	f44f 7180 	mov.w	r1, #256	; 0x100
  4066da:	4803      	ldr	r0, [pc, #12]	; (4066e8 <LED_init+0x24>)
  4066dc:	4c03      	ldr	r4, [pc, #12]	; (4066ec <LED_init+0x28>)
  4066de:	47a0      	blx	r4
};
  4066e0:	b002      	add	sp, #8
  4066e2:	bd10      	pop	{r4, pc}
  4066e4:	004020b9 	.word	0x004020b9
  4066e8:	400e1200 	.word	0x400e1200
  4066ec:	00401e01 	.word	0x00401e01

004066f0 <main>:
/************************************************************************/
/* main                                                                 */
/************************************************************************/

int main(void)
{
  4066f0:	b500      	push	{lr}
  4066f2:	b08b      	sub	sp, #44	; 0x2c
	uint8_t bufferTX[100];
	
	uint8_t rtn;
	
	/* Initialize the board. */
	sysclk_init();
  4066f4:	4b3b      	ldr	r3, [pc, #236]	; (4067e4 <main+0xf4>)
  4066f6:	4798      	blx	r3
	board_init();
  4066f8:	4b3b      	ldr	r3, [pc, #236]	; (4067e8 <main+0xf8>)
  4066fa:	4798      	blx	r3
	
	/* Disable the watchdog */
	WDT->WDT_MR = WDT_MR_WDDIS;
  4066fc:	f44f 4200 	mov.w	r2, #32768	; 0x8000
  406700:	4b3a      	ldr	r3, [pc, #232]	; (4067ec <main+0xfc>)
  406702:	605a      	str	r2, [r3, #4]
  406704:	200b      	movs	r0, #11
  406706:	4e3a      	ldr	r6, [pc, #232]	; (4067f0 <main+0x100>)
  406708:	47b0      	blx	r6
  40670a:	200a      	movs	r0, #10
  40670c:	47b0      	blx	r6
	pio_set_peripheral(PIOB, PIO_PERIPH_D, PIO_PB4);  // RX
  40670e:	2210      	movs	r2, #16
  406710:	f04f 5100 	mov.w	r1, #536870912	; 0x20000000
  406714:	4837      	ldr	r0, [pc, #220]	; (4067f4 <main+0x104>)
  406716:	4c38      	ldr	r4, [pc, #224]	; (4067f8 <main+0x108>)
  406718:	47a0      	blx	r4
	pio_set_peripheral(PIOA, PIO_PERIPH_A, PIO_PA21); // TX
  40671a:	f44f 1200 	mov.w	r2, #2097152	; 0x200000
  40671e:	f04f 6100 	mov.w	r1, #134217728	; 0x8000000
  406722:	4836      	ldr	r0, [pc, #216]	; (4067fc <main+0x10c>)
  406724:	47a0      	blx	r4
	MATRIX->CCFG_SYSIO |= CCFG_SYSIO_SYSIO4;
  406726:	4a36      	ldr	r2, [pc, #216]	; (406800 <main+0x110>)
  406728:	f8d2 3114 	ldr.w	r3, [r2, #276]	; 0x114
  40672c:	f043 0310 	orr.w	r3, r3, #16
  406730:	f8c2 3114 	str.w	r3, [r2, #276]	; 0x114
  406734:	200e      	movs	r0, #14
  406736:	47b0      	blx	r6
 * \param opt         Options needed to set up RS232 communication (see \ref usart_options_t).
 *
 */
static inline void stdio_serial_init(volatile void *usart, const usart_serial_options_t *opt)
{
	stdio_base = (void *)usart;
  406738:	4d32      	ldr	r5, [pc, #200]	; (406804 <main+0x114>)
  40673a:	4b33      	ldr	r3, [pc, #204]	; (406808 <main+0x118>)
  40673c:	601d      	str	r5, [r3, #0]
	ptr_put = (int (*)(void volatile*,char))&usart_serial_putchar;
  40673e:	4a33      	ldr	r2, [pc, #204]	; (40680c <main+0x11c>)
  406740:	4b33      	ldr	r3, [pc, #204]	; (406810 <main+0x120>)
  406742:	601a      	str	r2, [r3, #0]
	ptr_get = (void (*)(void volatile*,char*))&usart_serial_getchar;
  406744:	4a33      	ldr	r2, [pc, #204]	; (406814 <main+0x124>)
  406746:	4b34      	ldr	r3, [pc, #208]	; (406818 <main+0x128>)
  406748:	601a      	str	r2, [r3, #0]
	usart_settings.baudrate = opt->baudrate;
  40674a:	f44f 33e1 	mov.w	r3, #115200	; 0x1c200
  40674e:	9304      	str	r3, [sp, #16]
	usart_settings.char_length = opt->charlength;
  406750:	23c0      	movs	r3, #192	; 0xc0
  406752:	9305      	str	r3, [sp, #20]
	usart_settings.parity_type = opt->paritytype;
  406754:	f44f 6300 	mov.w	r3, #2048	; 0x800
  406758:	9306      	str	r3, [sp, #24]
	usart_settings.stop_bits= opt->stopbits;
  40675a:	2400      	movs	r4, #0
  40675c:	9407      	str	r4, [sp, #28]
	usart_settings.channel_mode= US_MR_CHMODE_NORMAL;
  40675e:	9408      	str	r4, [sp, #32]
  406760:	200e      	movs	r0, #14
  406762:	47b0      	blx	r6
		usart_init_rs232(p_usart, &usart_settings,
  406764:	4a2d      	ldr	r2, [pc, #180]	; (40681c <main+0x12c>)
  406766:	a904      	add	r1, sp, #16
  406768:	4628      	mov	r0, r5
  40676a:	4b2d      	ldr	r3, [pc, #180]	; (406820 <main+0x130>)
  40676c:	4798      	blx	r3
		usart_enable_tx(p_usart);
  40676e:	4628      	mov	r0, r5
  406770:	4b2c      	ldr	r3, [pc, #176]	; (406824 <main+0x134>)
  406772:	4798      	blx	r3
		usart_enable_rx(p_usart);
  406774:	4628      	mov	r0, r5
  406776:	4b2c      	ldr	r3, [pc, #176]	; (406828 <main+0x138>)
  406778:	4798      	blx	r3
	fdevopen((int (*)(char, FILE*))(_write),(int (*)(FILE*))(_read));
#  endif
#  if UC3 || SAM
	// For AVR32 and SAM GCC
	// Specify that stdout and stdin should not be buffered.
	setbuf(stdout, NULL);
  40677a:	4e2c      	ldr	r6, [pc, #176]	; (40682c <main+0x13c>)
  40677c:	6833      	ldr	r3, [r6, #0]
  40677e:	4621      	mov	r1, r4
  406780:	6898      	ldr	r0, [r3, #8]
  406782:	4d2b      	ldr	r5, [pc, #172]	; (406830 <main+0x140>)
  406784:	47a8      	blx	r5
	setbuf(stdin, NULL);
  406786:	6833      	ldr	r3, [r6, #0]
  406788:	4621      	mov	r1, r4
  40678a:	6858      	ldr	r0, [r3, #4]
  40678c:	47a8      	blx	r5

	/* Initialize the UART console. */
	configure_console();
	printf(STRING_HEADER);
  40678e:	4829      	ldr	r0, [pc, #164]	; (406834 <main+0x144>)
  406790:	4b29      	ldr	r3, [pc, #164]	; (406838 <main+0x148>)
  406792:	4798      	blx	r3
	
	/* Configura Leds */
	LED_init(1);
  406794:	2001      	movs	r0, #1
  406796:	4b29      	ldr	r3, [pc, #164]	; (40683c <main+0x14c>)
  406798:	4798      	blx	r3
	
	/* Configura os botes */
	BUT_init();
  40679a:	4b29      	ldr	r3, [pc, #164]	; (406840 <main+0x150>)
  40679c:	4798      	blx	r3
	//TASK_WIFI_STACK_PRIORITY, NULL) != pdPASS) {
		//printf("Failed to create Wifi task\r\n");
	//}

	/* Create task to handler LCD */
	if (xTaskCreate(task_adc, "adc", TASK_LCD_STACK_SIZE, NULL, TASK_LCD_STACK_PRIORITY, NULL) != pdPASS) {
  40679e:	9403      	str	r4, [sp, #12]
  4067a0:	9402      	str	r4, [sp, #8]
  4067a2:	9401      	str	r4, [sp, #4]
  4067a4:	9400      	str	r4, [sp, #0]
  4067a6:	4623      	mov	r3, r4
  4067a8:	f44f 6220 	mov.w	r2, #2560	; 0xa00
  4067ac:	4925      	ldr	r1, [pc, #148]	; (406844 <main+0x154>)
  4067ae:	4826      	ldr	r0, [pc, #152]	; (406848 <main+0x158>)
  4067b0:	4c26      	ldr	r4, [pc, #152]	; (40684c <main+0x15c>)
  4067b2:	47a0      	blx	r4
  4067b4:	2801      	cmp	r0, #1
  4067b6:	d002      	beq.n	4067be <main+0xce>
		printf("Failed to create test adc task\r\n");
  4067b8:	4825      	ldr	r0, [pc, #148]	; (406850 <main+0x160>)
  4067ba:	4b1f      	ldr	r3, [pc, #124]	; (406838 <main+0x148>)
  4067bc:	4798      	blx	r3
	}
	if (xTaskCreate(task_sd_card, "SSCard", TASK_LCD_STACK_SIZE, NULL, TASK_LCD_STACK_PRIORITY, NULL) != pdPASS) {
  4067be:	2300      	movs	r3, #0
  4067c0:	9303      	str	r3, [sp, #12]
  4067c2:	9302      	str	r3, [sp, #8]
  4067c4:	9301      	str	r3, [sp, #4]
  4067c6:	9300      	str	r3, [sp, #0]
  4067c8:	f44f 6220 	mov.w	r2, #2560	; 0xa00
  4067cc:	4921      	ldr	r1, [pc, #132]	; (406854 <main+0x164>)
  4067ce:	4822      	ldr	r0, [pc, #136]	; (406858 <main+0x168>)
  4067d0:	4c1e      	ldr	r4, [pc, #120]	; (40684c <main+0x15c>)
  4067d2:	47a0      	blx	r4
  4067d4:	2801      	cmp	r0, #1
  4067d6:	d002      	beq.n	4067de <main+0xee>
		printf("Failed to create test SDCard task\r\n");
  4067d8:	4820      	ldr	r0, [pc, #128]	; (40685c <main+0x16c>)
  4067da:	4b17      	ldr	r3, [pc, #92]	; (406838 <main+0x148>)
  4067dc:	4798      	blx	r3
	}
	vTaskStartScheduler();
  4067de:	4b20      	ldr	r3, [pc, #128]	; (406860 <main+0x170>)
  4067e0:	4798      	blx	r3
  4067e2:	e7fe      	b.n	4067e2 <main+0xf2>
  4067e4:	0040103d 	.word	0x0040103d
  4067e8:	00401125 	.word	0x00401125
  4067ec:	400e1850 	.word	0x400e1850
  4067f0:	004020b9 	.word	0x004020b9
  4067f4:	400e1000 	.word	0x400e1000
  4067f8:	00401d39 	.word	0x00401d39
  4067fc:	400e0e00 	.word	0x400e0e00
  406800:	40088000 	.word	0x40088000
  406804:	40028000 	.word	0x40028000
  406808:	2040c504 	.word	0x2040c504
  40680c:	0040650d 	.word	0x0040650d
  406810:	2040c500 	.word	0x2040c500
  406814:	00406431 	.word	0x00406431
  406818:	2040c4fc 	.word	0x2040c4fc
  40681c:	08f0d180 	.word	0x08f0d180
  406820:	004060b9 	.word	0x004060b9
  406824:	0040610d 	.word	0x0040610d
  406828:	00406113 	.word	0x00406113
  40682c:	2040003c 	.word	0x2040003c
  406830:	00406aad 	.word	0x00406aad
  406834:	00409e50 	.word	0x00409e50
  406838:	004068b5 	.word	0x004068b5
  40683c:	004066c5 	.word	0x004066c5
  406840:	00406661 	.word	0x00406661
  406844:	00409eb4 	.word	0x00409eb4
  406848:	00406149 	.word	0x00406149
  40684c:	00404fdd 	.word	0x00404fdd
  406850:	00409eb8 	.word	0x00409eb8
  406854:	00409edc 	.word	0x00409edc
  406858:	004062b9 	.word	0x004062b9
  40685c:	00409ee4 	.word	0x00409ee4
  406860:	00405211 	.word	0x00405211

00406864 <__libc_init_array>:
  406864:	b570      	push	{r4, r5, r6, lr}
  406866:	4e0f      	ldr	r6, [pc, #60]	; (4068a4 <__libc_init_array+0x40>)
  406868:	4d0f      	ldr	r5, [pc, #60]	; (4068a8 <__libc_init_array+0x44>)
  40686a:	1b76      	subs	r6, r6, r5
  40686c:	10b6      	asrs	r6, r6, #2
  40686e:	bf18      	it	ne
  406870:	2400      	movne	r4, #0
  406872:	d005      	beq.n	406880 <__libc_init_array+0x1c>
  406874:	3401      	adds	r4, #1
  406876:	f855 3b04 	ldr.w	r3, [r5], #4
  40687a:	4798      	blx	r3
  40687c:	42a6      	cmp	r6, r4
  40687e:	d1f9      	bne.n	406874 <__libc_init_array+0x10>
  406880:	4e0a      	ldr	r6, [pc, #40]	; (4068ac <__libc_init_array+0x48>)
  406882:	4d0b      	ldr	r5, [pc, #44]	; (4068b0 <__libc_init_array+0x4c>)
  406884:	1b76      	subs	r6, r6, r5
  406886:	f003 fccb 	bl	40a220 <_init>
  40688a:	10b6      	asrs	r6, r6, #2
  40688c:	bf18      	it	ne
  40688e:	2400      	movne	r4, #0
  406890:	d006      	beq.n	4068a0 <__libc_init_array+0x3c>
  406892:	3401      	adds	r4, #1
  406894:	f855 3b04 	ldr.w	r3, [r5], #4
  406898:	4798      	blx	r3
  40689a:	42a6      	cmp	r6, r4
  40689c:	d1f9      	bne.n	406892 <__libc_init_array+0x2e>
  40689e:	bd70      	pop	{r4, r5, r6, pc}
  4068a0:	bd70      	pop	{r4, r5, r6, pc}
  4068a2:	bf00      	nop
  4068a4:	0040a22c 	.word	0x0040a22c
  4068a8:	0040a22c 	.word	0x0040a22c
  4068ac:	0040a234 	.word	0x0040a234
  4068b0:	0040a22c 	.word	0x0040a22c

004068b4 <iprintf>:
  4068b4:	b40f      	push	{r0, r1, r2, r3}
  4068b6:	b500      	push	{lr}
  4068b8:	4907      	ldr	r1, [pc, #28]	; (4068d8 <iprintf+0x24>)
  4068ba:	b083      	sub	sp, #12
  4068bc:	ab04      	add	r3, sp, #16
  4068be:	6808      	ldr	r0, [r1, #0]
  4068c0:	f853 2b04 	ldr.w	r2, [r3], #4
  4068c4:	6881      	ldr	r1, [r0, #8]
  4068c6:	9301      	str	r3, [sp, #4]
  4068c8:	f000 fa88 	bl	406ddc <_vfiprintf_r>
  4068cc:	b003      	add	sp, #12
  4068ce:	f85d eb04 	ldr.w	lr, [sp], #4
  4068d2:	b004      	add	sp, #16
  4068d4:	4770      	bx	lr
  4068d6:	bf00      	nop
  4068d8:	2040003c 	.word	0x2040003c

004068dc <memcpy>:
  4068dc:	4684      	mov	ip, r0
  4068de:	ea41 0300 	orr.w	r3, r1, r0
  4068e2:	f013 0303 	ands.w	r3, r3, #3
  4068e6:	d16d      	bne.n	4069c4 <memcpy+0xe8>
  4068e8:	3a40      	subs	r2, #64	; 0x40
  4068ea:	d341      	bcc.n	406970 <memcpy+0x94>
  4068ec:	f851 3b04 	ldr.w	r3, [r1], #4
  4068f0:	f840 3b04 	str.w	r3, [r0], #4
  4068f4:	f851 3b04 	ldr.w	r3, [r1], #4
  4068f8:	f840 3b04 	str.w	r3, [r0], #4
  4068fc:	f851 3b04 	ldr.w	r3, [r1], #4
  406900:	f840 3b04 	str.w	r3, [r0], #4
  406904:	f851 3b04 	ldr.w	r3, [r1], #4
  406908:	f840 3b04 	str.w	r3, [r0], #4
  40690c:	f851 3b04 	ldr.w	r3, [r1], #4
  406910:	f840 3b04 	str.w	r3, [r0], #4
  406914:	f851 3b04 	ldr.w	r3, [r1], #4
  406918:	f840 3b04 	str.w	r3, [r0], #4
  40691c:	f851 3b04 	ldr.w	r3, [r1], #4
  406920:	f840 3b04 	str.w	r3, [r0], #4
  406924:	f851 3b04 	ldr.w	r3, [r1], #4
  406928:	f840 3b04 	str.w	r3, [r0], #4
  40692c:	f851 3b04 	ldr.w	r3, [r1], #4
  406930:	f840 3b04 	str.w	r3, [r0], #4
  406934:	f851 3b04 	ldr.w	r3, [r1], #4
  406938:	f840 3b04 	str.w	r3, [r0], #4
  40693c:	f851 3b04 	ldr.w	r3, [r1], #4
  406940:	f840 3b04 	str.w	r3, [r0], #4
  406944:	f851 3b04 	ldr.w	r3, [r1], #4
  406948:	f840 3b04 	str.w	r3, [r0], #4
  40694c:	f851 3b04 	ldr.w	r3, [r1], #4
  406950:	f840 3b04 	str.w	r3, [r0], #4
  406954:	f851 3b04 	ldr.w	r3, [r1], #4
  406958:	f840 3b04 	str.w	r3, [r0], #4
  40695c:	f851 3b04 	ldr.w	r3, [r1], #4
  406960:	f840 3b04 	str.w	r3, [r0], #4
  406964:	f851 3b04 	ldr.w	r3, [r1], #4
  406968:	f840 3b04 	str.w	r3, [r0], #4
  40696c:	3a40      	subs	r2, #64	; 0x40
  40696e:	d2bd      	bcs.n	4068ec <memcpy+0x10>
  406970:	3230      	adds	r2, #48	; 0x30
  406972:	d311      	bcc.n	406998 <memcpy+0xbc>
  406974:	f851 3b04 	ldr.w	r3, [r1], #4
  406978:	f840 3b04 	str.w	r3, [r0], #4
  40697c:	f851 3b04 	ldr.w	r3, [r1], #4
  406980:	f840 3b04 	str.w	r3, [r0], #4
  406984:	f851 3b04 	ldr.w	r3, [r1], #4
  406988:	f840 3b04 	str.w	r3, [r0], #4
  40698c:	f851 3b04 	ldr.w	r3, [r1], #4
  406990:	f840 3b04 	str.w	r3, [r0], #4
  406994:	3a10      	subs	r2, #16
  406996:	d2ed      	bcs.n	406974 <memcpy+0x98>
  406998:	320c      	adds	r2, #12
  40699a:	d305      	bcc.n	4069a8 <memcpy+0xcc>
  40699c:	f851 3b04 	ldr.w	r3, [r1], #4
  4069a0:	f840 3b04 	str.w	r3, [r0], #4
  4069a4:	3a04      	subs	r2, #4
  4069a6:	d2f9      	bcs.n	40699c <memcpy+0xc0>
  4069a8:	3204      	adds	r2, #4
  4069aa:	d008      	beq.n	4069be <memcpy+0xe2>
  4069ac:	07d2      	lsls	r2, r2, #31
  4069ae:	bf1c      	itt	ne
  4069b0:	f811 3b01 	ldrbne.w	r3, [r1], #1
  4069b4:	f800 3b01 	strbne.w	r3, [r0], #1
  4069b8:	d301      	bcc.n	4069be <memcpy+0xe2>
  4069ba:	880b      	ldrh	r3, [r1, #0]
  4069bc:	8003      	strh	r3, [r0, #0]
  4069be:	4660      	mov	r0, ip
  4069c0:	4770      	bx	lr
  4069c2:	bf00      	nop
  4069c4:	2a08      	cmp	r2, #8
  4069c6:	d313      	bcc.n	4069f0 <memcpy+0x114>
  4069c8:	078b      	lsls	r3, r1, #30
  4069ca:	d08d      	beq.n	4068e8 <memcpy+0xc>
  4069cc:	f010 0303 	ands.w	r3, r0, #3
  4069d0:	d08a      	beq.n	4068e8 <memcpy+0xc>
  4069d2:	f1c3 0304 	rsb	r3, r3, #4
  4069d6:	1ad2      	subs	r2, r2, r3
  4069d8:	07db      	lsls	r3, r3, #31
  4069da:	bf1c      	itt	ne
  4069dc:	f811 3b01 	ldrbne.w	r3, [r1], #1
  4069e0:	f800 3b01 	strbne.w	r3, [r0], #1
  4069e4:	d380      	bcc.n	4068e8 <memcpy+0xc>
  4069e6:	f831 3b02 	ldrh.w	r3, [r1], #2
  4069ea:	f820 3b02 	strh.w	r3, [r0], #2
  4069ee:	e77b      	b.n	4068e8 <memcpy+0xc>
  4069f0:	3a04      	subs	r2, #4
  4069f2:	d3d9      	bcc.n	4069a8 <memcpy+0xcc>
  4069f4:	3a01      	subs	r2, #1
  4069f6:	f811 3b01 	ldrb.w	r3, [r1], #1
  4069fa:	f800 3b01 	strb.w	r3, [r0], #1
  4069fe:	d2f9      	bcs.n	4069f4 <memcpy+0x118>
  406a00:	780b      	ldrb	r3, [r1, #0]
  406a02:	7003      	strb	r3, [r0, #0]
  406a04:	784b      	ldrb	r3, [r1, #1]
  406a06:	7043      	strb	r3, [r0, #1]
  406a08:	788b      	ldrb	r3, [r1, #2]
  406a0a:	7083      	strb	r3, [r0, #2]
  406a0c:	4660      	mov	r0, ip
  406a0e:	4770      	bx	lr

00406a10 <memset>:
  406a10:	b470      	push	{r4, r5, r6}
  406a12:	0786      	lsls	r6, r0, #30
  406a14:	d046      	beq.n	406aa4 <memset+0x94>
  406a16:	1e54      	subs	r4, r2, #1
  406a18:	2a00      	cmp	r2, #0
  406a1a:	d041      	beq.n	406aa0 <memset+0x90>
  406a1c:	b2ca      	uxtb	r2, r1
  406a1e:	4603      	mov	r3, r0
  406a20:	e002      	b.n	406a28 <memset+0x18>
  406a22:	f114 34ff 	adds.w	r4, r4, #4294967295
  406a26:	d33b      	bcc.n	406aa0 <memset+0x90>
  406a28:	f803 2b01 	strb.w	r2, [r3], #1
  406a2c:	079d      	lsls	r5, r3, #30
  406a2e:	d1f8      	bne.n	406a22 <memset+0x12>
  406a30:	2c03      	cmp	r4, #3
  406a32:	d92e      	bls.n	406a92 <memset+0x82>
  406a34:	b2cd      	uxtb	r5, r1
  406a36:	ea45 2505 	orr.w	r5, r5, r5, lsl #8
  406a3a:	2c0f      	cmp	r4, #15
  406a3c:	ea45 4505 	orr.w	r5, r5, r5, lsl #16
  406a40:	d919      	bls.n	406a76 <memset+0x66>
  406a42:	f103 0210 	add.w	r2, r3, #16
  406a46:	4626      	mov	r6, r4
  406a48:	3e10      	subs	r6, #16
  406a4a:	2e0f      	cmp	r6, #15
  406a4c:	f842 5c10 	str.w	r5, [r2, #-16]
  406a50:	f842 5c0c 	str.w	r5, [r2, #-12]
  406a54:	f842 5c08 	str.w	r5, [r2, #-8]
  406a58:	f842 5c04 	str.w	r5, [r2, #-4]
  406a5c:	f102 0210 	add.w	r2, r2, #16
  406a60:	d8f2      	bhi.n	406a48 <memset+0x38>
  406a62:	f1a4 0210 	sub.w	r2, r4, #16
  406a66:	f022 020f 	bic.w	r2, r2, #15
  406a6a:	f004 040f 	and.w	r4, r4, #15
  406a6e:	3210      	adds	r2, #16
  406a70:	2c03      	cmp	r4, #3
  406a72:	4413      	add	r3, r2
  406a74:	d90d      	bls.n	406a92 <memset+0x82>
  406a76:	461e      	mov	r6, r3
  406a78:	4622      	mov	r2, r4
  406a7a:	3a04      	subs	r2, #4
  406a7c:	2a03      	cmp	r2, #3
  406a7e:	f846 5b04 	str.w	r5, [r6], #4
  406a82:	d8fa      	bhi.n	406a7a <memset+0x6a>
  406a84:	1f22      	subs	r2, r4, #4
  406a86:	f022 0203 	bic.w	r2, r2, #3
  406a8a:	3204      	adds	r2, #4
  406a8c:	4413      	add	r3, r2
  406a8e:	f004 0403 	and.w	r4, r4, #3
  406a92:	b12c      	cbz	r4, 406aa0 <memset+0x90>
  406a94:	b2c9      	uxtb	r1, r1
  406a96:	441c      	add	r4, r3
  406a98:	f803 1b01 	strb.w	r1, [r3], #1
  406a9c:	429c      	cmp	r4, r3
  406a9e:	d1fb      	bne.n	406a98 <memset+0x88>
  406aa0:	bc70      	pop	{r4, r5, r6}
  406aa2:	4770      	bx	lr
  406aa4:	4614      	mov	r4, r2
  406aa6:	4603      	mov	r3, r0
  406aa8:	e7c2      	b.n	406a30 <memset+0x20>
  406aaa:	bf00      	nop

00406aac <setbuf>:
  406aac:	2900      	cmp	r1, #0
  406aae:	bf0c      	ite	eq
  406ab0:	2202      	moveq	r2, #2
  406ab2:	2200      	movne	r2, #0
  406ab4:	f44f 6380 	mov.w	r3, #1024	; 0x400
  406ab8:	f000 b800 	b.w	406abc <setvbuf>

00406abc <setvbuf>:
  406abc:	e92d 43f0 	stmdb	sp!, {r4, r5, r6, r7, r8, r9, lr}
  406ac0:	4c61      	ldr	r4, [pc, #388]	; (406c48 <setvbuf+0x18c>)
  406ac2:	6825      	ldr	r5, [r4, #0]
  406ac4:	b083      	sub	sp, #12
  406ac6:	4604      	mov	r4, r0
  406ac8:	460f      	mov	r7, r1
  406aca:	4690      	mov	r8, r2
  406acc:	461e      	mov	r6, r3
  406ace:	b115      	cbz	r5, 406ad6 <setvbuf+0x1a>
  406ad0:	6bab      	ldr	r3, [r5, #56]	; 0x38
  406ad2:	2b00      	cmp	r3, #0
  406ad4:	d064      	beq.n	406ba0 <setvbuf+0xe4>
  406ad6:	f1b8 0f02 	cmp.w	r8, #2
  406ada:	d006      	beq.n	406aea <setvbuf+0x2e>
  406adc:	f1b8 0f01 	cmp.w	r8, #1
  406ae0:	f200 809f 	bhi.w	406c22 <setvbuf+0x166>
  406ae4:	2e00      	cmp	r6, #0
  406ae6:	f2c0 809c 	blt.w	406c22 <setvbuf+0x166>
  406aea:	6e63      	ldr	r3, [r4, #100]	; 0x64
  406aec:	07d8      	lsls	r0, r3, #31
  406aee:	d534      	bpl.n	406b5a <setvbuf+0x9e>
  406af0:	4621      	mov	r1, r4
  406af2:	4628      	mov	r0, r5
  406af4:	f001 f910 	bl	407d18 <_fflush_r>
  406af8:	6b21      	ldr	r1, [r4, #48]	; 0x30
  406afa:	b141      	cbz	r1, 406b0e <setvbuf+0x52>
  406afc:	f104 0340 	add.w	r3, r4, #64	; 0x40
  406b00:	4299      	cmp	r1, r3
  406b02:	d002      	beq.n	406b0a <setvbuf+0x4e>
  406b04:	4628      	mov	r0, r5
  406b06:	f001 fa85 	bl	408014 <_free_r>
  406b0a:	2300      	movs	r3, #0
  406b0c:	6323      	str	r3, [r4, #48]	; 0x30
  406b0e:	f9b4 300c 	ldrsh.w	r3, [r4, #12]
  406b12:	2200      	movs	r2, #0
  406b14:	61a2      	str	r2, [r4, #24]
  406b16:	6062      	str	r2, [r4, #4]
  406b18:	061a      	lsls	r2, r3, #24
  406b1a:	d43a      	bmi.n	406b92 <setvbuf+0xd6>
  406b1c:	f423 634a 	bic.w	r3, r3, #3232	; 0xca0
  406b20:	f023 0303 	bic.w	r3, r3, #3
  406b24:	f1b8 0f02 	cmp.w	r8, #2
  406b28:	81a3      	strh	r3, [r4, #12]
  406b2a:	d01d      	beq.n	406b68 <setvbuf+0xac>
  406b2c:	ab01      	add	r3, sp, #4
  406b2e:	466a      	mov	r2, sp
  406b30:	4621      	mov	r1, r4
  406b32:	4628      	mov	r0, r5
  406b34:	f001 fd0c 	bl	408550 <__swhatbuf_r>
  406b38:	89a3      	ldrh	r3, [r4, #12]
  406b3a:	4318      	orrs	r0, r3
  406b3c:	81a0      	strh	r0, [r4, #12]
  406b3e:	2e00      	cmp	r6, #0
  406b40:	d132      	bne.n	406ba8 <setvbuf+0xec>
  406b42:	9e00      	ldr	r6, [sp, #0]
  406b44:	4630      	mov	r0, r6
  406b46:	f001 fd7b 	bl	408640 <malloc>
  406b4a:	4607      	mov	r7, r0
  406b4c:	2800      	cmp	r0, #0
  406b4e:	d06b      	beq.n	406c28 <setvbuf+0x16c>
  406b50:	89a3      	ldrh	r3, [r4, #12]
  406b52:	f043 0380 	orr.w	r3, r3, #128	; 0x80
  406b56:	81a3      	strh	r3, [r4, #12]
  406b58:	e028      	b.n	406bac <setvbuf+0xf0>
  406b5a:	89a3      	ldrh	r3, [r4, #12]
  406b5c:	0599      	lsls	r1, r3, #22
  406b5e:	d4c7      	bmi.n	406af0 <setvbuf+0x34>
  406b60:	6da0      	ldr	r0, [r4, #88]	; 0x58
  406b62:	f001 fcf1 	bl	408548 <__retarget_lock_acquire_recursive>
  406b66:	e7c3      	b.n	406af0 <setvbuf+0x34>
  406b68:	2500      	movs	r5, #0
  406b6a:	6e61      	ldr	r1, [r4, #100]	; 0x64
  406b6c:	2600      	movs	r6, #0
  406b6e:	f104 0243 	add.w	r2, r4, #67	; 0x43
  406b72:	f043 0302 	orr.w	r3, r3, #2
  406b76:	2001      	movs	r0, #1
  406b78:	60a6      	str	r6, [r4, #8]
  406b7a:	07ce      	lsls	r6, r1, #31
  406b7c:	81a3      	strh	r3, [r4, #12]
  406b7e:	6022      	str	r2, [r4, #0]
  406b80:	6122      	str	r2, [r4, #16]
  406b82:	6160      	str	r0, [r4, #20]
  406b84:	d401      	bmi.n	406b8a <setvbuf+0xce>
  406b86:	0598      	lsls	r0, r3, #22
  406b88:	d53e      	bpl.n	406c08 <setvbuf+0x14c>
  406b8a:	4628      	mov	r0, r5
  406b8c:	b003      	add	sp, #12
  406b8e:	e8bd 83f0 	ldmia.w	sp!, {r4, r5, r6, r7, r8, r9, pc}
  406b92:	6921      	ldr	r1, [r4, #16]
  406b94:	4628      	mov	r0, r5
  406b96:	f001 fa3d 	bl	408014 <_free_r>
  406b9a:	f9b4 300c 	ldrsh.w	r3, [r4, #12]
  406b9e:	e7bd      	b.n	406b1c <setvbuf+0x60>
  406ba0:	4628      	mov	r0, r5
  406ba2:	f001 f911 	bl	407dc8 <__sinit>
  406ba6:	e796      	b.n	406ad6 <setvbuf+0x1a>
  406ba8:	2f00      	cmp	r7, #0
  406baa:	d0cb      	beq.n	406b44 <setvbuf+0x88>
  406bac:	6bab      	ldr	r3, [r5, #56]	; 0x38
  406bae:	2b00      	cmp	r3, #0
  406bb0:	d033      	beq.n	406c1a <setvbuf+0x15e>
  406bb2:	9b00      	ldr	r3, [sp, #0]
  406bb4:	f9b4 200c 	ldrsh.w	r2, [r4, #12]
  406bb8:	6027      	str	r7, [r4, #0]
  406bba:	429e      	cmp	r6, r3
  406bbc:	bf1c      	itt	ne
  406bbe:	f442 6200 	orrne.w	r2, r2, #2048	; 0x800
  406bc2:	81a2      	strhne	r2, [r4, #12]
  406bc4:	f1b8 0f01 	cmp.w	r8, #1
  406bc8:	bf04      	itt	eq
  406bca:	f042 0201 	orreq.w	r2, r2, #1
  406bce:	81a2      	strheq	r2, [r4, #12]
  406bd0:	b292      	uxth	r2, r2
  406bd2:	f012 0308 	ands.w	r3, r2, #8
  406bd6:	6127      	str	r7, [r4, #16]
  406bd8:	6166      	str	r6, [r4, #20]
  406bda:	d00e      	beq.n	406bfa <setvbuf+0x13e>
  406bdc:	07d1      	lsls	r1, r2, #31
  406bde:	d51a      	bpl.n	406c16 <setvbuf+0x15a>
  406be0:	6e65      	ldr	r5, [r4, #100]	; 0x64
  406be2:	4276      	negs	r6, r6
  406be4:	2300      	movs	r3, #0
  406be6:	f015 0501 	ands.w	r5, r5, #1
  406bea:	61a6      	str	r6, [r4, #24]
  406bec:	60a3      	str	r3, [r4, #8]
  406bee:	d009      	beq.n	406c04 <setvbuf+0x148>
  406bf0:	2500      	movs	r5, #0
  406bf2:	4628      	mov	r0, r5
  406bf4:	b003      	add	sp, #12
  406bf6:	e8bd 83f0 	ldmia.w	sp!, {r4, r5, r6, r7, r8, r9, pc}
  406bfa:	60a3      	str	r3, [r4, #8]
  406bfc:	6e65      	ldr	r5, [r4, #100]	; 0x64
  406bfe:	f015 0501 	ands.w	r5, r5, #1
  406c02:	d1f5      	bne.n	406bf0 <setvbuf+0x134>
  406c04:	0593      	lsls	r3, r2, #22
  406c06:	d4c0      	bmi.n	406b8a <setvbuf+0xce>
  406c08:	6da0      	ldr	r0, [r4, #88]	; 0x58
  406c0a:	f001 fc9f 	bl	40854c <__retarget_lock_release_recursive>
  406c0e:	4628      	mov	r0, r5
  406c10:	b003      	add	sp, #12
  406c12:	e8bd 83f0 	ldmia.w	sp!, {r4, r5, r6, r7, r8, r9, pc}
  406c16:	60a6      	str	r6, [r4, #8]
  406c18:	e7f0      	b.n	406bfc <setvbuf+0x140>
  406c1a:	4628      	mov	r0, r5
  406c1c:	f001 f8d4 	bl	407dc8 <__sinit>
  406c20:	e7c7      	b.n	406bb2 <setvbuf+0xf6>
  406c22:	f04f 35ff 	mov.w	r5, #4294967295
  406c26:	e7b0      	b.n	406b8a <setvbuf+0xce>
  406c28:	f8dd 9000 	ldr.w	r9, [sp]
  406c2c:	45b1      	cmp	r9, r6
  406c2e:	d004      	beq.n	406c3a <setvbuf+0x17e>
  406c30:	4648      	mov	r0, r9
  406c32:	f001 fd05 	bl	408640 <malloc>
  406c36:	4607      	mov	r7, r0
  406c38:	b920      	cbnz	r0, 406c44 <setvbuf+0x188>
  406c3a:	f9b4 300c 	ldrsh.w	r3, [r4, #12]
  406c3e:	f04f 35ff 	mov.w	r5, #4294967295
  406c42:	e792      	b.n	406b6a <setvbuf+0xae>
  406c44:	464e      	mov	r6, r9
  406c46:	e783      	b.n	406b50 <setvbuf+0x94>
  406c48:	2040003c 	.word	0x2040003c
	...

00406c80 <strlen>:
  406c80:	f890 f000 	pld	[r0]
  406c84:	e96d 4502 	strd	r4, r5, [sp, #-8]!
  406c88:	f020 0107 	bic.w	r1, r0, #7
  406c8c:	f06f 0c00 	mvn.w	ip, #0
  406c90:	f010 0407 	ands.w	r4, r0, #7
  406c94:	f891 f020 	pld	[r1, #32]
  406c98:	f040 8049 	bne.w	406d2e <strlen+0xae>
  406c9c:	f04f 0400 	mov.w	r4, #0
  406ca0:	f06f 0007 	mvn.w	r0, #7
  406ca4:	e9d1 2300 	ldrd	r2, r3, [r1]
  406ca8:	f891 f040 	pld	[r1, #64]	; 0x40
  406cac:	f100 0008 	add.w	r0, r0, #8
  406cb0:	fa82 f24c 	uadd8	r2, r2, ip
  406cb4:	faa4 f28c 	sel	r2, r4, ip
  406cb8:	fa83 f34c 	uadd8	r3, r3, ip
  406cbc:	faa2 f38c 	sel	r3, r2, ip
  406cc0:	bb4b      	cbnz	r3, 406d16 <strlen+0x96>
  406cc2:	e9d1 2302 	ldrd	r2, r3, [r1, #8]
  406cc6:	fa82 f24c 	uadd8	r2, r2, ip
  406cca:	f100 0008 	add.w	r0, r0, #8
  406cce:	faa4 f28c 	sel	r2, r4, ip
  406cd2:	fa83 f34c 	uadd8	r3, r3, ip
  406cd6:	faa2 f38c 	sel	r3, r2, ip
  406cda:	b9e3      	cbnz	r3, 406d16 <strlen+0x96>
  406cdc:	e9d1 2304 	ldrd	r2, r3, [r1, #16]
  406ce0:	fa82 f24c 	uadd8	r2, r2, ip
  406ce4:	f100 0008 	add.w	r0, r0, #8
  406ce8:	faa4 f28c 	sel	r2, r4, ip
  406cec:	fa83 f34c 	uadd8	r3, r3, ip
  406cf0:	faa2 f38c 	sel	r3, r2, ip
  406cf4:	b97b      	cbnz	r3, 406d16 <strlen+0x96>
  406cf6:	e9d1 2306 	ldrd	r2, r3, [r1, #24]
  406cfa:	f101 0120 	add.w	r1, r1, #32
  406cfe:	fa82 f24c 	uadd8	r2, r2, ip
  406d02:	f100 0008 	add.w	r0, r0, #8
  406d06:	faa4 f28c 	sel	r2, r4, ip
  406d0a:	fa83 f34c 	uadd8	r3, r3, ip
  406d0e:	faa2 f38c 	sel	r3, r2, ip
  406d12:	2b00      	cmp	r3, #0
  406d14:	d0c6      	beq.n	406ca4 <strlen+0x24>
  406d16:	2a00      	cmp	r2, #0
  406d18:	bf04      	itt	eq
  406d1a:	3004      	addeq	r0, #4
  406d1c:	461a      	moveq	r2, r3
  406d1e:	ba12      	rev	r2, r2
  406d20:	fab2 f282 	clz	r2, r2
  406d24:	e8fd 4502 	ldrd	r4, r5, [sp], #8
  406d28:	eb00 00d2 	add.w	r0, r0, r2, lsr #3
  406d2c:	4770      	bx	lr
  406d2e:	e9d1 2300 	ldrd	r2, r3, [r1]
  406d32:	f004 0503 	and.w	r5, r4, #3
  406d36:	f1c4 0000 	rsb	r0, r4, #0
  406d3a:	ea4f 05c5 	mov.w	r5, r5, lsl #3
  406d3e:	f014 0f04 	tst.w	r4, #4
  406d42:	f891 f040 	pld	[r1, #64]	; 0x40
  406d46:	fa0c f505 	lsl.w	r5, ip, r5
  406d4a:	ea62 0205 	orn	r2, r2, r5
  406d4e:	bf1c      	itt	ne
  406d50:	ea63 0305 	ornne	r3, r3, r5
  406d54:	4662      	movne	r2, ip
  406d56:	f04f 0400 	mov.w	r4, #0
  406d5a:	e7a9      	b.n	406cb0 <strlen+0x30>

00406d5c <__sprint_r.part.0>:
  406d5c:	e92d 4ff8 	stmdb	sp!, {r3, r4, r5, r6, r7, r8, r9, sl, fp, lr}
  406d60:	6e4b      	ldr	r3, [r1, #100]	; 0x64
  406d62:	049c      	lsls	r4, r3, #18
  406d64:	4693      	mov	fp, r2
  406d66:	d52f      	bpl.n	406dc8 <__sprint_r.part.0+0x6c>
  406d68:	6893      	ldr	r3, [r2, #8]
  406d6a:	6812      	ldr	r2, [r2, #0]
  406d6c:	b353      	cbz	r3, 406dc4 <__sprint_r.part.0+0x68>
  406d6e:	460e      	mov	r6, r1
  406d70:	4607      	mov	r7, r0
  406d72:	f102 0908 	add.w	r9, r2, #8
  406d76:	e919 0420 	ldmdb	r9, {r5, sl}
  406d7a:	ea5f 089a 	movs.w	r8, sl, lsr #2
  406d7e:	d017      	beq.n	406db0 <__sprint_r.part.0+0x54>
  406d80:	3d04      	subs	r5, #4
  406d82:	2400      	movs	r4, #0
  406d84:	e001      	b.n	406d8a <__sprint_r.part.0+0x2e>
  406d86:	45a0      	cmp	r8, r4
  406d88:	d010      	beq.n	406dac <__sprint_r.part.0+0x50>
  406d8a:	4632      	mov	r2, r6
  406d8c:	f855 1f04 	ldr.w	r1, [r5, #4]!
  406d90:	4638      	mov	r0, r7
  406d92:	f001 f8bb 	bl	407f0c <_fputwc_r>
  406d96:	1c43      	adds	r3, r0, #1
  406d98:	f104 0401 	add.w	r4, r4, #1
  406d9c:	d1f3      	bne.n	406d86 <__sprint_r.part.0+0x2a>
  406d9e:	2300      	movs	r3, #0
  406da0:	f8cb 3008 	str.w	r3, [fp, #8]
  406da4:	f8cb 3004 	str.w	r3, [fp, #4]
  406da8:	e8bd 8ff8 	ldmia.w	sp!, {r3, r4, r5, r6, r7, r8, r9, sl, fp, pc}
  406dac:	f8db 3008 	ldr.w	r3, [fp, #8]
  406db0:	f02a 0a03 	bic.w	sl, sl, #3
  406db4:	eba3 030a 	sub.w	r3, r3, sl
  406db8:	f8cb 3008 	str.w	r3, [fp, #8]
  406dbc:	f109 0908 	add.w	r9, r9, #8
  406dc0:	2b00      	cmp	r3, #0
  406dc2:	d1d8      	bne.n	406d76 <__sprint_r.part.0+0x1a>
  406dc4:	2000      	movs	r0, #0
  406dc6:	e7ea      	b.n	406d9e <__sprint_r.part.0+0x42>
  406dc8:	f001 fa0a 	bl	4081e0 <__sfvwrite_r>
  406dcc:	2300      	movs	r3, #0
  406dce:	f8cb 3008 	str.w	r3, [fp, #8]
  406dd2:	f8cb 3004 	str.w	r3, [fp, #4]
  406dd6:	e8bd 8ff8 	ldmia.w	sp!, {r3, r4, r5, r6, r7, r8, r9, sl, fp, pc}
  406dda:	bf00      	nop

00406ddc <_vfiprintf_r>:
  406ddc:	e92d 4ff0 	stmdb	sp!, {r4, r5, r6, r7, r8, r9, sl, fp, lr}
  406de0:	b0ad      	sub	sp, #180	; 0xb4
  406de2:	461d      	mov	r5, r3
  406de4:	468b      	mov	fp, r1
  406de6:	4690      	mov	r8, r2
  406de8:	9307      	str	r3, [sp, #28]
  406dea:	9006      	str	r0, [sp, #24]
  406dec:	b118      	cbz	r0, 406df6 <_vfiprintf_r+0x1a>
  406dee:	6b83      	ldr	r3, [r0, #56]	; 0x38
  406df0:	2b00      	cmp	r3, #0
  406df2:	f000 80f3 	beq.w	406fdc <_vfiprintf_r+0x200>
  406df6:	f8db 3064 	ldr.w	r3, [fp, #100]	; 0x64
  406dfa:	f9bb 000c 	ldrsh.w	r0, [fp, #12]
  406dfe:	07df      	lsls	r7, r3, #31
  406e00:	b281      	uxth	r1, r0
  406e02:	d402      	bmi.n	406e0a <_vfiprintf_r+0x2e>
  406e04:	058e      	lsls	r6, r1, #22
  406e06:	f140 80fc 	bpl.w	407002 <_vfiprintf_r+0x226>
  406e0a:	048c      	lsls	r4, r1, #18
  406e0c:	d40a      	bmi.n	406e24 <_vfiprintf_r+0x48>
  406e0e:	f8db 3064 	ldr.w	r3, [fp, #100]	; 0x64
  406e12:	f440 5100 	orr.w	r1, r0, #8192	; 0x2000
  406e16:	f423 5300 	bic.w	r3, r3, #8192	; 0x2000
  406e1a:	f8ab 100c 	strh.w	r1, [fp, #12]
  406e1e:	f8cb 3064 	str.w	r3, [fp, #100]	; 0x64
  406e22:	b289      	uxth	r1, r1
  406e24:	0708      	lsls	r0, r1, #28
  406e26:	f140 80b3 	bpl.w	406f90 <_vfiprintf_r+0x1b4>
  406e2a:	f8db 3010 	ldr.w	r3, [fp, #16]
  406e2e:	2b00      	cmp	r3, #0
  406e30:	f000 80ae 	beq.w	406f90 <_vfiprintf_r+0x1b4>
  406e34:	f001 031a 	and.w	r3, r1, #26
  406e38:	2b0a      	cmp	r3, #10
  406e3a:	f000 80b5 	beq.w	406fa8 <_vfiprintf_r+0x1cc>
  406e3e:	2300      	movs	r3, #0
  406e40:	f10d 0970 	add.w	r9, sp, #112	; 0x70
  406e44:	930b      	str	r3, [sp, #44]	; 0x2c
  406e46:	9311      	str	r3, [sp, #68]	; 0x44
  406e48:	9310      	str	r3, [sp, #64]	; 0x40
  406e4a:	9303      	str	r3, [sp, #12]
  406e4c:	f8cd 903c 	str.w	r9, [sp, #60]	; 0x3c
  406e50:	46ca      	mov	sl, r9
  406e52:	f8cd b010 	str.w	fp, [sp, #16]
  406e56:	f898 3000 	ldrb.w	r3, [r8]
  406e5a:	4644      	mov	r4, r8
  406e5c:	b1fb      	cbz	r3, 406e9e <_vfiprintf_r+0xc2>
  406e5e:	2b25      	cmp	r3, #37	; 0x25
  406e60:	d102      	bne.n	406e68 <_vfiprintf_r+0x8c>
  406e62:	e01c      	b.n	406e9e <_vfiprintf_r+0xc2>
  406e64:	2b25      	cmp	r3, #37	; 0x25
  406e66:	d003      	beq.n	406e70 <_vfiprintf_r+0x94>
  406e68:	f814 3f01 	ldrb.w	r3, [r4, #1]!
  406e6c:	2b00      	cmp	r3, #0
  406e6e:	d1f9      	bne.n	406e64 <_vfiprintf_r+0x88>
  406e70:	eba4 0508 	sub.w	r5, r4, r8
  406e74:	b19d      	cbz	r5, 406e9e <_vfiprintf_r+0xc2>
  406e76:	9b10      	ldr	r3, [sp, #64]	; 0x40
  406e78:	9a11      	ldr	r2, [sp, #68]	; 0x44
  406e7a:	f8ca 8000 	str.w	r8, [sl]
  406e7e:	3301      	adds	r3, #1
  406e80:	442a      	add	r2, r5
  406e82:	2b07      	cmp	r3, #7
  406e84:	f8ca 5004 	str.w	r5, [sl, #4]
  406e88:	9211      	str	r2, [sp, #68]	; 0x44
  406e8a:	9310      	str	r3, [sp, #64]	; 0x40
  406e8c:	dd7a      	ble.n	406f84 <_vfiprintf_r+0x1a8>
  406e8e:	2a00      	cmp	r2, #0
  406e90:	f040 84b0 	bne.w	4077f4 <_vfiprintf_r+0xa18>
  406e94:	9b03      	ldr	r3, [sp, #12]
  406e96:	9210      	str	r2, [sp, #64]	; 0x40
  406e98:	442b      	add	r3, r5
  406e9a:	46ca      	mov	sl, r9
  406e9c:	9303      	str	r3, [sp, #12]
  406e9e:	7823      	ldrb	r3, [r4, #0]
  406ea0:	2b00      	cmp	r3, #0
  406ea2:	f000 83e0 	beq.w	407666 <_vfiprintf_r+0x88a>
  406ea6:	2000      	movs	r0, #0
  406ea8:	f04f 0300 	mov.w	r3, #0
  406eac:	f88d 3037 	strb.w	r3, [sp, #55]	; 0x37
  406eb0:	f104 0801 	add.w	r8, r4, #1
  406eb4:	7862      	ldrb	r2, [r4, #1]
  406eb6:	4605      	mov	r5, r0
  406eb8:	4606      	mov	r6, r0
  406eba:	4603      	mov	r3, r0
  406ebc:	f04f 34ff 	mov.w	r4, #4294967295
  406ec0:	f108 0801 	add.w	r8, r8, #1
  406ec4:	f1a2 0120 	sub.w	r1, r2, #32
  406ec8:	2958      	cmp	r1, #88	; 0x58
  406eca:	f200 82de 	bhi.w	40748a <_vfiprintf_r+0x6ae>
  406ece:	e8df f011 	tbh	[pc, r1, lsl #1]
  406ed2:	0221      	.short	0x0221
  406ed4:	02dc02dc 	.word	0x02dc02dc
  406ed8:	02dc0229 	.word	0x02dc0229
  406edc:	02dc02dc 	.word	0x02dc02dc
  406ee0:	02dc02dc 	.word	0x02dc02dc
  406ee4:	028902dc 	.word	0x028902dc
  406ee8:	02dc0295 	.word	0x02dc0295
  406eec:	02bd00a2 	.word	0x02bd00a2
  406ef0:	019f02dc 	.word	0x019f02dc
  406ef4:	01a401a4 	.word	0x01a401a4
  406ef8:	01a401a4 	.word	0x01a401a4
  406efc:	01a401a4 	.word	0x01a401a4
  406f00:	01a401a4 	.word	0x01a401a4
  406f04:	02dc01a4 	.word	0x02dc01a4
  406f08:	02dc02dc 	.word	0x02dc02dc
  406f0c:	02dc02dc 	.word	0x02dc02dc
  406f10:	02dc02dc 	.word	0x02dc02dc
  406f14:	02dc02dc 	.word	0x02dc02dc
  406f18:	01b202dc 	.word	0x01b202dc
  406f1c:	02dc02dc 	.word	0x02dc02dc
  406f20:	02dc02dc 	.word	0x02dc02dc
  406f24:	02dc02dc 	.word	0x02dc02dc
  406f28:	02dc02dc 	.word	0x02dc02dc
  406f2c:	02dc02dc 	.word	0x02dc02dc
  406f30:	02dc0197 	.word	0x02dc0197
  406f34:	02dc02dc 	.word	0x02dc02dc
  406f38:	02dc02dc 	.word	0x02dc02dc
  406f3c:	02dc019b 	.word	0x02dc019b
  406f40:	025302dc 	.word	0x025302dc
  406f44:	02dc02dc 	.word	0x02dc02dc
  406f48:	02dc02dc 	.word	0x02dc02dc
  406f4c:	02dc02dc 	.word	0x02dc02dc
  406f50:	02dc02dc 	.word	0x02dc02dc
  406f54:	02dc02dc 	.word	0x02dc02dc
  406f58:	021b025a 	.word	0x021b025a
  406f5c:	02dc02dc 	.word	0x02dc02dc
  406f60:	026e02dc 	.word	0x026e02dc
  406f64:	02dc021b 	.word	0x02dc021b
  406f68:	027302dc 	.word	0x027302dc
  406f6c:	01f502dc 	.word	0x01f502dc
  406f70:	02090182 	.word	0x02090182
  406f74:	02dc02d7 	.word	0x02dc02d7
  406f78:	02dc029a 	.word	0x02dc029a
  406f7c:	02dc00a7 	.word	0x02dc00a7
  406f80:	022e02dc 	.word	0x022e02dc
  406f84:	f10a 0a08 	add.w	sl, sl, #8
  406f88:	9b03      	ldr	r3, [sp, #12]
  406f8a:	442b      	add	r3, r5
  406f8c:	9303      	str	r3, [sp, #12]
  406f8e:	e786      	b.n	406e9e <_vfiprintf_r+0xc2>
  406f90:	4659      	mov	r1, fp
  406f92:	9806      	ldr	r0, [sp, #24]
  406f94:	f000 fdac 	bl	407af0 <__swsetup_r>
  406f98:	bb18      	cbnz	r0, 406fe2 <_vfiprintf_r+0x206>
  406f9a:	f8bb 100c 	ldrh.w	r1, [fp, #12]
  406f9e:	f001 031a 	and.w	r3, r1, #26
  406fa2:	2b0a      	cmp	r3, #10
  406fa4:	f47f af4b 	bne.w	406e3e <_vfiprintf_r+0x62>
  406fa8:	f9bb 300e 	ldrsh.w	r3, [fp, #14]
  406fac:	2b00      	cmp	r3, #0
  406fae:	f6ff af46 	blt.w	406e3e <_vfiprintf_r+0x62>
  406fb2:	f8db 3064 	ldr.w	r3, [fp, #100]	; 0x64
  406fb6:	07db      	lsls	r3, r3, #31
  406fb8:	d405      	bmi.n	406fc6 <_vfiprintf_r+0x1ea>
  406fba:	058f      	lsls	r7, r1, #22
  406fbc:	d403      	bmi.n	406fc6 <_vfiprintf_r+0x1ea>
  406fbe:	f8db 0058 	ldr.w	r0, [fp, #88]	; 0x58
  406fc2:	f001 fac3 	bl	40854c <__retarget_lock_release_recursive>
  406fc6:	462b      	mov	r3, r5
  406fc8:	4642      	mov	r2, r8
  406fca:	4659      	mov	r1, fp
  406fcc:	9806      	ldr	r0, [sp, #24]
  406fce:	f000 fd4d 	bl	407a6c <__sbprintf>
  406fd2:	9003      	str	r0, [sp, #12]
  406fd4:	9803      	ldr	r0, [sp, #12]
  406fd6:	b02d      	add	sp, #180	; 0xb4
  406fd8:	e8bd 8ff0 	ldmia.w	sp!, {r4, r5, r6, r7, r8, r9, sl, fp, pc}
  406fdc:	f000 fef4 	bl	407dc8 <__sinit>
  406fe0:	e709      	b.n	406df6 <_vfiprintf_r+0x1a>
  406fe2:	f8db 3064 	ldr.w	r3, [fp, #100]	; 0x64
  406fe6:	07d9      	lsls	r1, r3, #31
  406fe8:	d404      	bmi.n	406ff4 <_vfiprintf_r+0x218>
  406fea:	f8bb 300c 	ldrh.w	r3, [fp, #12]
  406fee:	059a      	lsls	r2, r3, #22
  406ff0:	f140 84aa 	bpl.w	407948 <_vfiprintf_r+0xb6c>
  406ff4:	f04f 33ff 	mov.w	r3, #4294967295
  406ff8:	9303      	str	r3, [sp, #12]
  406ffa:	9803      	ldr	r0, [sp, #12]
  406ffc:	b02d      	add	sp, #180	; 0xb4
  406ffe:	e8bd 8ff0 	ldmia.w	sp!, {r4, r5, r6, r7, r8, r9, sl, fp, pc}
  407002:	f8db 0058 	ldr.w	r0, [fp, #88]	; 0x58
  407006:	f001 fa9f 	bl	408548 <__retarget_lock_acquire_recursive>
  40700a:	f9bb 000c 	ldrsh.w	r0, [fp, #12]
  40700e:	b281      	uxth	r1, r0
  407010:	e6fb      	b.n	406e0a <_vfiprintf_r+0x2e>
  407012:	4276      	negs	r6, r6
  407014:	9207      	str	r2, [sp, #28]
  407016:	f043 0304 	orr.w	r3, r3, #4
  40701a:	f898 2000 	ldrb.w	r2, [r8]
  40701e:	e74f      	b.n	406ec0 <_vfiprintf_r+0xe4>
  407020:	9608      	str	r6, [sp, #32]
  407022:	069e      	lsls	r6, r3, #26
  407024:	f100 8450 	bmi.w	4078c8 <_vfiprintf_r+0xaec>
  407028:	9907      	ldr	r1, [sp, #28]
  40702a:	06dd      	lsls	r5, r3, #27
  40702c:	460a      	mov	r2, r1
  40702e:	f100 83ef 	bmi.w	407810 <_vfiprintf_r+0xa34>
  407032:	0658      	lsls	r0, r3, #25
  407034:	f140 83ec 	bpl.w	407810 <_vfiprintf_r+0xa34>
  407038:	880e      	ldrh	r6, [r1, #0]
  40703a:	3104      	adds	r1, #4
  40703c:	2700      	movs	r7, #0
  40703e:	2201      	movs	r2, #1
  407040:	9107      	str	r1, [sp, #28]
  407042:	f04f 0100 	mov.w	r1, #0
  407046:	f88d 1037 	strb.w	r1, [sp, #55]	; 0x37
  40704a:	2500      	movs	r5, #0
  40704c:	1c61      	adds	r1, r4, #1
  40704e:	f000 8116 	beq.w	40727e <_vfiprintf_r+0x4a2>
  407052:	f023 0180 	bic.w	r1, r3, #128	; 0x80
  407056:	9102      	str	r1, [sp, #8]
  407058:	ea56 0107 	orrs.w	r1, r6, r7
  40705c:	f040 8114 	bne.w	407288 <_vfiprintf_r+0x4ac>
  407060:	2c00      	cmp	r4, #0
  407062:	f040 835c 	bne.w	40771e <_vfiprintf_r+0x942>
  407066:	2a00      	cmp	r2, #0
  407068:	f040 83b7 	bne.w	4077da <_vfiprintf_r+0x9fe>
  40706c:	f013 0301 	ands.w	r3, r3, #1
  407070:	9305      	str	r3, [sp, #20]
  407072:	f000 8457 	beq.w	407924 <_vfiprintf_r+0xb48>
  407076:	f10d 0bb0 	add.w	fp, sp, #176	; 0xb0
  40707a:	2330      	movs	r3, #48	; 0x30
  40707c:	f80b 3d41 	strb.w	r3, [fp, #-65]!
  407080:	9b05      	ldr	r3, [sp, #20]
  407082:	42a3      	cmp	r3, r4
  407084:	bfb8      	it	lt
  407086:	4623      	movlt	r3, r4
  407088:	9301      	str	r3, [sp, #4]
  40708a:	b10d      	cbz	r5, 407090 <_vfiprintf_r+0x2b4>
  40708c:	3301      	adds	r3, #1
  40708e:	9301      	str	r3, [sp, #4]
  407090:	9b02      	ldr	r3, [sp, #8]
  407092:	f013 0302 	ands.w	r3, r3, #2
  407096:	9309      	str	r3, [sp, #36]	; 0x24
  407098:	d002      	beq.n	4070a0 <_vfiprintf_r+0x2c4>
  40709a:	9b01      	ldr	r3, [sp, #4]
  40709c:	3302      	adds	r3, #2
  40709e:	9301      	str	r3, [sp, #4]
  4070a0:	9b02      	ldr	r3, [sp, #8]
  4070a2:	f013 0384 	ands.w	r3, r3, #132	; 0x84
  4070a6:	930a      	str	r3, [sp, #40]	; 0x28
  4070a8:	f040 8217 	bne.w	4074da <_vfiprintf_r+0x6fe>
  4070ac:	9b08      	ldr	r3, [sp, #32]
  4070ae:	9a01      	ldr	r2, [sp, #4]
  4070b0:	1a9d      	subs	r5, r3, r2
  4070b2:	2d00      	cmp	r5, #0
  4070b4:	f340 8211 	ble.w	4074da <_vfiprintf_r+0x6fe>
  4070b8:	2d10      	cmp	r5, #16
  4070ba:	f340 8490 	ble.w	4079de <_vfiprintf_r+0xc02>
  4070be:	9b10      	ldr	r3, [sp, #64]	; 0x40
  4070c0:	9a11      	ldr	r2, [sp, #68]	; 0x44
  4070c2:	4ec4      	ldr	r6, [pc, #784]	; (4073d4 <_vfiprintf_r+0x5f8>)
  4070c4:	46d6      	mov	lr, sl
  4070c6:	2710      	movs	r7, #16
  4070c8:	46a2      	mov	sl, r4
  4070ca:	4619      	mov	r1, r3
  4070cc:	9c06      	ldr	r4, [sp, #24]
  4070ce:	e007      	b.n	4070e0 <_vfiprintf_r+0x304>
  4070d0:	f101 0c02 	add.w	ip, r1, #2
  4070d4:	f10e 0e08 	add.w	lr, lr, #8
  4070d8:	4601      	mov	r1, r0
  4070da:	3d10      	subs	r5, #16
  4070dc:	2d10      	cmp	r5, #16
  4070de:	dd11      	ble.n	407104 <_vfiprintf_r+0x328>
  4070e0:	1c48      	adds	r0, r1, #1
  4070e2:	3210      	adds	r2, #16
  4070e4:	2807      	cmp	r0, #7
  4070e6:	9211      	str	r2, [sp, #68]	; 0x44
  4070e8:	e88e 00c0 	stmia.w	lr, {r6, r7}
  4070ec:	9010      	str	r0, [sp, #64]	; 0x40
  4070ee:	ddef      	ble.n	4070d0 <_vfiprintf_r+0x2f4>
  4070f0:	2a00      	cmp	r2, #0
  4070f2:	f040 81e4 	bne.w	4074be <_vfiprintf_r+0x6e2>
  4070f6:	3d10      	subs	r5, #16
  4070f8:	2d10      	cmp	r5, #16
  4070fa:	4611      	mov	r1, r2
  4070fc:	f04f 0c01 	mov.w	ip, #1
  407100:	46ce      	mov	lr, r9
  407102:	dced      	bgt.n	4070e0 <_vfiprintf_r+0x304>
  407104:	4654      	mov	r4, sl
  407106:	4661      	mov	r1, ip
  407108:	46f2      	mov	sl, lr
  40710a:	442a      	add	r2, r5
  40710c:	2907      	cmp	r1, #7
  40710e:	9211      	str	r2, [sp, #68]	; 0x44
  407110:	f8ca 6000 	str.w	r6, [sl]
  407114:	f8ca 5004 	str.w	r5, [sl, #4]
  407118:	9110      	str	r1, [sp, #64]	; 0x40
  40711a:	f300 82ec 	bgt.w	4076f6 <_vfiprintf_r+0x91a>
  40711e:	f89d 5037 	ldrb.w	r5, [sp, #55]	; 0x37
  407122:	f10a 0a08 	add.w	sl, sl, #8
  407126:	1c48      	adds	r0, r1, #1
  407128:	2d00      	cmp	r5, #0
  40712a:	f040 81de 	bne.w	4074ea <_vfiprintf_r+0x70e>
  40712e:	9b09      	ldr	r3, [sp, #36]	; 0x24
  407130:	2b00      	cmp	r3, #0
  407132:	f000 81f8 	beq.w	407526 <_vfiprintf_r+0x74a>
  407136:	3202      	adds	r2, #2
  407138:	a90e      	add	r1, sp, #56	; 0x38
  40713a:	2302      	movs	r3, #2
  40713c:	2807      	cmp	r0, #7
  40713e:	9211      	str	r2, [sp, #68]	; 0x44
  407140:	9010      	str	r0, [sp, #64]	; 0x40
  407142:	e88a 000a 	stmia.w	sl, {r1, r3}
  407146:	f340 81ea 	ble.w	40751e <_vfiprintf_r+0x742>
  40714a:	2a00      	cmp	r2, #0
  40714c:	f040 838c 	bne.w	407868 <_vfiprintf_r+0xa8c>
  407150:	9b0a      	ldr	r3, [sp, #40]	; 0x28
  407152:	2b80      	cmp	r3, #128	; 0x80
  407154:	f04f 0001 	mov.w	r0, #1
  407158:	4611      	mov	r1, r2
  40715a:	46ca      	mov	sl, r9
  40715c:	f040 81e7 	bne.w	40752e <_vfiprintf_r+0x752>
  407160:	9b08      	ldr	r3, [sp, #32]
  407162:	9d01      	ldr	r5, [sp, #4]
  407164:	1b5e      	subs	r6, r3, r5
  407166:	2e00      	cmp	r6, #0
  407168:	f340 81e1 	ble.w	40752e <_vfiprintf_r+0x752>
  40716c:	2e10      	cmp	r6, #16
  40716e:	4d9a      	ldr	r5, [pc, #616]	; (4073d8 <_vfiprintf_r+0x5fc>)
  407170:	f340 8450 	ble.w	407a14 <_vfiprintf_r+0xc38>
  407174:	46d4      	mov	ip, sl
  407176:	2710      	movs	r7, #16
  407178:	46a2      	mov	sl, r4
  40717a:	9c06      	ldr	r4, [sp, #24]
  40717c:	e007      	b.n	40718e <_vfiprintf_r+0x3b2>
  40717e:	f101 0e02 	add.w	lr, r1, #2
  407182:	f10c 0c08 	add.w	ip, ip, #8
  407186:	4601      	mov	r1, r0
  407188:	3e10      	subs	r6, #16
  40718a:	2e10      	cmp	r6, #16
  40718c:	dd11      	ble.n	4071b2 <_vfiprintf_r+0x3d6>
  40718e:	1c48      	adds	r0, r1, #1
  407190:	3210      	adds	r2, #16
  407192:	2807      	cmp	r0, #7
  407194:	9211      	str	r2, [sp, #68]	; 0x44
  407196:	e88c 00a0 	stmia.w	ip, {r5, r7}
  40719a:	9010      	str	r0, [sp, #64]	; 0x40
  40719c:	ddef      	ble.n	40717e <_vfiprintf_r+0x3a2>
  40719e:	2a00      	cmp	r2, #0
  4071a0:	f040 829d 	bne.w	4076de <_vfiprintf_r+0x902>
  4071a4:	3e10      	subs	r6, #16
  4071a6:	2e10      	cmp	r6, #16
  4071a8:	f04f 0e01 	mov.w	lr, #1
  4071ac:	4611      	mov	r1, r2
  4071ae:	46cc      	mov	ip, r9
  4071b0:	dced      	bgt.n	40718e <_vfiprintf_r+0x3b2>
  4071b2:	4654      	mov	r4, sl
  4071b4:	46e2      	mov	sl, ip
  4071b6:	4432      	add	r2, r6
  4071b8:	f1be 0f07 	cmp.w	lr, #7
  4071bc:	9211      	str	r2, [sp, #68]	; 0x44
  4071be:	e88a 0060 	stmia.w	sl, {r5, r6}
  4071c2:	f8cd e040 	str.w	lr, [sp, #64]	; 0x40
  4071c6:	f300 8369 	bgt.w	40789c <_vfiprintf_r+0xac0>
  4071ca:	f10a 0a08 	add.w	sl, sl, #8
  4071ce:	f10e 0001 	add.w	r0, lr, #1
  4071d2:	4671      	mov	r1, lr
  4071d4:	e1ab      	b.n	40752e <_vfiprintf_r+0x752>
  4071d6:	9608      	str	r6, [sp, #32]
  4071d8:	f013 0220 	ands.w	r2, r3, #32
  4071dc:	f040 838c 	bne.w	4078f8 <_vfiprintf_r+0xb1c>
  4071e0:	f013 0110 	ands.w	r1, r3, #16
  4071e4:	f040 831a 	bne.w	40781c <_vfiprintf_r+0xa40>
  4071e8:	f013 0240 	ands.w	r2, r3, #64	; 0x40
  4071ec:	f000 8316 	beq.w	40781c <_vfiprintf_r+0xa40>
  4071f0:	9807      	ldr	r0, [sp, #28]
  4071f2:	460a      	mov	r2, r1
  4071f4:	4601      	mov	r1, r0
  4071f6:	3104      	adds	r1, #4
  4071f8:	8806      	ldrh	r6, [r0, #0]
  4071fa:	9107      	str	r1, [sp, #28]
  4071fc:	2700      	movs	r7, #0
  4071fe:	e720      	b.n	407042 <_vfiprintf_r+0x266>
  407200:	9608      	str	r6, [sp, #32]
  407202:	f043 0310 	orr.w	r3, r3, #16
  407206:	e7e7      	b.n	4071d8 <_vfiprintf_r+0x3fc>
  407208:	9608      	str	r6, [sp, #32]
  40720a:	f043 0310 	orr.w	r3, r3, #16
  40720e:	e708      	b.n	407022 <_vfiprintf_r+0x246>
  407210:	f043 0380 	orr.w	r3, r3, #128	; 0x80
  407214:	f898 2000 	ldrb.w	r2, [r8]
  407218:	e652      	b.n	406ec0 <_vfiprintf_r+0xe4>
  40721a:	f1a2 0130 	sub.w	r1, r2, #48	; 0x30
  40721e:	2600      	movs	r6, #0
  407220:	f818 2b01 	ldrb.w	r2, [r8], #1
  407224:	eb06 0686 	add.w	r6, r6, r6, lsl #2
  407228:	eb01 0646 	add.w	r6, r1, r6, lsl #1
  40722c:	f1a2 0130 	sub.w	r1, r2, #48	; 0x30
  407230:	2909      	cmp	r1, #9
  407232:	d9f5      	bls.n	407220 <_vfiprintf_r+0x444>
  407234:	e646      	b.n	406ec4 <_vfiprintf_r+0xe8>
  407236:	9608      	str	r6, [sp, #32]
  407238:	2800      	cmp	r0, #0
  40723a:	f040 8408 	bne.w	407a4e <_vfiprintf_r+0xc72>
  40723e:	f043 0310 	orr.w	r3, r3, #16
  407242:	069e      	lsls	r6, r3, #26
  407244:	f100 834c 	bmi.w	4078e0 <_vfiprintf_r+0xb04>
  407248:	06dd      	lsls	r5, r3, #27
  40724a:	f100 82f3 	bmi.w	407834 <_vfiprintf_r+0xa58>
  40724e:	0658      	lsls	r0, r3, #25
  407250:	f140 82f0 	bpl.w	407834 <_vfiprintf_r+0xa58>
  407254:	9d07      	ldr	r5, [sp, #28]
  407256:	f9b5 6000 	ldrsh.w	r6, [r5]
  40725a:	462a      	mov	r2, r5
  40725c:	17f7      	asrs	r7, r6, #31
  40725e:	3204      	adds	r2, #4
  407260:	4630      	mov	r0, r6
  407262:	4639      	mov	r1, r7
  407264:	9207      	str	r2, [sp, #28]
  407266:	2800      	cmp	r0, #0
  407268:	f171 0200 	sbcs.w	r2, r1, #0
  40726c:	f2c0 835d 	blt.w	40792a <_vfiprintf_r+0xb4e>
  407270:	1c61      	adds	r1, r4, #1
  407272:	f89d 5037 	ldrb.w	r5, [sp, #55]	; 0x37
  407276:	f04f 0201 	mov.w	r2, #1
  40727a:	f47f aeea 	bne.w	407052 <_vfiprintf_r+0x276>
  40727e:	ea56 0107 	orrs.w	r1, r6, r7
  407282:	f000 824d 	beq.w	407720 <_vfiprintf_r+0x944>
  407286:	9302      	str	r3, [sp, #8]
  407288:	2a01      	cmp	r2, #1
  40728a:	f000 828c 	beq.w	4077a6 <_vfiprintf_r+0x9ca>
  40728e:	2a02      	cmp	r2, #2
  407290:	f040 825c 	bne.w	40774c <_vfiprintf_r+0x970>
  407294:	980b      	ldr	r0, [sp, #44]	; 0x2c
  407296:	46cb      	mov	fp, r9
  407298:	0933      	lsrs	r3, r6, #4
  40729a:	f006 010f 	and.w	r1, r6, #15
  40729e:	ea43 7307 	orr.w	r3, r3, r7, lsl #28
  4072a2:	093a      	lsrs	r2, r7, #4
  4072a4:	461e      	mov	r6, r3
  4072a6:	4617      	mov	r7, r2
  4072a8:	5c43      	ldrb	r3, [r0, r1]
  4072aa:	f80b 3d01 	strb.w	r3, [fp, #-1]!
  4072ae:	ea56 0307 	orrs.w	r3, r6, r7
  4072b2:	d1f1      	bne.n	407298 <_vfiprintf_r+0x4bc>
  4072b4:	eba9 030b 	sub.w	r3, r9, fp
  4072b8:	9305      	str	r3, [sp, #20]
  4072ba:	e6e1      	b.n	407080 <_vfiprintf_r+0x2a4>
  4072bc:	2800      	cmp	r0, #0
  4072be:	f040 83c0 	bne.w	407a42 <_vfiprintf_r+0xc66>
  4072c2:	0699      	lsls	r1, r3, #26
  4072c4:	f100 8367 	bmi.w	407996 <_vfiprintf_r+0xbba>
  4072c8:	06da      	lsls	r2, r3, #27
  4072ca:	f100 80f1 	bmi.w	4074b0 <_vfiprintf_r+0x6d4>
  4072ce:	065b      	lsls	r3, r3, #25
  4072d0:	f140 80ee 	bpl.w	4074b0 <_vfiprintf_r+0x6d4>
  4072d4:	9a07      	ldr	r2, [sp, #28]
  4072d6:	6813      	ldr	r3, [r2, #0]
  4072d8:	3204      	adds	r2, #4
  4072da:	9207      	str	r2, [sp, #28]
  4072dc:	f8bd 200c 	ldrh.w	r2, [sp, #12]
  4072e0:	801a      	strh	r2, [r3, #0]
  4072e2:	e5b8      	b.n	406e56 <_vfiprintf_r+0x7a>
  4072e4:	9807      	ldr	r0, [sp, #28]
  4072e6:	4a3d      	ldr	r2, [pc, #244]	; (4073dc <_vfiprintf_r+0x600>)
  4072e8:	9608      	str	r6, [sp, #32]
  4072ea:	920b      	str	r2, [sp, #44]	; 0x2c
  4072ec:	6806      	ldr	r6, [r0, #0]
  4072ee:	2278      	movs	r2, #120	; 0x78
  4072f0:	2130      	movs	r1, #48	; 0x30
  4072f2:	3004      	adds	r0, #4
  4072f4:	f88d 2039 	strb.w	r2, [sp, #57]	; 0x39
  4072f8:	f043 0302 	orr.w	r3, r3, #2
  4072fc:	9007      	str	r0, [sp, #28]
  4072fe:	2700      	movs	r7, #0
  407300:	f88d 1038 	strb.w	r1, [sp, #56]	; 0x38
  407304:	2202      	movs	r2, #2
  407306:	e69c      	b.n	407042 <_vfiprintf_r+0x266>
  407308:	9608      	str	r6, [sp, #32]
  40730a:	2800      	cmp	r0, #0
  40730c:	d099      	beq.n	407242 <_vfiprintf_r+0x466>
  40730e:	f88d 5037 	strb.w	r5, [sp, #55]	; 0x37
  407312:	e796      	b.n	407242 <_vfiprintf_r+0x466>
  407314:	f898 2000 	ldrb.w	r2, [r8]
  407318:	2d00      	cmp	r5, #0
  40731a:	f47f add1 	bne.w	406ec0 <_vfiprintf_r+0xe4>
  40731e:	2001      	movs	r0, #1
  407320:	2520      	movs	r5, #32
  407322:	e5cd      	b.n	406ec0 <_vfiprintf_r+0xe4>
  407324:	f043 0301 	orr.w	r3, r3, #1
  407328:	f898 2000 	ldrb.w	r2, [r8]
  40732c:	e5c8      	b.n	406ec0 <_vfiprintf_r+0xe4>
  40732e:	9608      	str	r6, [sp, #32]
  407330:	2800      	cmp	r0, #0
  407332:	f040 8393 	bne.w	407a5c <_vfiprintf_r+0xc80>
  407336:	4929      	ldr	r1, [pc, #164]	; (4073dc <_vfiprintf_r+0x600>)
  407338:	910b      	str	r1, [sp, #44]	; 0x2c
  40733a:	069f      	lsls	r7, r3, #26
  40733c:	f100 82e8 	bmi.w	407910 <_vfiprintf_r+0xb34>
  407340:	9807      	ldr	r0, [sp, #28]
  407342:	06de      	lsls	r6, r3, #27
  407344:	4601      	mov	r1, r0
  407346:	f100 8270 	bmi.w	40782a <_vfiprintf_r+0xa4e>
  40734a:	065d      	lsls	r5, r3, #25
  40734c:	f140 826d 	bpl.w	40782a <_vfiprintf_r+0xa4e>
  407350:	3104      	adds	r1, #4
  407352:	8806      	ldrh	r6, [r0, #0]
  407354:	9107      	str	r1, [sp, #28]
  407356:	2700      	movs	r7, #0
  407358:	07d8      	lsls	r0, r3, #31
  40735a:	f140 8222 	bpl.w	4077a2 <_vfiprintf_r+0x9c6>
  40735e:	ea56 0107 	orrs.w	r1, r6, r7
  407362:	f000 821e 	beq.w	4077a2 <_vfiprintf_r+0x9c6>
  407366:	2130      	movs	r1, #48	; 0x30
  407368:	f88d 2039 	strb.w	r2, [sp, #57]	; 0x39
  40736c:	f043 0302 	orr.w	r3, r3, #2
  407370:	f88d 1038 	strb.w	r1, [sp, #56]	; 0x38
  407374:	2202      	movs	r2, #2
  407376:	e664      	b.n	407042 <_vfiprintf_r+0x266>
  407378:	9608      	str	r6, [sp, #32]
  40737a:	2800      	cmp	r0, #0
  40737c:	f040 836b 	bne.w	407a56 <_vfiprintf_r+0xc7a>
  407380:	4917      	ldr	r1, [pc, #92]	; (4073e0 <_vfiprintf_r+0x604>)
  407382:	910b      	str	r1, [sp, #44]	; 0x2c
  407384:	e7d9      	b.n	40733a <_vfiprintf_r+0x55e>
  407386:	9907      	ldr	r1, [sp, #28]
  407388:	9608      	str	r6, [sp, #32]
  40738a:	680a      	ldr	r2, [r1, #0]
  40738c:	f88d 2048 	strb.w	r2, [sp, #72]	; 0x48
  407390:	f04f 0000 	mov.w	r0, #0
  407394:	460a      	mov	r2, r1
  407396:	f88d 0037 	strb.w	r0, [sp, #55]	; 0x37
  40739a:	3204      	adds	r2, #4
  40739c:	2001      	movs	r0, #1
  40739e:	9001      	str	r0, [sp, #4]
  4073a0:	9207      	str	r2, [sp, #28]
  4073a2:	9005      	str	r0, [sp, #20]
  4073a4:	f10d 0b48 	add.w	fp, sp, #72	; 0x48
  4073a8:	9302      	str	r3, [sp, #8]
  4073aa:	2400      	movs	r4, #0
  4073ac:	e670      	b.n	407090 <_vfiprintf_r+0x2b4>
  4073ae:	f043 0340 	orr.w	r3, r3, #64	; 0x40
  4073b2:	f898 2000 	ldrb.w	r2, [r8]
  4073b6:	e583      	b.n	406ec0 <_vfiprintf_r+0xe4>
  4073b8:	f898 2000 	ldrb.w	r2, [r8]
  4073bc:	2a6c      	cmp	r2, #108	; 0x6c
  4073be:	bf03      	ittte	eq
  4073c0:	f898 2001 	ldrbeq.w	r2, [r8, #1]
  4073c4:	f043 0320 	orreq.w	r3, r3, #32
  4073c8:	f108 0801 	addeq.w	r8, r8, #1
  4073cc:	f043 0310 	orrne.w	r3, r3, #16
  4073d0:	e576      	b.n	406ec0 <_vfiprintf_r+0xe4>
  4073d2:	bf00      	nop
  4073d4:	0040a0ec 	.word	0x0040a0ec
  4073d8:	0040a0fc 	.word	0x0040a0fc
  4073dc:	0040a0d0 	.word	0x0040a0d0
  4073e0:	0040a0bc 	.word	0x0040a0bc
  4073e4:	9907      	ldr	r1, [sp, #28]
  4073e6:	680e      	ldr	r6, [r1, #0]
  4073e8:	460a      	mov	r2, r1
  4073ea:	2e00      	cmp	r6, #0
  4073ec:	f102 0204 	add.w	r2, r2, #4
  4073f0:	f6ff ae0f 	blt.w	407012 <_vfiprintf_r+0x236>
  4073f4:	9207      	str	r2, [sp, #28]
  4073f6:	f898 2000 	ldrb.w	r2, [r8]
  4073fa:	e561      	b.n	406ec0 <_vfiprintf_r+0xe4>
  4073fc:	f898 2000 	ldrb.w	r2, [r8]
  407400:	2001      	movs	r0, #1
  407402:	252b      	movs	r5, #43	; 0x2b
  407404:	e55c      	b.n	406ec0 <_vfiprintf_r+0xe4>
  407406:	9907      	ldr	r1, [sp, #28]
  407408:	9608      	str	r6, [sp, #32]
  40740a:	f8d1 b000 	ldr.w	fp, [r1]
  40740e:	f04f 0200 	mov.w	r2, #0
  407412:	f88d 2037 	strb.w	r2, [sp, #55]	; 0x37
  407416:	1d0e      	adds	r6, r1, #4
  407418:	f1bb 0f00 	cmp.w	fp, #0
  40741c:	f000 82e5 	beq.w	4079ea <_vfiprintf_r+0xc0e>
  407420:	1c67      	adds	r7, r4, #1
  407422:	f000 82c4 	beq.w	4079ae <_vfiprintf_r+0xbd2>
  407426:	4622      	mov	r2, r4
  407428:	2100      	movs	r1, #0
  40742a:	4658      	mov	r0, fp
  40742c:	9301      	str	r3, [sp, #4]
  40742e:	f001 fbd7 	bl	408be0 <memchr>
  407432:	9b01      	ldr	r3, [sp, #4]
  407434:	2800      	cmp	r0, #0
  407436:	f000 82e5 	beq.w	407a04 <_vfiprintf_r+0xc28>
  40743a:	eba0 020b 	sub.w	r2, r0, fp
  40743e:	9205      	str	r2, [sp, #20]
  407440:	9607      	str	r6, [sp, #28]
  407442:	9302      	str	r3, [sp, #8]
  407444:	f89d 5037 	ldrb.w	r5, [sp, #55]	; 0x37
  407448:	2400      	movs	r4, #0
  40744a:	e619      	b.n	407080 <_vfiprintf_r+0x2a4>
  40744c:	f898 2000 	ldrb.w	r2, [r8]
  407450:	2a2a      	cmp	r2, #42	; 0x2a
  407452:	f108 0701 	add.w	r7, r8, #1
  407456:	f000 82e9 	beq.w	407a2c <_vfiprintf_r+0xc50>
  40745a:	f1a2 0130 	sub.w	r1, r2, #48	; 0x30
  40745e:	2909      	cmp	r1, #9
  407460:	46b8      	mov	r8, r7
  407462:	f04f 0400 	mov.w	r4, #0
  407466:	f63f ad2d 	bhi.w	406ec4 <_vfiprintf_r+0xe8>
  40746a:	f818 2b01 	ldrb.w	r2, [r8], #1
  40746e:	eb04 0484 	add.w	r4, r4, r4, lsl #2
  407472:	eb01 0444 	add.w	r4, r1, r4, lsl #1
  407476:	f1a2 0130 	sub.w	r1, r2, #48	; 0x30
  40747a:	2909      	cmp	r1, #9
  40747c:	d9f5      	bls.n	40746a <_vfiprintf_r+0x68e>
  40747e:	e521      	b.n	406ec4 <_vfiprintf_r+0xe8>
  407480:	f043 0320 	orr.w	r3, r3, #32
  407484:	f898 2000 	ldrb.w	r2, [r8]
  407488:	e51a      	b.n	406ec0 <_vfiprintf_r+0xe4>
  40748a:	9608      	str	r6, [sp, #32]
  40748c:	2800      	cmp	r0, #0
  40748e:	f040 82db 	bne.w	407a48 <_vfiprintf_r+0xc6c>
  407492:	2a00      	cmp	r2, #0
  407494:	f000 80e7 	beq.w	407666 <_vfiprintf_r+0x88a>
  407498:	2101      	movs	r1, #1
  40749a:	f88d 2048 	strb.w	r2, [sp, #72]	; 0x48
  40749e:	f04f 0200 	mov.w	r2, #0
  4074a2:	9101      	str	r1, [sp, #4]
  4074a4:	f88d 2037 	strb.w	r2, [sp, #55]	; 0x37
  4074a8:	9105      	str	r1, [sp, #20]
  4074aa:	f10d 0b48 	add.w	fp, sp, #72	; 0x48
  4074ae:	e77b      	b.n	4073a8 <_vfiprintf_r+0x5cc>
  4074b0:	9a07      	ldr	r2, [sp, #28]
  4074b2:	6813      	ldr	r3, [r2, #0]
  4074b4:	3204      	adds	r2, #4
  4074b6:	9207      	str	r2, [sp, #28]
  4074b8:	9a03      	ldr	r2, [sp, #12]
  4074ba:	601a      	str	r2, [r3, #0]
  4074bc:	e4cb      	b.n	406e56 <_vfiprintf_r+0x7a>
  4074be:	aa0f      	add	r2, sp, #60	; 0x3c
  4074c0:	9904      	ldr	r1, [sp, #16]
  4074c2:	4620      	mov	r0, r4
  4074c4:	f7ff fc4a 	bl	406d5c <__sprint_r.part.0>
  4074c8:	2800      	cmp	r0, #0
  4074ca:	f040 8139 	bne.w	407740 <_vfiprintf_r+0x964>
  4074ce:	9910      	ldr	r1, [sp, #64]	; 0x40
  4074d0:	9a11      	ldr	r2, [sp, #68]	; 0x44
  4074d2:	f101 0c01 	add.w	ip, r1, #1
  4074d6:	46ce      	mov	lr, r9
  4074d8:	e5ff      	b.n	4070da <_vfiprintf_r+0x2fe>
  4074da:	9910      	ldr	r1, [sp, #64]	; 0x40
  4074dc:	9a11      	ldr	r2, [sp, #68]	; 0x44
  4074de:	1c48      	adds	r0, r1, #1
  4074e0:	f89d 5037 	ldrb.w	r5, [sp, #55]	; 0x37
  4074e4:	2d00      	cmp	r5, #0
  4074e6:	f43f ae22 	beq.w	40712e <_vfiprintf_r+0x352>
  4074ea:	3201      	adds	r2, #1
  4074ec:	f10d 0537 	add.w	r5, sp, #55	; 0x37
  4074f0:	2101      	movs	r1, #1
  4074f2:	2807      	cmp	r0, #7
  4074f4:	9211      	str	r2, [sp, #68]	; 0x44
  4074f6:	9010      	str	r0, [sp, #64]	; 0x40
  4074f8:	f8ca 5000 	str.w	r5, [sl]
  4074fc:	f8ca 1004 	str.w	r1, [sl, #4]
  407500:	f340 8108 	ble.w	407714 <_vfiprintf_r+0x938>
  407504:	2a00      	cmp	r2, #0
  407506:	f040 81bc 	bne.w	407882 <_vfiprintf_r+0xaa6>
  40750a:	9b09      	ldr	r3, [sp, #36]	; 0x24
  40750c:	2b00      	cmp	r3, #0
  40750e:	f43f ae1f 	beq.w	407150 <_vfiprintf_r+0x374>
  407512:	ab0e      	add	r3, sp, #56	; 0x38
  407514:	2202      	movs	r2, #2
  407516:	4608      	mov	r0, r1
  407518:	931c      	str	r3, [sp, #112]	; 0x70
  40751a:	921d      	str	r2, [sp, #116]	; 0x74
  40751c:	46ca      	mov	sl, r9
  40751e:	4601      	mov	r1, r0
  407520:	f10a 0a08 	add.w	sl, sl, #8
  407524:	3001      	adds	r0, #1
  407526:	9b0a      	ldr	r3, [sp, #40]	; 0x28
  407528:	2b80      	cmp	r3, #128	; 0x80
  40752a:	f43f ae19 	beq.w	407160 <_vfiprintf_r+0x384>
  40752e:	9b05      	ldr	r3, [sp, #20]
  407530:	1ae4      	subs	r4, r4, r3
  407532:	2c00      	cmp	r4, #0
  407534:	dd2e      	ble.n	407594 <_vfiprintf_r+0x7b8>
  407536:	2c10      	cmp	r4, #16
  407538:	4db3      	ldr	r5, [pc, #716]	; (407808 <_vfiprintf_r+0xa2c>)
  40753a:	dd1e      	ble.n	40757a <_vfiprintf_r+0x79e>
  40753c:	46d6      	mov	lr, sl
  40753e:	2610      	movs	r6, #16
  407540:	9f06      	ldr	r7, [sp, #24]
  407542:	f8dd a010 	ldr.w	sl, [sp, #16]
  407546:	e006      	b.n	407556 <_vfiprintf_r+0x77a>
  407548:	1c88      	adds	r0, r1, #2
  40754a:	f10e 0e08 	add.w	lr, lr, #8
  40754e:	4619      	mov	r1, r3
  407550:	3c10      	subs	r4, #16
  407552:	2c10      	cmp	r4, #16
  407554:	dd10      	ble.n	407578 <_vfiprintf_r+0x79c>
  407556:	1c4b      	adds	r3, r1, #1
  407558:	3210      	adds	r2, #16
  40755a:	2b07      	cmp	r3, #7
  40755c:	9211      	str	r2, [sp, #68]	; 0x44
  40755e:	e88e 0060 	stmia.w	lr, {r5, r6}
  407562:	9310      	str	r3, [sp, #64]	; 0x40
  407564:	ddf0      	ble.n	407548 <_vfiprintf_r+0x76c>
  407566:	2a00      	cmp	r2, #0
  407568:	d165      	bne.n	407636 <_vfiprintf_r+0x85a>
  40756a:	3c10      	subs	r4, #16
  40756c:	2c10      	cmp	r4, #16
  40756e:	f04f 0001 	mov.w	r0, #1
  407572:	4611      	mov	r1, r2
  407574:	46ce      	mov	lr, r9
  407576:	dcee      	bgt.n	407556 <_vfiprintf_r+0x77a>
  407578:	46f2      	mov	sl, lr
  40757a:	4422      	add	r2, r4
  40757c:	2807      	cmp	r0, #7
  40757e:	9211      	str	r2, [sp, #68]	; 0x44
  407580:	f8ca 5000 	str.w	r5, [sl]
  407584:	f8ca 4004 	str.w	r4, [sl, #4]
  407588:	9010      	str	r0, [sp, #64]	; 0x40
  40758a:	f300 8085 	bgt.w	407698 <_vfiprintf_r+0x8bc>
  40758e:	f10a 0a08 	add.w	sl, sl, #8
  407592:	3001      	adds	r0, #1
  407594:	9905      	ldr	r1, [sp, #20]
  407596:	f8ca b000 	str.w	fp, [sl]
  40759a:	440a      	add	r2, r1
  40759c:	2807      	cmp	r0, #7
  40759e:	9211      	str	r2, [sp, #68]	; 0x44
  4075a0:	f8ca 1004 	str.w	r1, [sl, #4]
  4075a4:	9010      	str	r0, [sp, #64]	; 0x40
  4075a6:	f340 8082 	ble.w	4076ae <_vfiprintf_r+0x8d2>
  4075aa:	2a00      	cmp	r2, #0
  4075ac:	f040 8118 	bne.w	4077e0 <_vfiprintf_r+0xa04>
  4075b0:	9b02      	ldr	r3, [sp, #8]
  4075b2:	9210      	str	r2, [sp, #64]	; 0x40
  4075b4:	0758      	lsls	r0, r3, #29
  4075b6:	d535      	bpl.n	407624 <_vfiprintf_r+0x848>
  4075b8:	9b08      	ldr	r3, [sp, #32]
  4075ba:	9901      	ldr	r1, [sp, #4]
  4075bc:	1a5c      	subs	r4, r3, r1
  4075be:	2c00      	cmp	r4, #0
  4075c0:	f340 80e7 	ble.w	407792 <_vfiprintf_r+0x9b6>
  4075c4:	46ca      	mov	sl, r9
  4075c6:	2c10      	cmp	r4, #16
  4075c8:	f340 8218 	ble.w	4079fc <_vfiprintf_r+0xc20>
  4075cc:	9910      	ldr	r1, [sp, #64]	; 0x40
  4075ce:	4e8f      	ldr	r6, [pc, #572]	; (40780c <_vfiprintf_r+0xa30>)
  4075d0:	9f06      	ldr	r7, [sp, #24]
  4075d2:	f8dd b010 	ldr.w	fp, [sp, #16]
  4075d6:	2510      	movs	r5, #16
  4075d8:	e006      	b.n	4075e8 <_vfiprintf_r+0x80c>
  4075da:	1c88      	adds	r0, r1, #2
  4075dc:	f10a 0a08 	add.w	sl, sl, #8
  4075e0:	4619      	mov	r1, r3
  4075e2:	3c10      	subs	r4, #16
  4075e4:	2c10      	cmp	r4, #16
  4075e6:	dd11      	ble.n	40760c <_vfiprintf_r+0x830>
  4075e8:	1c4b      	adds	r3, r1, #1
  4075ea:	3210      	adds	r2, #16
  4075ec:	2b07      	cmp	r3, #7
  4075ee:	9211      	str	r2, [sp, #68]	; 0x44
  4075f0:	f8ca 6000 	str.w	r6, [sl]
  4075f4:	f8ca 5004 	str.w	r5, [sl, #4]
  4075f8:	9310      	str	r3, [sp, #64]	; 0x40
  4075fa:	ddee      	ble.n	4075da <_vfiprintf_r+0x7fe>
  4075fc:	bb42      	cbnz	r2, 407650 <_vfiprintf_r+0x874>
  4075fe:	3c10      	subs	r4, #16
  407600:	2c10      	cmp	r4, #16
  407602:	f04f 0001 	mov.w	r0, #1
  407606:	4611      	mov	r1, r2
  407608:	46ca      	mov	sl, r9
  40760a:	dced      	bgt.n	4075e8 <_vfiprintf_r+0x80c>
  40760c:	4422      	add	r2, r4
  40760e:	2807      	cmp	r0, #7
  407610:	9211      	str	r2, [sp, #68]	; 0x44
  407612:	f8ca 6000 	str.w	r6, [sl]
  407616:	f8ca 4004 	str.w	r4, [sl, #4]
  40761a:	9010      	str	r0, [sp, #64]	; 0x40
  40761c:	dd51      	ble.n	4076c2 <_vfiprintf_r+0x8e6>
  40761e:	2a00      	cmp	r2, #0
  407620:	f040 819b 	bne.w	40795a <_vfiprintf_r+0xb7e>
  407624:	9b03      	ldr	r3, [sp, #12]
  407626:	9a08      	ldr	r2, [sp, #32]
  407628:	9901      	ldr	r1, [sp, #4]
  40762a:	428a      	cmp	r2, r1
  40762c:	bfac      	ite	ge
  40762e:	189b      	addge	r3, r3, r2
  407630:	185b      	addlt	r3, r3, r1
  407632:	9303      	str	r3, [sp, #12]
  407634:	e04e      	b.n	4076d4 <_vfiprintf_r+0x8f8>
  407636:	aa0f      	add	r2, sp, #60	; 0x3c
  407638:	4651      	mov	r1, sl
  40763a:	4638      	mov	r0, r7
  40763c:	f7ff fb8e 	bl	406d5c <__sprint_r.part.0>
  407640:	2800      	cmp	r0, #0
  407642:	f040 813f 	bne.w	4078c4 <_vfiprintf_r+0xae8>
  407646:	9910      	ldr	r1, [sp, #64]	; 0x40
  407648:	9a11      	ldr	r2, [sp, #68]	; 0x44
  40764a:	1c48      	adds	r0, r1, #1
  40764c:	46ce      	mov	lr, r9
  40764e:	e77f      	b.n	407550 <_vfiprintf_r+0x774>
  407650:	aa0f      	add	r2, sp, #60	; 0x3c
  407652:	4659      	mov	r1, fp
  407654:	4638      	mov	r0, r7
  407656:	f7ff fb81 	bl	406d5c <__sprint_r.part.0>
  40765a:	b960      	cbnz	r0, 407676 <_vfiprintf_r+0x89a>
  40765c:	9910      	ldr	r1, [sp, #64]	; 0x40
  40765e:	9a11      	ldr	r2, [sp, #68]	; 0x44
  407660:	1c48      	adds	r0, r1, #1
  407662:	46ca      	mov	sl, r9
  407664:	e7bd      	b.n	4075e2 <_vfiprintf_r+0x806>
  407666:	9b11      	ldr	r3, [sp, #68]	; 0x44
  407668:	f8dd b010 	ldr.w	fp, [sp, #16]
  40766c:	2b00      	cmp	r3, #0
  40766e:	f040 81d4 	bne.w	407a1a <_vfiprintf_r+0xc3e>
  407672:	2300      	movs	r3, #0
  407674:	9310      	str	r3, [sp, #64]	; 0x40
  407676:	f8db 3064 	ldr.w	r3, [fp, #100]	; 0x64
  40767a:	f013 0f01 	tst.w	r3, #1
  40767e:	f8bb 300c 	ldrh.w	r3, [fp, #12]
  407682:	d102      	bne.n	40768a <_vfiprintf_r+0x8ae>
  407684:	059a      	lsls	r2, r3, #22
  407686:	f140 80de 	bpl.w	407846 <_vfiprintf_r+0xa6a>
  40768a:	065b      	lsls	r3, r3, #25
  40768c:	f53f acb2 	bmi.w	406ff4 <_vfiprintf_r+0x218>
  407690:	9803      	ldr	r0, [sp, #12]
  407692:	b02d      	add	sp, #180	; 0xb4
  407694:	e8bd 8ff0 	ldmia.w	sp!, {r4, r5, r6, r7, r8, r9, sl, fp, pc}
  407698:	2a00      	cmp	r2, #0
  40769a:	f040 8106 	bne.w	4078aa <_vfiprintf_r+0xace>
  40769e:	9a05      	ldr	r2, [sp, #20]
  4076a0:	921d      	str	r2, [sp, #116]	; 0x74
  4076a2:	2301      	movs	r3, #1
  4076a4:	9211      	str	r2, [sp, #68]	; 0x44
  4076a6:	f8cd b070 	str.w	fp, [sp, #112]	; 0x70
  4076aa:	9310      	str	r3, [sp, #64]	; 0x40
  4076ac:	46ca      	mov	sl, r9
  4076ae:	f10a 0a08 	add.w	sl, sl, #8
  4076b2:	9b02      	ldr	r3, [sp, #8]
  4076b4:	0759      	lsls	r1, r3, #29
  4076b6:	d504      	bpl.n	4076c2 <_vfiprintf_r+0x8e6>
  4076b8:	9b08      	ldr	r3, [sp, #32]
  4076ba:	9901      	ldr	r1, [sp, #4]
  4076bc:	1a5c      	subs	r4, r3, r1
  4076be:	2c00      	cmp	r4, #0
  4076c0:	dc81      	bgt.n	4075c6 <_vfiprintf_r+0x7ea>
  4076c2:	9b03      	ldr	r3, [sp, #12]
  4076c4:	9908      	ldr	r1, [sp, #32]
  4076c6:	9801      	ldr	r0, [sp, #4]
  4076c8:	4281      	cmp	r1, r0
  4076ca:	bfac      	ite	ge
  4076cc:	185b      	addge	r3, r3, r1
  4076ce:	181b      	addlt	r3, r3, r0
  4076d0:	9303      	str	r3, [sp, #12]
  4076d2:	bb72      	cbnz	r2, 407732 <_vfiprintf_r+0x956>
  4076d4:	2300      	movs	r3, #0
  4076d6:	9310      	str	r3, [sp, #64]	; 0x40
  4076d8:	46ca      	mov	sl, r9
  4076da:	f7ff bbbc 	b.w	406e56 <_vfiprintf_r+0x7a>
  4076de:	aa0f      	add	r2, sp, #60	; 0x3c
  4076e0:	9904      	ldr	r1, [sp, #16]
  4076e2:	4620      	mov	r0, r4
  4076e4:	f7ff fb3a 	bl	406d5c <__sprint_r.part.0>
  4076e8:	bb50      	cbnz	r0, 407740 <_vfiprintf_r+0x964>
  4076ea:	9910      	ldr	r1, [sp, #64]	; 0x40
  4076ec:	9a11      	ldr	r2, [sp, #68]	; 0x44
  4076ee:	f101 0e01 	add.w	lr, r1, #1
  4076f2:	46cc      	mov	ip, r9
  4076f4:	e548      	b.n	407188 <_vfiprintf_r+0x3ac>
  4076f6:	2a00      	cmp	r2, #0
  4076f8:	f040 8140 	bne.w	40797c <_vfiprintf_r+0xba0>
  4076fc:	f89d 1037 	ldrb.w	r1, [sp, #55]	; 0x37
  407700:	2900      	cmp	r1, #0
  407702:	f000 811b 	beq.w	40793c <_vfiprintf_r+0xb60>
  407706:	2201      	movs	r2, #1
  407708:	f10d 0137 	add.w	r1, sp, #55	; 0x37
  40770c:	4610      	mov	r0, r2
  40770e:	921d      	str	r2, [sp, #116]	; 0x74
  407710:	911c      	str	r1, [sp, #112]	; 0x70
  407712:	46ca      	mov	sl, r9
  407714:	4601      	mov	r1, r0
  407716:	f10a 0a08 	add.w	sl, sl, #8
  40771a:	3001      	adds	r0, #1
  40771c:	e507      	b.n	40712e <_vfiprintf_r+0x352>
  40771e:	9b02      	ldr	r3, [sp, #8]
  407720:	2a01      	cmp	r2, #1
  407722:	f000 8098 	beq.w	407856 <_vfiprintf_r+0xa7a>
  407726:	2a02      	cmp	r2, #2
  407728:	d10d      	bne.n	407746 <_vfiprintf_r+0x96a>
  40772a:	9302      	str	r3, [sp, #8]
  40772c:	2600      	movs	r6, #0
  40772e:	2700      	movs	r7, #0
  407730:	e5b0      	b.n	407294 <_vfiprintf_r+0x4b8>
  407732:	aa0f      	add	r2, sp, #60	; 0x3c
  407734:	9904      	ldr	r1, [sp, #16]
  407736:	9806      	ldr	r0, [sp, #24]
  407738:	f7ff fb10 	bl	406d5c <__sprint_r.part.0>
  40773c:	2800      	cmp	r0, #0
  40773e:	d0c9      	beq.n	4076d4 <_vfiprintf_r+0x8f8>
  407740:	f8dd b010 	ldr.w	fp, [sp, #16]
  407744:	e797      	b.n	407676 <_vfiprintf_r+0x89a>
  407746:	9302      	str	r3, [sp, #8]
  407748:	2600      	movs	r6, #0
  40774a:	2700      	movs	r7, #0
  40774c:	4649      	mov	r1, r9
  40774e:	e000      	b.n	407752 <_vfiprintf_r+0x976>
  407750:	4659      	mov	r1, fp
  407752:	08f2      	lsrs	r2, r6, #3
  407754:	ea42 7247 	orr.w	r2, r2, r7, lsl #29
  407758:	08f8      	lsrs	r0, r7, #3
  40775a:	f006 0307 	and.w	r3, r6, #7
  40775e:	4607      	mov	r7, r0
  407760:	4616      	mov	r6, r2
  407762:	3330      	adds	r3, #48	; 0x30
  407764:	ea56 0207 	orrs.w	r2, r6, r7
  407768:	f801 3c01 	strb.w	r3, [r1, #-1]
  40776c:	f101 3bff 	add.w	fp, r1, #4294967295
  407770:	d1ee      	bne.n	407750 <_vfiprintf_r+0x974>
  407772:	9a02      	ldr	r2, [sp, #8]
  407774:	07d6      	lsls	r6, r2, #31
  407776:	f57f ad9d 	bpl.w	4072b4 <_vfiprintf_r+0x4d8>
  40777a:	2b30      	cmp	r3, #48	; 0x30
  40777c:	f43f ad9a 	beq.w	4072b4 <_vfiprintf_r+0x4d8>
  407780:	3902      	subs	r1, #2
  407782:	2330      	movs	r3, #48	; 0x30
  407784:	f80b 3c01 	strb.w	r3, [fp, #-1]
  407788:	eba9 0301 	sub.w	r3, r9, r1
  40778c:	9305      	str	r3, [sp, #20]
  40778e:	468b      	mov	fp, r1
  407790:	e476      	b.n	407080 <_vfiprintf_r+0x2a4>
  407792:	9b03      	ldr	r3, [sp, #12]
  407794:	9a08      	ldr	r2, [sp, #32]
  407796:	428a      	cmp	r2, r1
  407798:	bfac      	ite	ge
  40779a:	189b      	addge	r3, r3, r2
  40779c:	185b      	addlt	r3, r3, r1
  40779e:	9303      	str	r3, [sp, #12]
  4077a0:	e798      	b.n	4076d4 <_vfiprintf_r+0x8f8>
  4077a2:	2202      	movs	r2, #2
  4077a4:	e44d      	b.n	407042 <_vfiprintf_r+0x266>
  4077a6:	2f00      	cmp	r7, #0
  4077a8:	bf08      	it	eq
  4077aa:	2e0a      	cmpeq	r6, #10
  4077ac:	d352      	bcc.n	407854 <_vfiprintf_r+0xa78>
  4077ae:	46cb      	mov	fp, r9
  4077b0:	4630      	mov	r0, r6
  4077b2:	4639      	mov	r1, r7
  4077b4:	220a      	movs	r2, #10
  4077b6:	2300      	movs	r3, #0
  4077b8:	f001 fe9c 	bl	4094f4 <__aeabi_uldivmod>
  4077bc:	3230      	adds	r2, #48	; 0x30
  4077be:	f80b 2d01 	strb.w	r2, [fp, #-1]!
  4077c2:	4630      	mov	r0, r6
  4077c4:	4639      	mov	r1, r7
  4077c6:	2300      	movs	r3, #0
  4077c8:	220a      	movs	r2, #10
  4077ca:	f001 fe93 	bl	4094f4 <__aeabi_uldivmod>
  4077ce:	4606      	mov	r6, r0
  4077d0:	460f      	mov	r7, r1
  4077d2:	ea56 0307 	orrs.w	r3, r6, r7
  4077d6:	d1eb      	bne.n	4077b0 <_vfiprintf_r+0x9d4>
  4077d8:	e56c      	b.n	4072b4 <_vfiprintf_r+0x4d8>
  4077da:	9405      	str	r4, [sp, #20]
  4077dc:	46cb      	mov	fp, r9
  4077de:	e44f      	b.n	407080 <_vfiprintf_r+0x2a4>
  4077e0:	aa0f      	add	r2, sp, #60	; 0x3c
  4077e2:	9904      	ldr	r1, [sp, #16]
  4077e4:	9806      	ldr	r0, [sp, #24]
  4077e6:	f7ff fab9 	bl	406d5c <__sprint_r.part.0>
  4077ea:	2800      	cmp	r0, #0
  4077ec:	d1a8      	bne.n	407740 <_vfiprintf_r+0x964>
  4077ee:	9a11      	ldr	r2, [sp, #68]	; 0x44
  4077f0:	46ca      	mov	sl, r9
  4077f2:	e75e      	b.n	4076b2 <_vfiprintf_r+0x8d6>
  4077f4:	aa0f      	add	r2, sp, #60	; 0x3c
  4077f6:	9904      	ldr	r1, [sp, #16]
  4077f8:	9806      	ldr	r0, [sp, #24]
  4077fa:	f7ff faaf 	bl	406d5c <__sprint_r.part.0>
  4077fe:	2800      	cmp	r0, #0
  407800:	d19e      	bne.n	407740 <_vfiprintf_r+0x964>
  407802:	46ca      	mov	sl, r9
  407804:	f7ff bbc0 	b.w	406f88 <_vfiprintf_r+0x1ac>
  407808:	0040a0fc 	.word	0x0040a0fc
  40780c:	0040a0ec 	.word	0x0040a0ec
  407810:	3104      	adds	r1, #4
  407812:	6816      	ldr	r6, [r2, #0]
  407814:	9107      	str	r1, [sp, #28]
  407816:	2201      	movs	r2, #1
  407818:	2700      	movs	r7, #0
  40781a:	e412      	b.n	407042 <_vfiprintf_r+0x266>
  40781c:	9807      	ldr	r0, [sp, #28]
  40781e:	4601      	mov	r1, r0
  407820:	3104      	adds	r1, #4
  407822:	6806      	ldr	r6, [r0, #0]
  407824:	9107      	str	r1, [sp, #28]
  407826:	2700      	movs	r7, #0
  407828:	e40b      	b.n	407042 <_vfiprintf_r+0x266>
  40782a:	680e      	ldr	r6, [r1, #0]
  40782c:	3104      	adds	r1, #4
  40782e:	9107      	str	r1, [sp, #28]
  407830:	2700      	movs	r7, #0
  407832:	e591      	b.n	407358 <_vfiprintf_r+0x57c>
  407834:	9907      	ldr	r1, [sp, #28]
  407836:	680e      	ldr	r6, [r1, #0]
  407838:	460a      	mov	r2, r1
  40783a:	17f7      	asrs	r7, r6, #31
  40783c:	3204      	adds	r2, #4
  40783e:	9207      	str	r2, [sp, #28]
  407840:	4630      	mov	r0, r6
  407842:	4639      	mov	r1, r7
  407844:	e50f      	b.n	407266 <_vfiprintf_r+0x48a>
  407846:	f8db 0058 	ldr.w	r0, [fp, #88]	; 0x58
  40784a:	f000 fe7f 	bl	40854c <__retarget_lock_release_recursive>
  40784e:	f8bb 300c 	ldrh.w	r3, [fp, #12]
  407852:	e71a      	b.n	40768a <_vfiprintf_r+0x8ae>
  407854:	9b02      	ldr	r3, [sp, #8]
  407856:	9302      	str	r3, [sp, #8]
  407858:	f10d 0bb0 	add.w	fp, sp, #176	; 0xb0
  40785c:	3630      	adds	r6, #48	; 0x30
  40785e:	2301      	movs	r3, #1
  407860:	f80b 6d41 	strb.w	r6, [fp, #-65]!
  407864:	9305      	str	r3, [sp, #20]
  407866:	e40b      	b.n	407080 <_vfiprintf_r+0x2a4>
  407868:	aa0f      	add	r2, sp, #60	; 0x3c
  40786a:	9904      	ldr	r1, [sp, #16]
  40786c:	9806      	ldr	r0, [sp, #24]
  40786e:	f7ff fa75 	bl	406d5c <__sprint_r.part.0>
  407872:	2800      	cmp	r0, #0
  407874:	f47f af64 	bne.w	407740 <_vfiprintf_r+0x964>
  407878:	9910      	ldr	r1, [sp, #64]	; 0x40
  40787a:	9a11      	ldr	r2, [sp, #68]	; 0x44
  40787c:	1c48      	adds	r0, r1, #1
  40787e:	46ca      	mov	sl, r9
  407880:	e651      	b.n	407526 <_vfiprintf_r+0x74a>
  407882:	aa0f      	add	r2, sp, #60	; 0x3c
  407884:	9904      	ldr	r1, [sp, #16]
  407886:	9806      	ldr	r0, [sp, #24]
  407888:	f7ff fa68 	bl	406d5c <__sprint_r.part.0>
  40788c:	2800      	cmp	r0, #0
  40788e:	f47f af57 	bne.w	407740 <_vfiprintf_r+0x964>
  407892:	9910      	ldr	r1, [sp, #64]	; 0x40
  407894:	9a11      	ldr	r2, [sp, #68]	; 0x44
  407896:	1c48      	adds	r0, r1, #1
  407898:	46ca      	mov	sl, r9
  40789a:	e448      	b.n	40712e <_vfiprintf_r+0x352>
  40789c:	2a00      	cmp	r2, #0
  40789e:	f040 8091 	bne.w	4079c4 <_vfiprintf_r+0xbe8>
  4078a2:	2001      	movs	r0, #1
  4078a4:	4611      	mov	r1, r2
  4078a6:	46ca      	mov	sl, r9
  4078a8:	e641      	b.n	40752e <_vfiprintf_r+0x752>
  4078aa:	aa0f      	add	r2, sp, #60	; 0x3c
  4078ac:	9904      	ldr	r1, [sp, #16]
  4078ae:	9806      	ldr	r0, [sp, #24]
  4078b0:	f7ff fa54 	bl	406d5c <__sprint_r.part.0>
  4078b4:	2800      	cmp	r0, #0
  4078b6:	f47f af43 	bne.w	407740 <_vfiprintf_r+0x964>
  4078ba:	9810      	ldr	r0, [sp, #64]	; 0x40
  4078bc:	9a11      	ldr	r2, [sp, #68]	; 0x44
  4078be:	3001      	adds	r0, #1
  4078c0:	46ca      	mov	sl, r9
  4078c2:	e667      	b.n	407594 <_vfiprintf_r+0x7b8>
  4078c4:	46d3      	mov	fp, sl
  4078c6:	e6d6      	b.n	407676 <_vfiprintf_r+0x89a>
  4078c8:	9e07      	ldr	r6, [sp, #28]
  4078ca:	3607      	adds	r6, #7
  4078cc:	f026 0207 	bic.w	r2, r6, #7
  4078d0:	f102 0108 	add.w	r1, r2, #8
  4078d4:	e9d2 6700 	ldrd	r6, r7, [r2]
  4078d8:	9107      	str	r1, [sp, #28]
  4078da:	2201      	movs	r2, #1
  4078dc:	f7ff bbb1 	b.w	407042 <_vfiprintf_r+0x266>
  4078e0:	9e07      	ldr	r6, [sp, #28]
  4078e2:	3607      	adds	r6, #7
  4078e4:	f026 0607 	bic.w	r6, r6, #7
  4078e8:	e9d6 0100 	ldrd	r0, r1, [r6]
  4078ec:	f106 0208 	add.w	r2, r6, #8
  4078f0:	9207      	str	r2, [sp, #28]
  4078f2:	4606      	mov	r6, r0
  4078f4:	460f      	mov	r7, r1
  4078f6:	e4b6      	b.n	407266 <_vfiprintf_r+0x48a>
  4078f8:	9e07      	ldr	r6, [sp, #28]
  4078fa:	3607      	adds	r6, #7
  4078fc:	f026 0207 	bic.w	r2, r6, #7
  407900:	f102 0108 	add.w	r1, r2, #8
  407904:	e9d2 6700 	ldrd	r6, r7, [r2]
  407908:	9107      	str	r1, [sp, #28]
  40790a:	2200      	movs	r2, #0
  40790c:	f7ff bb99 	b.w	407042 <_vfiprintf_r+0x266>
  407910:	9e07      	ldr	r6, [sp, #28]
  407912:	3607      	adds	r6, #7
  407914:	f026 0107 	bic.w	r1, r6, #7
  407918:	f101 0008 	add.w	r0, r1, #8
  40791c:	9007      	str	r0, [sp, #28]
  40791e:	e9d1 6700 	ldrd	r6, r7, [r1]
  407922:	e519      	b.n	407358 <_vfiprintf_r+0x57c>
  407924:	46cb      	mov	fp, r9
  407926:	f7ff bbab 	b.w	407080 <_vfiprintf_r+0x2a4>
  40792a:	252d      	movs	r5, #45	; 0x2d
  40792c:	4276      	negs	r6, r6
  40792e:	eb67 0747 	sbc.w	r7, r7, r7, lsl #1
  407932:	f88d 5037 	strb.w	r5, [sp, #55]	; 0x37
  407936:	2201      	movs	r2, #1
  407938:	f7ff bb88 	b.w	40704c <_vfiprintf_r+0x270>
  40793c:	9b09      	ldr	r3, [sp, #36]	; 0x24
  40793e:	b9b3      	cbnz	r3, 40796e <_vfiprintf_r+0xb92>
  407940:	4611      	mov	r1, r2
  407942:	2001      	movs	r0, #1
  407944:	46ca      	mov	sl, r9
  407946:	e5f2      	b.n	40752e <_vfiprintf_r+0x752>
  407948:	f8db 0058 	ldr.w	r0, [fp, #88]	; 0x58
  40794c:	f000 fdfe 	bl	40854c <__retarget_lock_release_recursive>
  407950:	f04f 33ff 	mov.w	r3, #4294967295
  407954:	9303      	str	r3, [sp, #12]
  407956:	f7ff bb50 	b.w	406ffa <_vfiprintf_r+0x21e>
  40795a:	aa0f      	add	r2, sp, #60	; 0x3c
  40795c:	9904      	ldr	r1, [sp, #16]
  40795e:	9806      	ldr	r0, [sp, #24]
  407960:	f7ff f9fc 	bl	406d5c <__sprint_r.part.0>
  407964:	2800      	cmp	r0, #0
  407966:	f47f aeeb 	bne.w	407740 <_vfiprintf_r+0x964>
  40796a:	9a11      	ldr	r2, [sp, #68]	; 0x44
  40796c:	e6a9      	b.n	4076c2 <_vfiprintf_r+0x8e6>
  40796e:	ab0e      	add	r3, sp, #56	; 0x38
  407970:	2202      	movs	r2, #2
  407972:	931c      	str	r3, [sp, #112]	; 0x70
  407974:	921d      	str	r2, [sp, #116]	; 0x74
  407976:	2001      	movs	r0, #1
  407978:	46ca      	mov	sl, r9
  40797a:	e5d0      	b.n	40751e <_vfiprintf_r+0x742>
  40797c:	aa0f      	add	r2, sp, #60	; 0x3c
  40797e:	9904      	ldr	r1, [sp, #16]
  407980:	9806      	ldr	r0, [sp, #24]
  407982:	f7ff f9eb 	bl	406d5c <__sprint_r.part.0>
  407986:	2800      	cmp	r0, #0
  407988:	f47f aeda 	bne.w	407740 <_vfiprintf_r+0x964>
  40798c:	9910      	ldr	r1, [sp, #64]	; 0x40
  40798e:	9a11      	ldr	r2, [sp, #68]	; 0x44
  407990:	1c48      	adds	r0, r1, #1
  407992:	46ca      	mov	sl, r9
  407994:	e5a4      	b.n	4074e0 <_vfiprintf_r+0x704>
  407996:	9a07      	ldr	r2, [sp, #28]
  407998:	9903      	ldr	r1, [sp, #12]
  40799a:	6813      	ldr	r3, [r2, #0]
  40799c:	17cd      	asrs	r5, r1, #31
  40799e:	4608      	mov	r0, r1
  4079a0:	3204      	adds	r2, #4
  4079a2:	4629      	mov	r1, r5
  4079a4:	9207      	str	r2, [sp, #28]
  4079a6:	e9c3 0100 	strd	r0, r1, [r3]
  4079aa:	f7ff ba54 	b.w	406e56 <_vfiprintf_r+0x7a>
  4079ae:	4658      	mov	r0, fp
  4079b0:	9607      	str	r6, [sp, #28]
  4079b2:	9302      	str	r3, [sp, #8]
  4079b4:	f7ff f964 	bl	406c80 <strlen>
  4079b8:	2400      	movs	r4, #0
  4079ba:	9005      	str	r0, [sp, #20]
  4079bc:	f89d 5037 	ldrb.w	r5, [sp, #55]	; 0x37
  4079c0:	f7ff bb5e 	b.w	407080 <_vfiprintf_r+0x2a4>
  4079c4:	aa0f      	add	r2, sp, #60	; 0x3c
  4079c6:	9904      	ldr	r1, [sp, #16]
  4079c8:	9806      	ldr	r0, [sp, #24]
  4079ca:	f7ff f9c7 	bl	406d5c <__sprint_r.part.0>
  4079ce:	2800      	cmp	r0, #0
  4079d0:	f47f aeb6 	bne.w	407740 <_vfiprintf_r+0x964>
  4079d4:	9910      	ldr	r1, [sp, #64]	; 0x40
  4079d6:	9a11      	ldr	r2, [sp, #68]	; 0x44
  4079d8:	1c48      	adds	r0, r1, #1
  4079da:	46ca      	mov	sl, r9
  4079dc:	e5a7      	b.n	40752e <_vfiprintf_r+0x752>
  4079de:	9910      	ldr	r1, [sp, #64]	; 0x40
  4079e0:	9a11      	ldr	r2, [sp, #68]	; 0x44
  4079e2:	4e20      	ldr	r6, [pc, #128]	; (407a64 <_vfiprintf_r+0xc88>)
  4079e4:	3101      	adds	r1, #1
  4079e6:	f7ff bb90 	b.w	40710a <_vfiprintf_r+0x32e>
  4079ea:	2c06      	cmp	r4, #6
  4079ec:	bf28      	it	cs
  4079ee:	2406      	movcs	r4, #6
  4079f0:	9405      	str	r4, [sp, #20]
  4079f2:	9607      	str	r6, [sp, #28]
  4079f4:	9401      	str	r4, [sp, #4]
  4079f6:	f8df b070 	ldr.w	fp, [pc, #112]	; 407a68 <_vfiprintf_r+0xc8c>
  4079fa:	e4d5      	b.n	4073a8 <_vfiprintf_r+0x5cc>
  4079fc:	9810      	ldr	r0, [sp, #64]	; 0x40
  4079fe:	4e19      	ldr	r6, [pc, #100]	; (407a64 <_vfiprintf_r+0xc88>)
  407a00:	3001      	adds	r0, #1
  407a02:	e603      	b.n	40760c <_vfiprintf_r+0x830>
  407a04:	9405      	str	r4, [sp, #20]
  407a06:	f89d 5037 	ldrb.w	r5, [sp, #55]	; 0x37
  407a0a:	9607      	str	r6, [sp, #28]
  407a0c:	9302      	str	r3, [sp, #8]
  407a0e:	4604      	mov	r4, r0
  407a10:	f7ff bb36 	b.w	407080 <_vfiprintf_r+0x2a4>
  407a14:	4686      	mov	lr, r0
  407a16:	f7ff bbce 	b.w	4071b6 <_vfiprintf_r+0x3da>
  407a1a:	9806      	ldr	r0, [sp, #24]
  407a1c:	aa0f      	add	r2, sp, #60	; 0x3c
  407a1e:	4659      	mov	r1, fp
  407a20:	f7ff f99c 	bl	406d5c <__sprint_r.part.0>
  407a24:	2800      	cmp	r0, #0
  407a26:	f43f ae24 	beq.w	407672 <_vfiprintf_r+0x896>
  407a2a:	e624      	b.n	407676 <_vfiprintf_r+0x89a>
  407a2c:	9907      	ldr	r1, [sp, #28]
  407a2e:	f898 2001 	ldrb.w	r2, [r8, #1]
  407a32:	680c      	ldr	r4, [r1, #0]
  407a34:	3104      	adds	r1, #4
  407a36:	ea44 74e4 	orr.w	r4, r4, r4, asr #31
  407a3a:	46b8      	mov	r8, r7
  407a3c:	9107      	str	r1, [sp, #28]
  407a3e:	f7ff ba3f 	b.w	406ec0 <_vfiprintf_r+0xe4>
  407a42:	f88d 5037 	strb.w	r5, [sp, #55]	; 0x37
  407a46:	e43c      	b.n	4072c2 <_vfiprintf_r+0x4e6>
  407a48:	f88d 5037 	strb.w	r5, [sp, #55]	; 0x37
  407a4c:	e521      	b.n	407492 <_vfiprintf_r+0x6b6>
  407a4e:	f88d 5037 	strb.w	r5, [sp, #55]	; 0x37
  407a52:	f7ff bbf4 	b.w	40723e <_vfiprintf_r+0x462>
  407a56:	f88d 5037 	strb.w	r5, [sp, #55]	; 0x37
  407a5a:	e491      	b.n	407380 <_vfiprintf_r+0x5a4>
  407a5c:	f88d 5037 	strb.w	r5, [sp, #55]	; 0x37
  407a60:	e469      	b.n	407336 <_vfiprintf_r+0x55a>
  407a62:	bf00      	nop
  407a64:	0040a0ec 	.word	0x0040a0ec
  407a68:	0040a0e4 	.word	0x0040a0e4

00407a6c <__sbprintf>:
  407a6c:	e92d 41f0 	stmdb	sp!, {r4, r5, r6, r7, r8, lr}
  407a70:	460c      	mov	r4, r1
  407a72:	f5ad 6d8d 	sub.w	sp, sp, #1128	; 0x468
  407a76:	8989      	ldrh	r1, [r1, #12]
  407a78:	6e66      	ldr	r6, [r4, #100]	; 0x64
  407a7a:	89e5      	ldrh	r5, [r4, #14]
  407a7c:	9619      	str	r6, [sp, #100]	; 0x64
  407a7e:	f021 0102 	bic.w	r1, r1, #2
  407a82:	4606      	mov	r6, r0
  407a84:	69e0      	ldr	r0, [r4, #28]
  407a86:	f8ad 100c 	strh.w	r1, [sp, #12]
  407a8a:	4617      	mov	r7, r2
  407a8c:	f44f 6180 	mov.w	r1, #1024	; 0x400
  407a90:	6a62      	ldr	r2, [r4, #36]	; 0x24
  407a92:	f8ad 500e 	strh.w	r5, [sp, #14]
  407a96:	4698      	mov	r8, r3
  407a98:	ad1a      	add	r5, sp, #104	; 0x68
  407a9a:	2300      	movs	r3, #0
  407a9c:	9007      	str	r0, [sp, #28]
  407a9e:	a816      	add	r0, sp, #88	; 0x58
  407aa0:	9209      	str	r2, [sp, #36]	; 0x24
  407aa2:	9306      	str	r3, [sp, #24]
  407aa4:	9500      	str	r5, [sp, #0]
  407aa6:	9504      	str	r5, [sp, #16]
  407aa8:	9102      	str	r1, [sp, #8]
  407aaa:	9105      	str	r1, [sp, #20]
  407aac:	f000 fd48 	bl	408540 <__retarget_lock_init_recursive>
  407ab0:	4643      	mov	r3, r8
  407ab2:	463a      	mov	r2, r7
  407ab4:	4669      	mov	r1, sp
  407ab6:	4630      	mov	r0, r6
  407ab8:	f7ff f990 	bl	406ddc <_vfiprintf_r>
  407abc:	1e05      	subs	r5, r0, #0
  407abe:	db07      	blt.n	407ad0 <__sbprintf+0x64>
  407ac0:	4630      	mov	r0, r6
  407ac2:	4669      	mov	r1, sp
  407ac4:	f000 f928 	bl	407d18 <_fflush_r>
  407ac8:	2800      	cmp	r0, #0
  407aca:	bf18      	it	ne
  407acc:	f04f 35ff 	movne.w	r5, #4294967295
  407ad0:	f8bd 300c 	ldrh.w	r3, [sp, #12]
  407ad4:	065b      	lsls	r3, r3, #25
  407ad6:	d503      	bpl.n	407ae0 <__sbprintf+0x74>
  407ad8:	89a3      	ldrh	r3, [r4, #12]
  407ada:	f043 0340 	orr.w	r3, r3, #64	; 0x40
  407ade:	81a3      	strh	r3, [r4, #12]
  407ae0:	9816      	ldr	r0, [sp, #88]	; 0x58
  407ae2:	f000 fd2f 	bl	408544 <__retarget_lock_close_recursive>
  407ae6:	4628      	mov	r0, r5
  407ae8:	f50d 6d8d 	add.w	sp, sp, #1128	; 0x468
  407aec:	e8bd 81f0 	ldmia.w	sp!, {r4, r5, r6, r7, r8, pc}

00407af0 <__swsetup_r>:
  407af0:	b538      	push	{r3, r4, r5, lr}
  407af2:	4b30      	ldr	r3, [pc, #192]	; (407bb4 <__swsetup_r+0xc4>)
  407af4:	681b      	ldr	r3, [r3, #0]
  407af6:	4605      	mov	r5, r0
  407af8:	460c      	mov	r4, r1
  407afa:	b113      	cbz	r3, 407b02 <__swsetup_r+0x12>
  407afc:	6b9a      	ldr	r2, [r3, #56]	; 0x38
  407afe:	2a00      	cmp	r2, #0
  407b00:	d038      	beq.n	407b74 <__swsetup_r+0x84>
  407b02:	f9b4 200c 	ldrsh.w	r2, [r4, #12]
  407b06:	b293      	uxth	r3, r2
  407b08:	0718      	lsls	r0, r3, #28
  407b0a:	d50c      	bpl.n	407b26 <__swsetup_r+0x36>
  407b0c:	6920      	ldr	r0, [r4, #16]
  407b0e:	b1a8      	cbz	r0, 407b3c <__swsetup_r+0x4c>
  407b10:	f013 0201 	ands.w	r2, r3, #1
  407b14:	d01e      	beq.n	407b54 <__swsetup_r+0x64>
  407b16:	6963      	ldr	r3, [r4, #20]
  407b18:	2200      	movs	r2, #0
  407b1a:	425b      	negs	r3, r3
  407b1c:	61a3      	str	r3, [r4, #24]
  407b1e:	60a2      	str	r2, [r4, #8]
  407b20:	b1f0      	cbz	r0, 407b60 <__swsetup_r+0x70>
  407b22:	2000      	movs	r0, #0
  407b24:	bd38      	pop	{r3, r4, r5, pc}
  407b26:	06d9      	lsls	r1, r3, #27
  407b28:	d53c      	bpl.n	407ba4 <__swsetup_r+0xb4>
  407b2a:	0758      	lsls	r0, r3, #29
  407b2c:	d426      	bmi.n	407b7c <__swsetup_r+0x8c>
  407b2e:	6920      	ldr	r0, [r4, #16]
  407b30:	f042 0308 	orr.w	r3, r2, #8
  407b34:	81a3      	strh	r3, [r4, #12]
  407b36:	b29b      	uxth	r3, r3
  407b38:	2800      	cmp	r0, #0
  407b3a:	d1e9      	bne.n	407b10 <__swsetup_r+0x20>
  407b3c:	f403 7220 	and.w	r2, r3, #640	; 0x280
  407b40:	f5b2 7f00 	cmp.w	r2, #512	; 0x200
  407b44:	d0e4      	beq.n	407b10 <__swsetup_r+0x20>
  407b46:	4628      	mov	r0, r5
  407b48:	4621      	mov	r1, r4
  407b4a:	f000 fd2f 	bl	4085ac <__smakebuf_r>
  407b4e:	89a3      	ldrh	r3, [r4, #12]
  407b50:	6920      	ldr	r0, [r4, #16]
  407b52:	e7dd      	b.n	407b10 <__swsetup_r+0x20>
  407b54:	0799      	lsls	r1, r3, #30
  407b56:	bf58      	it	pl
  407b58:	6962      	ldrpl	r2, [r4, #20]
  407b5a:	60a2      	str	r2, [r4, #8]
  407b5c:	2800      	cmp	r0, #0
  407b5e:	d1e0      	bne.n	407b22 <__swsetup_r+0x32>
  407b60:	f9b4 300c 	ldrsh.w	r3, [r4, #12]
  407b64:	061a      	lsls	r2, r3, #24
  407b66:	d5dd      	bpl.n	407b24 <__swsetup_r+0x34>
  407b68:	f043 0340 	orr.w	r3, r3, #64	; 0x40
  407b6c:	81a3      	strh	r3, [r4, #12]
  407b6e:	f04f 30ff 	mov.w	r0, #4294967295
  407b72:	bd38      	pop	{r3, r4, r5, pc}
  407b74:	4618      	mov	r0, r3
  407b76:	f000 f927 	bl	407dc8 <__sinit>
  407b7a:	e7c2      	b.n	407b02 <__swsetup_r+0x12>
  407b7c:	6b21      	ldr	r1, [r4, #48]	; 0x30
  407b7e:	b151      	cbz	r1, 407b96 <__swsetup_r+0xa6>
  407b80:	f104 0340 	add.w	r3, r4, #64	; 0x40
  407b84:	4299      	cmp	r1, r3
  407b86:	d004      	beq.n	407b92 <__swsetup_r+0xa2>
  407b88:	4628      	mov	r0, r5
  407b8a:	f000 fa43 	bl	408014 <_free_r>
  407b8e:	f9b4 200c 	ldrsh.w	r2, [r4, #12]
  407b92:	2300      	movs	r3, #0
  407b94:	6323      	str	r3, [r4, #48]	; 0x30
  407b96:	2300      	movs	r3, #0
  407b98:	6920      	ldr	r0, [r4, #16]
  407b9a:	6063      	str	r3, [r4, #4]
  407b9c:	f022 0224 	bic.w	r2, r2, #36	; 0x24
  407ba0:	6020      	str	r0, [r4, #0]
  407ba2:	e7c5      	b.n	407b30 <__swsetup_r+0x40>
  407ba4:	f042 0240 	orr.w	r2, r2, #64	; 0x40
  407ba8:	2309      	movs	r3, #9
  407baa:	602b      	str	r3, [r5, #0]
  407bac:	f04f 30ff 	mov.w	r0, #4294967295
  407bb0:	81a2      	strh	r2, [r4, #12]
  407bb2:	bd38      	pop	{r3, r4, r5, pc}
  407bb4:	2040003c 	.word	0x2040003c

00407bb8 <register_fini>:
  407bb8:	4b02      	ldr	r3, [pc, #8]	; (407bc4 <register_fini+0xc>)
  407bba:	b113      	cbz	r3, 407bc2 <register_fini+0xa>
  407bbc:	4802      	ldr	r0, [pc, #8]	; (407bc8 <register_fini+0x10>)
  407bbe:	f000 b805 	b.w	407bcc <atexit>
  407bc2:	4770      	bx	lr
  407bc4:	00000000 	.word	0x00000000
  407bc8:	00407e39 	.word	0x00407e39

00407bcc <atexit>:
  407bcc:	2300      	movs	r3, #0
  407bce:	4601      	mov	r1, r0
  407bd0:	461a      	mov	r2, r3
  407bd2:	4618      	mov	r0, r3
  407bd4:	f001 bb66 	b.w	4092a4 <__register_exitproc>

00407bd8 <__sflush_r>:
  407bd8:	f9b1 300c 	ldrsh.w	r3, [r1, #12]
  407bdc:	b29a      	uxth	r2, r3
  407bde:	e92d 41f0 	stmdb	sp!, {r4, r5, r6, r7, r8, lr}
  407be2:	460d      	mov	r5, r1
  407be4:	0711      	lsls	r1, r2, #28
  407be6:	4680      	mov	r8, r0
  407be8:	d43a      	bmi.n	407c60 <__sflush_r+0x88>
  407bea:	686a      	ldr	r2, [r5, #4]
  407bec:	f443 6300 	orr.w	r3, r3, #2048	; 0x800
  407bf0:	2a00      	cmp	r2, #0
  407bf2:	81ab      	strh	r3, [r5, #12]
  407bf4:	dd6f      	ble.n	407cd6 <__sflush_r+0xfe>
  407bf6:	6aac      	ldr	r4, [r5, #40]	; 0x28
  407bf8:	2c00      	cmp	r4, #0
  407bfa:	d049      	beq.n	407c90 <__sflush_r+0xb8>
  407bfc:	2200      	movs	r2, #0
  407bfe:	b29b      	uxth	r3, r3
  407c00:	f8d8 6000 	ldr.w	r6, [r8]
  407c04:	f8c8 2000 	str.w	r2, [r8]
  407c08:	f413 5280 	ands.w	r2, r3, #4096	; 0x1000
  407c0c:	d067      	beq.n	407cde <__sflush_r+0x106>
  407c0e:	6d2a      	ldr	r2, [r5, #80]	; 0x50
  407c10:	075f      	lsls	r7, r3, #29
  407c12:	d505      	bpl.n	407c20 <__sflush_r+0x48>
  407c14:	6869      	ldr	r1, [r5, #4]
  407c16:	6b2b      	ldr	r3, [r5, #48]	; 0x30
  407c18:	1a52      	subs	r2, r2, r1
  407c1a:	b10b      	cbz	r3, 407c20 <__sflush_r+0x48>
  407c1c:	6beb      	ldr	r3, [r5, #60]	; 0x3c
  407c1e:	1ad2      	subs	r2, r2, r3
  407c20:	2300      	movs	r3, #0
  407c22:	69e9      	ldr	r1, [r5, #28]
  407c24:	4640      	mov	r0, r8
  407c26:	47a0      	blx	r4
  407c28:	1c44      	adds	r4, r0, #1
  407c2a:	d03c      	beq.n	407ca6 <__sflush_r+0xce>
  407c2c:	f9b5 300c 	ldrsh.w	r3, [r5, #12]
  407c30:	692a      	ldr	r2, [r5, #16]
  407c32:	602a      	str	r2, [r5, #0]
  407c34:	f423 6300 	bic.w	r3, r3, #2048	; 0x800
  407c38:	2200      	movs	r2, #0
  407c3a:	81ab      	strh	r3, [r5, #12]
  407c3c:	04db      	lsls	r3, r3, #19
  407c3e:	606a      	str	r2, [r5, #4]
  407c40:	d447      	bmi.n	407cd2 <__sflush_r+0xfa>
  407c42:	6b29      	ldr	r1, [r5, #48]	; 0x30
  407c44:	f8c8 6000 	str.w	r6, [r8]
  407c48:	b311      	cbz	r1, 407c90 <__sflush_r+0xb8>
  407c4a:	f105 0340 	add.w	r3, r5, #64	; 0x40
  407c4e:	4299      	cmp	r1, r3
  407c50:	d002      	beq.n	407c58 <__sflush_r+0x80>
  407c52:	4640      	mov	r0, r8
  407c54:	f000 f9de 	bl	408014 <_free_r>
  407c58:	2000      	movs	r0, #0
  407c5a:	6328      	str	r0, [r5, #48]	; 0x30
  407c5c:	e8bd 81f0 	ldmia.w	sp!, {r4, r5, r6, r7, r8, pc}
  407c60:	692e      	ldr	r6, [r5, #16]
  407c62:	b1ae      	cbz	r6, 407c90 <__sflush_r+0xb8>
  407c64:	682c      	ldr	r4, [r5, #0]
  407c66:	602e      	str	r6, [r5, #0]
  407c68:	0791      	lsls	r1, r2, #30
  407c6a:	bf0c      	ite	eq
  407c6c:	696b      	ldreq	r3, [r5, #20]
  407c6e:	2300      	movne	r3, #0
  407c70:	1ba4      	subs	r4, r4, r6
  407c72:	60ab      	str	r3, [r5, #8]
  407c74:	e00a      	b.n	407c8c <__sflush_r+0xb4>
  407c76:	4623      	mov	r3, r4
  407c78:	4632      	mov	r2, r6
  407c7a:	6a6f      	ldr	r7, [r5, #36]	; 0x24
  407c7c:	69e9      	ldr	r1, [r5, #28]
  407c7e:	4640      	mov	r0, r8
  407c80:	47b8      	blx	r7
  407c82:	2800      	cmp	r0, #0
  407c84:	eba4 0400 	sub.w	r4, r4, r0
  407c88:	4406      	add	r6, r0
  407c8a:	dd04      	ble.n	407c96 <__sflush_r+0xbe>
  407c8c:	2c00      	cmp	r4, #0
  407c8e:	dcf2      	bgt.n	407c76 <__sflush_r+0x9e>
  407c90:	2000      	movs	r0, #0
  407c92:	e8bd 81f0 	ldmia.w	sp!, {r4, r5, r6, r7, r8, pc}
  407c96:	89ab      	ldrh	r3, [r5, #12]
  407c98:	f043 0340 	orr.w	r3, r3, #64	; 0x40
  407c9c:	81ab      	strh	r3, [r5, #12]
  407c9e:	f04f 30ff 	mov.w	r0, #4294967295
  407ca2:	e8bd 81f0 	ldmia.w	sp!, {r4, r5, r6, r7, r8, pc}
  407ca6:	f8d8 4000 	ldr.w	r4, [r8]
  407caa:	2c1d      	cmp	r4, #29
  407cac:	d8f3      	bhi.n	407c96 <__sflush_r+0xbe>
  407cae:	4b19      	ldr	r3, [pc, #100]	; (407d14 <__sflush_r+0x13c>)
  407cb0:	40e3      	lsrs	r3, r4
  407cb2:	43db      	mvns	r3, r3
  407cb4:	f013 0301 	ands.w	r3, r3, #1
  407cb8:	d1ed      	bne.n	407c96 <__sflush_r+0xbe>
  407cba:	f9b5 200c 	ldrsh.w	r2, [r5, #12]
  407cbe:	606b      	str	r3, [r5, #4]
  407cc0:	f422 6300 	bic.w	r3, r2, #2048	; 0x800
  407cc4:	6929      	ldr	r1, [r5, #16]
  407cc6:	81ab      	strh	r3, [r5, #12]
  407cc8:	04da      	lsls	r2, r3, #19
  407cca:	6029      	str	r1, [r5, #0]
  407ccc:	d5b9      	bpl.n	407c42 <__sflush_r+0x6a>
  407cce:	2c00      	cmp	r4, #0
  407cd0:	d1b7      	bne.n	407c42 <__sflush_r+0x6a>
  407cd2:	6528      	str	r0, [r5, #80]	; 0x50
  407cd4:	e7b5      	b.n	407c42 <__sflush_r+0x6a>
  407cd6:	6bea      	ldr	r2, [r5, #60]	; 0x3c
  407cd8:	2a00      	cmp	r2, #0
  407cda:	dc8c      	bgt.n	407bf6 <__sflush_r+0x1e>
  407cdc:	e7d8      	b.n	407c90 <__sflush_r+0xb8>
  407cde:	2301      	movs	r3, #1
  407ce0:	69e9      	ldr	r1, [r5, #28]
  407ce2:	4640      	mov	r0, r8
  407ce4:	47a0      	blx	r4
  407ce6:	1c43      	adds	r3, r0, #1
  407ce8:	4602      	mov	r2, r0
  407cea:	d002      	beq.n	407cf2 <__sflush_r+0x11a>
  407cec:	89ab      	ldrh	r3, [r5, #12]
  407cee:	6aac      	ldr	r4, [r5, #40]	; 0x28
  407cf0:	e78e      	b.n	407c10 <__sflush_r+0x38>
  407cf2:	f8d8 3000 	ldr.w	r3, [r8]
  407cf6:	2b00      	cmp	r3, #0
  407cf8:	d0f8      	beq.n	407cec <__sflush_r+0x114>
  407cfa:	2b1d      	cmp	r3, #29
  407cfc:	d001      	beq.n	407d02 <__sflush_r+0x12a>
  407cfe:	2b16      	cmp	r3, #22
  407d00:	d102      	bne.n	407d08 <__sflush_r+0x130>
  407d02:	f8c8 6000 	str.w	r6, [r8]
  407d06:	e7c3      	b.n	407c90 <__sflush_r+0xb8>
  407d08:	89ab      	ldrh	r3, [r5, #12]
  407d0a:	f043 0340 	orr.w	r3, r3, #64	; 0x40
  407d0e:	81ab      	strh	r3, [r5, #12]
  407d10:	e8bd 81f0 	ldmia.w	sp!, {r4, r5, r6, r7, r8, pc}
  407d14:	20400001 	.word	0x20400001

00407d18 <_fflush_r>:
  407d18:	b538      	push	{r3, r4, r5, lr}
  407d1a:	460d      	mov	r5, r1
  407d1c:	4604      	mov	r4, r0
  407d1e:	b108      	cbz	r0, 407d24 <_fflush_r+0xc>
  407d20:	6b83      	ldr	r3, [r0, #56]	; 0x38
  407d22:	b1bb      	cbz	r3, 407d54 <_fflush_r+0x3c>
  407d24:	f9b5 000c 	ldrsh.w	r0, [r5, #12]
  407d28:	b188      	cbz	r0, 407d4e <_fflush_r+0x36>
  407d2a:	6e6b      	ldr	r3, [r5, #100]	; 0x64
  407d2c:	07db      	lsls	r3, r3, #31
  407d2e:	d401      	bmi.n	407d34 <_fflush_r+0x1c>
  407d30:	0581      	lsls	r1, r0, #22
  407d32:	d517      	bpl.n	407d64 <_fflush_r+0x4c>
  407d34:	4620      	mov	r0, r4
  407d36:	4629      	mov	r1, r5
  407d38:	f7ff ff4e 	bl	407bd8 <__sflush_r>
  407d3c:	6e6b      	ldr	r3, [r5, #100]	; 0x64
  407d3e:	07da      	lsls	r2, r3, #31
  407d40:	4604      	mov	r4, r0
  407d42:	d402      	bmi.n	407d4a <_fflush_r+0x32>
  407d44:	89ab      	ldrh	r3, [r5, #12]
  407d46:	059b      	lsls	r3, r3, #22
  407d48:	d507      	bpl.n	407d5a <_fflush_r+0x42>
  407d4a:	4620      	mov	r0, r4
  407d4c:	bd38      	pop	{r3, r4, r5, pc}
  407d4e:	4604      	mov	r4, r0
  407d50:	4620      	mov	r0, r4
  407d52:	bd38      	pop	{r3, r4, r5, pc}
  407d54:	f000 f838 	bl	407dc8 <__sinit>
  407d58:	e7e4      	b.n	407d24 <_fflush_r+0xc>
  407d5a:	6da8      	ldr	r0, [r5, #88]	; 0x58
  407d5c:	f000 fbf6 	bl	40854c <__retarget_lock_release_recursive>
  407d60:	4620      	mov	r0, r4
  407d62:	bd38      	pop	{r3, r4, r5, pc}
  407d64:	6da8      	ldr	r0, [r5, #88]	; 0x58
  407d66:	f000 fbef 	bl	408548 <__retarget_lock_acquire_recursive>
  407d6a:	e7e3      	b.n	407d34 <_fflush_r+0x1c>

00407d6c <_cleanup_r>:
  407d6c:	4901      	ldr	r1, [pc, #4]	; (407d74 <_cleanup_r+0x8>)
  407d6e:	f000 bbaf 	b.w	4084d0 <_fwalk_reent>
  407d72:	bf00      	nop
  407d74:	0040938d 	.word	0x0040938d

00407d78 <std.isra.0>:
  407d78:	b510      	push	{r4, lr}
  407d7a:	2300      	movs	r3, #0
  407d7c:	4604      	mov	r4, r0
  407d7e:	8181      	strh	r1, [r0, #12]
  407d80:	81c2      	strh	r2, [r0, #14]
  407d82:	6003      	str	r3, [r0, #0]
  407d84:	6043      	str	r3, [r0, #4]
  407d86:	6083      	str	r3, [r0, #8]
  407d88:	6643      	str	r3, [r0, #100]	; 0x64
  407d8a:	6103      	str	r3, [r0, #16]
  407d8c:	6143      	str	r3, [r0, #20]
  407d8e:	6183      	str	r3, [r0, #24]
  407d90:	4619      	mov	r1, r3
  407d92:	2208      	movs	r2, #8
  407d94:	305c      	adds	r0, #92	; 0x5c
  407d96:	f7fe fe3b 	bl	406a10 <memset>
  407d9a:	4807      	ldr	r0, [pc, #28]	; (407db8 <std.isra.0+0x40>)
  407d9c:	4907      	ldr	r1, [pc, #28]	; (407dbc <std.isra.0+0x44>)
  407d9e:	4a08      	ldr	r2, [pc, #32]	; (407dc0 <std.isra.0+0x48>)
  407da0:	4b08      	ldr	r3, [pc, #32]	; (407dc4 <std.isra.0+0x4c>)
  407da2:	6220      	str	r0, [r4, #32]
  407da4:	61e4      	str	r4, [r4, #28]
  407da6:	6261      	str	r1, [r4, #36]	; 0x24
  407da8:	62a2      	str	r2, [r4, #40]	; 0x28
  407daa:	62e3      	str	r3, [r4, #44]	; 0x2c
  407dac:	f104 0058 	add.w	r0, r4, #88	; 0x58
  407db0:	e8bd 4010 	ldmia.w	sp!, {r4, lr}
  407db4:	f000 bbc4 	b.w	408540 <__retarget_lock_init_recursive>
  407db8:	004090d1 	.word	0x004090d1
  407dbc:	004090f5 	.word	0x004090f5
  407dc0:	00409131 	.word	0x00409131
  407dc4:	00409151 	.word	0x00409151

00407dc8 <__sinit>:
  407dc8:	b510      	push	{r4, lr}
  407dca:	4604      	mov	r4, r0
  407dcc:	4812      	ldr	r0, [pc, #72]	; (407e18 <__sinit+0x50>)
  407dce:	f000 fbbb 	bl	408548 <__retarget_lock_acquire_recursive>
  407dd2:	6ba2      	ldr	r2, [r4, #56]	; 0x38
  407dd4:	b9d2      	cbnz	r2, 407e0c <__sinit+0x44>
  407dd6:	f504 733b 	add.w	r3, r4, #748	; 0x2ec
  407dda:	4810      	ldr	r0, [pc, #64]	; (407e1c <__sinit+0x54>)
  407ddc:	f8c4 32e8 	str.w	r3, [r4, #744]	; 0x2e8
  407de0:	2103      	movs	r1, #3
  407de2:	f8c4 22e0 	str.w	r2, [r4, #736]	; 0x2e0
  407de6:	63e0      	str	r0, [r4, #60]	; 0x3c
  407de8:	f8c4 12e4 	str.w	r1, [r4, #740]	; 0x2e4
  407dec:	6860      	ldr	r0, [r4, #4]
  407dee:	2104      	movs	r1, #4
  407df0:	f7ff ffc2 	bl	407d78 <std.isra.0>
  407df4:	2201      	movs	r2, #1
  407df6:	2109      	movs	r1, #9
  407df8:	68a0      	ldr	r0, [r4, #8]
  407dfa:	f7ff ffbd 	bl	407d78 <std.isra.0>
  407dfe:	2202      	movs	r2, #2
  407e00:	2112      	movs	r1, #18
  407e02:	68e0      	ldr	r0, [r4, #12]
  407e04:	f7ff ffb8 	bl	407d78 <std.isra.0>
  407e08:	2301      	movs	r3, #1
  407e0a:	63a3      	str	r3, [r4, #56]	; 0x38
  407e0c:	4802      	ldr	r0, [pc, #8]	; (407e18 <__sinit+0x50>)
  407e0e:	e8bd 4010 	ldmia.w	sp!, {r4, lr}
  407e12:	f000 bb9b 	b.w	40854c <__retarget_lock_release_recursive>
  407e16:	bf00      	nop
  407e18:	2040c534 	.word	0x2040c534
  407e1c:	00407d6d 	.word	0x00407d6d

00407e20 <__sfp_lock_acquire>:
  407e20:	4801      	ldr	r0, [pc, #4]	; (407e28 <__sfp_lock_acquire+0x8>)
  407e22:	f000 bb91 	b.w	408548 <__retarget_lock_acquire_recursive>
  407e26:	bf00      	nop
  407e28:	2040c548 	.word	0x2040c548

00407e2c <__sfp_lock_release>:
  407e2c:	4801      	ldr	r0, [pc, #4]	; (407e34 <__sfp_lock_release+0x8>)
  407e2e:	f000 bb8d 	b.w	40854c <__retarget_lock_release_recursive>
  407e32:	bf00      	nop
  407e34:	2040c548 	.word	0x2040c548

00407e38 <__libc_fini_array>:
  407e38:	b538      	push	{r3, r4, r5, lr}
  407e3a:	4c0a      	ldr	r4, [pc, #40]	; (407e64 <__libc_fini_array+0x2c>)
  407e3c:	4d0a      	ldr	r5, [pc, #40]	; (407e68 <__libc_fini_array+0x30>)
  407e3e:	1b64      	subs	r4, r4, r5
  407e40:	10a4      	asrs	r4, r4, #2
  407e42:	d00a      	beq.n	407e5a <__libc_fini_array+0x22>
  407e44:	f104 4380 	add.w	r3, r4, #1073741824	; 0x40000000
  407e48:	3b01      	subs	r3, #1
  407e4a:	eb05 0583 	add.w	r5, r5, r3, lsl #2
  407e4e:	3c01      	subs	r4, #1
  407e50:	f855 3904 	ldr.w	r3, [r5], #-4
  407e54:	4798      	blx	r3
  407e56:	2c00      	cmp	r4, #0
  407e58:	d1f9      	bne.n	407e4e <__libc_fini_array+0x16>
  407e5a:	e8bd 4038 	ldmia.w	sp!, {r3, r4, r5, lr}
  407e5e:	f002 b9e9 	b.w	40a234 <_fini>
  407e62:	bf00      	nop
  407e64:	0040a244 	.word	0x0040a244
  407e68:	0040a240 	.word	0x0040a240

00407e6c <__fputwc>:
  407e6c:	e92d 47f0 	stmdb	sp!, {r4, r5, r6, r7, r8, r9, sl, lr}
  407e70:	b082      	sub	sp, #8
  407e72:	4680      	mov	r8, r0
  407e74:	4689      	mov	r9, r1
  407e76:	4614      	mov	r4, r2
  407e78:	f000 fb54 	bl	408524 <__locale_mb_cur_max>
  407e7c:	2801      	cmp	r0, #1
  407e7e:	d036      	beq.n	407eee <__fputwc+0x82>
  407e80:	464a      	mov	r2, r9
  407e82:	f104 035c 	add.w	r3, r4, #92	; 0x5c
  407e86:	a901      	add	r1, sp, #4
  407e88:	4640      	mov	r0, r8
  407e8a:	f001 f9bd 	bl	409208 <_wcrtomb_r>
  407e8e:	1c42      	adds	r2, r0, #1
  407e90:	4606      	mov	r6, r0
  407e92:	d025      	beq.n	407ee0 <__fputwc+0x74>
  407e94:	b3a8      	cbz	r0, 407f02 <__fputwc+0x96>
  407e96:	f89d e004 	ldrb.w	lr, [sp, #4]
  407e9a:	2500      	movs	r5, #0
  407e9c:	f10d 0a04 	add.w	sl, sp, #4
  407ea0:	e009      	b.n	407eb6 <__fputwc+0x4a>
  407ea2:	6823      	ldr	r3, [r4, #0]
  407ea4:	1c5a      	adds	r2, r3, #1
  407ea6:	6022      	str	r2, [r4, #0]
  407ea8:	f883 e000 	strb.w	lr, [r3]
  407eac:	3501      	adds	r5, #1
  407eae:	42b5      	cmp	r5, r6
  407eb0:	d227      	bcs.n	407f02 <__fputwc+0x96>
  407eb2:	f815 e00a 	ldrb.w	lr, [r5, sl]
  407eb6:	68a3      	ldr	r3, [r4, #8]
  407eb8:	3b01      	subs	r3, #1
  407eba:	2b00      	cmp	r3, #0
  407ebc:	60a3      	str	r3, [r4, #8]
  407ebe:	daf0      	bge.n	407ea2 <__fputwc+0x36>
  407ec0:	69a7      	ldr	r7, [r4, #24]
  407ec2:	42bb      	cmp	r3, r7
  407ec4:	4671      	mov	r1, lr
  407ec6:	4622      	mov	r2, r4
  407ec8:	4640      	mov	r0, r8
  407eca:	db02      	blt.n	407ed2 <__fputwc+0x66>
  407ecc:	f1be 0f0a 	cmp.w	lr, #10
  407ed0:	d1e7      	bne.n	407ea2 <__fputwc+0x36>
  407ed2:	f001 f941 	bl	409158 <__swbuf_r>
  407ed6:	1c43      	adds	r3, r0, #1
  407ed8:	d1e8      	bne.n	407eac <__fputwc+0x40>
  407eda:	b002      	add	sp, #8
  407edc:	e8bd 87f0 	ldmia.w	sp!, {r4, r5, r6, r7, r8, r9, sl, pc}
  407ee0:	89a3      	ldrh	r3, [r4, #12]
  407ee2:	f043 0340 	orr.w	r3, r3, #64	; 0x40
  407ee6:	81a3      	strh	r3, [r4, #12]
  407ee8:	b002      	add	sp, #8
  407eea:	e8bd 87f0 	ldmia.w	sp!, {r4, r5, r6, r7, r8, r9, sl, pc}
  407eee:	f109 33ff 	add.w	r3, r9, #4294967295
  407ef2:	2bfe      	cmp	r3, #254	; 0xfe
  407ef4:	d8c4      	bhi.n	407e80 <__fputwc+0x14>
  407ef6:	fa5f fe89 	uxtb.w	lr, r9
  407efa:	4606      	mov	r6, r0
  407efc:	f88d e004 	strb.w	lr, [sp, #4]
  407f00:	e7cb      	b.n	407e9a <__fputwc+0x2e>
  407f02:	4648      	mov	r0, r9
  407f04:	b002      	add	sp, #8
  407f06:	e8bd 87f0 	ldmia.w	sp!, {r4, r5, r6, r7, r8, r9, sl, pc}
  407f0a:	bf00      	nop

00407f0c <_fputwc_r>:
  407f0c:	b530      	push	{r4, r5, lr}
  407f0e:	6e53      	ldr	r3, [r2, #100]	; 0x64
  407f10:	f013 0f01 	tst.w	r3, #1
  407f14:	f9b2 300c 	ldrsh.w	r3, [r2, #12]
  407f18:	4614      	mov	r4, r2
  407f1a:	b083      	sub	sp, #12
  407f1c:	4605      	mov	r5, r0
  407f1e:	b29a      	uxth	r2, r3
  407f20:	d101      	bne.n	407f26 <_fputwc_r+0x1a>
  407f22:	0590      	lsls	r0, r2, #22
  407f24:	d51c      	bpl.n	407f60 <_fputwc_r+0x54>
  407f26:	0490      	lsls	r0, r2, #18
  407f28:	d406      	bmi.n	407f38 <_fputwc_r+0x2c>
  407f2a:	6e62      	ldr	r2, [r4, #100]	; 0x64
  407f2c:	f443 5300 	orr.w	r3, r3, #8192	; 0x2000
  407f30:	f442 5200 	orr.w	r2, r2, #8192	; 0x2000
  407f34:	81a3      	strh	r3, [r4, #12]
  407f36:	6662      	str	r2, [r4, #100]	; 0x64
  407f38:	4628      	mov	r0, r5
  407f3a:	4622      	mov	r2, r4
  407f3c:	f7ff ff96 	bl	407e6c <__fputwc>
  407f40:	6e63      	ldr	r3, [r4, #100]	; 0x64
  407f42:	07da      	lsls	r2, r3, #31
  407f44:	4605      	mov	r5, r0
  407f46:	d402      	bmi.n	407f4e <_fputwc_r+0x42>
  407f48:	89a3      	ldrh	r3, [r4, #12]
  407f4a:	059b      	lsls	r3, r3, #22
  407f4c:	d502      	bpl.n	407f54 <_fputwc_r+0x48>
  407f4e:	4628      	mov	r0, r5
  407f50:	b003      	add	sp, #12
  407f52:	bd30      	pop	{r4, r5, pc}
  407f54:	6da0      	ldr	r0, [r4, #88]	; 0x58
  407f56:	f000 faf9 	bl	40854c <__retarget_lock_release_recursive>
  407f5a:	4628      	mov	r0, r5
  407f5c:	b003      	add	sp, #12
  407f5e:	bd30      	pop	{r4, r5, pc}
  407f60:	6da0      	ldr	r0, [r4, #88]	; 0x58
  407f62:	9101      	str	r1, [sp, #4]
  407f64:	f000 faf0 	bl	408548 <__retarget_lock_acquire_recursive>
  407f68:	f9b4 300c 	ldrsh.w	r3, [r4, #12]
  407f6c:	9901      	ldr	r1, [sp, #4]
  407f6e:	b29a      	uxth	r2, r3
  407f70:	e7d9      	b.n	407f26 <_fputwc_r+0x1a>
  407f72:	bf00      	nop

00407f74 <_malloc_trim_r>:
  407f74:	b5f8      	push	{r3, r4, r5, r6, r7, lr}
  407f76:	4f24      	ldr	r7, [pc, #144]	; (408008 <_malloc_trim_r+0x94>)
  407f78:	460c      	mov	r4, r1
  407f7a:	4606      	mov	r6, r0
  407f7c:	f000 fee4 	bl	408d48 <__malloc_lock>
  407f80:	68bb      	ldr	r3, [r7, #8]
  407f82:	685d      	ldr	r5, [r3, #4]
  407f84:	f5c4 617e 	rsb	r1, r4, #4064	; 0xfe0
  407f88:	310f      	adds	r1, #15
  407f8a:	f025 0503 	bic.w	r5, r5, #3
  407f8e:	4429      	add	r1, r5
  407f90:	f421 617f 	bic.w	r1, r1, #4080	; 0xff0
  407f94:	f021 010f 	bic.w	r1, r1, #15
  407f98:	f5a1 5480 	sub.w	r4, r1, #4096	; 0x1000
  407f9c:	f5b4 5f80 	cmp.w	r4, #4096	; 0x1000
  407fa0:	db07      	blt.n	407fb2 <_malloc_trim_r+0x3e>
  407fa2:	2100      	movs	r1, #0
  407fa4:	4630      	mov	r0, r6
  407fa6:	f001 f881 	bl	4090ac <_sbrk_r>
  407faa:	68bb      	ldr	r3, [r7, #8]
  407fac:	442b      	add	r3, r5
  407fae:	4298      	cmp	r0, r3
  407fb0:	d004      	beq.n	407fbc <_malloc_trim_r+0x48>
  407fb2:	4630      	mov	r0, r6
  407fb4:	f000 fece 	bl	408d54 <__malloc_unlock>
  407fb8:	2000      	movs	r0, #0
  407fba:	bdf8      	pop	{r3, r4, r5, r6, r7, pc}
  407fbc:	4261      	negs	r1, r4
  407fbe:	4630      	mov	r0, r6
  407fc0:	f001 f874 	bl	4090ac <_sbrk_r>
  407fc4:	3001      	adds	r0, #1
  407fc6:	d00d      	beq.n	407fe4 <_malloc_trim_r+0x70>
  407fc8:	4b10      	ldr	r3, [pc, #64]	; (40800c <_malloc_trim_r+0x98>)
  407fca:	68ba      	ldr	r2, [r7, #8]
  407fcc:	6819      	ldr	r1, [r3, #0]
  407fce:	1b2d      	subs	r5, r5, r4
  407fd0:	f045 0501 	orr.w	r5, r5, #1
  407fd4:	4630      	mov	r0, r6
  407fd6:	1b09      	subs	r1, r1, r4
  407fd8:	6055      	str	r5, [r2, #4]
  407fda:	6019      	str	r1, [r3, #0]
  407fdc:	f000 feba 	bl	408d54 <__malloc_unlock>
  407fe0:	2001      	movs	r0, #1
  407fe2:	bdf8      	pop	{r3, r4, r5, r6, r7, pc}
  407fe4:	2100      	movs	r1, #0
  407fe6:	4630      	mov	r0, r6
  407fe8:	f001 f860 	bl	4090ac <_sbrk_r>
  407fec:	68ba      	ldr	r2, [r7, #8]
  407fee:	1a83      	subs	r3, r0, r2
  407ff0:	2b0f      	cmp	r3, #15
  407ff2:	ddde      	ble.n	407fb2 <_malloc_trim_r+0x3e>
  407ff4:	4c06      	ldr	r4, [pc, #24]	; (408010 <_malloc_trim_r+0x9c>)
  407ff6:	4905      	ldr	r1, [pc, #20]	; (40800c <_malloc_trim_r+0x98>)
  407ff8:	6824      	ldr	r4, [r4, #0]
  407ffa:	f043 0301 	orr.w	r3, r3, #1
  407ffe:	1b00      	subs	r0, r0, r4
  408000:	6053      	str	r3, [r2, #4]
  408002:	6008      	str	r0, [r1, #0]
  408004:	e7d5      	b.n	407fb2 <_malloc_trim_r+0x3e>
  408006:	bf00      	nop
  408008:	204005d8 	.word	0x204005d8
  40800c:	2040c400 	.word	0x2040c400
  408010:	204009e0 	.word	0x204009e0

00408014 <_free_r>:
  408014:	2900      	cmp	r1, #0
  408016:	d044      	beq.n	4080a2 <_free_r+0x8e>
  408018:	e92d 41f0 	stmdb	sp!, {r4, r5, r6, r7, r8, lr}
  40801c:	460d      	mov	r5, r1
  40801e:	4680      	mov	r8, r0
  408020:	f000 fe92 	bl	408d48 <__malloc_lock>
  408024:	f855 7c04 	ldr.w	r7, [r5, #-4]
  408028:	4969      	ldr	r1, [pc, #420]	; (4081d0 <_free_r+0x1bc>)
  40802a:	f027 0301 	bic.w	r3, r7, #1
  40802e:	f1a5 0408 	sub.w	r4, r5, #8
  408032:	18e2      	adds	r2, r4, r3
  408034:	688e      	ldr	r6, [r1, #8]
  408036:	6850      	ldr	r0, [r2, #4]
  408038:	42b2      	cmp	r2, r6
  40803a:	f020 0003 	bic.w	r0, r0, #3
  40803e:	d05e      	beq.n	4080fe <_free_r+0xea>
  408040:	07fe      	lsls	r6, r7, #31
  408042:	6050      	str	r0, [r2, #4]
  408044:	d40b      	bmi.n	40805e <_free_r+0x4a>
  408046:	f855 7c08 	ldr.w	r7, [r5, #-8]
  40804a:	1be4      	subs	r4, r4, r7
  40804c:	f101 0e08 	add.w	lr, r1, #8
  408050:	68a5      	ldr	r5, [r4, #8]
  408052:	4575      	cmp	r5, lr
  408054:	443b      	add	r3, r7
  408056:	d06d      	beq.n	408134 <_free_r+0x120>
  408058:	68e7      	ldr	r7, [r4, #12]
  40805a:	60ef      	str	r7, [r5, #12]
  40805c:	60bd      	str	r5, [r7, #8]
  40805e:	1815      	adds	r5, r2, r0
  408060:	686d      	ldr	r5, [r5, #4]
  408062:	07ed      	lsls	r5, r5, #31
  408064:	d53e      	bpl.n	4080e4 <_free_r+0xd0>
  408066:	f043 0201 	orr.w	r2, r3, #1
  40806a:	6062      	str	r2, [r4, #4]
  40806c:	50e3      	str	r3, [r4, r3]
  40806e:	f5b3 7f00 	cmp.w	r3, #512	; 0x200
  408072:	d217      	bcs.n	4080a4 <_free_r+0x90>
  408074:	08db      	lsrs	r3, r3, #3
  408076:	1c58      	adds	r0, r3, #1
  408078:	109a      	asrs	r2, r3, #2
  40807a:	684d      	ldr	r5, [r1, #4]
  40807c:	f851 7030 	ldr.w	r7, [r1, r0, lsl #3]
  408080:	60a7      	str	r7, [r4, #8]
  408082:	2301      	movs	r3, #1
  408084:	4093      	lsls	r3, r2
  408086:	eb01 02c0 	add.w	r2, r1, r0, lsl #3
  40808a:	432b      	orrs	r3, r5
  40808c:	3a08      	subs	r2, #8
  40808e:	60e2      	str	r2, [r4, #12]
  408090:	604b      	str	r3, [r1, #4]
  408092:	f841 4030 	str.w	r4, [r1, r0, lsl #3]
  408096:	60fc      	str	r4, [r7, #12]
  408098:	4640      	mov	r0, r8
  40809a:	e8bd 41f0 	ldmia.w	sp!, {r4, r5, r6, r7, r8, lr}
  40809e:	f000 be59 	b.w	408d54 <__malloc_unlock>
  4080a2:	4770      	bx	lr
  4080a4:	0a5a      	lsrs	r2, r3, #9
  4080a6:	2a04      	cmp	r2, #4
  4080a8:	d852      	bhi.n	408150 <_free_r+0x13c>
  4080aa:	099a      	lsrs	r2, r3, #6
  4080ac:	f102 0739 	add.w	r7, r2, #57	; 0x39
  4080b0:	00ff      	lsls	r7, r7, #3
  4080b2:	f102 0538 	add.w	r5, r2, #56	; 0x38
  4080b6:	19c8      	adds	r0, r1, r7
  4080b8:	59ca      	ldr	r2, [r1, r7]
  4080ba:	3808      	subs	r0, #8
  4080bc:	4290      	cmp	r0, r2
  4080be:	d04f      	beq.n	408160 <_free_r+0x14c>
  4080c0:	6851      	ldr	r1, [r2, #4]
  4080c2:	f021 0103 	bic.w	r1, r1, #3
  4080c6:	428b      	cmp	r3, r1
  4080c8:	d232      	bcs.n	408130 <_free_r+0x11c>
  4080ca:	6892      	ldr	r2, [r2, #8]
  4080cc:	4290      	cmp	r0, r2
  4080ce:	d1f7      	bne.n	4080c0 <_free_r+0xac>
  4080d0:	68c3      	ldr	r3, [r0, #12]
  4080d2:	60a0      	str	r0, [r4, #8]
  4080d4:	60e3      	str	r3, [r4, #12]
  4080d6:	609c      	str	r4, [r3, #8]
  4080d8:	60c4      	str	r4, [r0, #12]
  4080da:	4640      	mov	r0, r8
  4080dc:	e8bd 41f0 	ldmia.w	sp!, {r4, r5, r6, r7, r8, lr}
  4080e0:	f000 be38 	b.w	408d54 <__malloc_unlock>
  4080e4:	6895      	ldr	r5, [r2, #8]
  4080e6:	4f3b      	ldr	r7, [pc, #236]	; (4081d4 <_free_r+0x1c0>)
  4080e8:	42bd      	cmp	r5, r7
  4080ea:	4403      	add	r3, r0
  4080ec:	d040      	beq.n	408170 <_free_r+0x15c>
  4080ee:	68d0      	ldr	r0, [r2, #12]
  4080f0:	60e8      	str	r0, [r5, #12]
  4080f2:	f043 0201 	orr.w	r2, r3, #1
  4080f6:	6085      	str	r5, [r0, #8]
  4080f8:	6062      	str	r2, [r4, #4]
  4080fa:	50e3      	str	r3, [r4, r3]
  4080fc:	e7b7      	b.n	40806e <_free_r+0x5a>
  4080fe:	07ff      	lsls	r7, r7, #31
  408100:	4403      	add	r3, r0
  408102:	d407      	bmi.n	408114 <_free_r+0x100>
  408104:	f855 2c08 	ldr.w	r2, [r5, #-8]
  408108:	1aa4      	subs	r4, r4, r2
  40810a:	4413      	add	r3, r2
  40810c:	68a0      	ldr	r0, [r4, #8]
  40810e:	68e2      	ldr	r2, [r4, #12]
  408110:	60c2      	str	r2, [r0, #12]
  408112:	6090      	str	r0, [r2, #8]
  408114:	4a30      	ldr	r2, [pc, #192]	; (4081d8 <_free_r+0x1c4>)
  408116:	6812      	ldr	r2, [r2, #0]
  408118:	f043 0001 	orr.w	r0, r3, #1
  40811c:	4293      	cmp	r3, r2
  40811e:	6060      	str	r0, [r4, #4]
  408120:	608c      	str	r4, [r1, #8]
  408122:	d3b9      	bcc.n	408098 <_free_r+0x84>
  408124:	4b2d      	ldr	r3, [pc, #180]	; (4081dc <_free_r+0x1c8>)
  408126:	4640      	mov	r0, r8
  408128:	6819      	ldr	r1, [r3, #0]
  40812a:	f7ff ff23 	bl	407f74 <_malloc_trim_r>
  40812e:	e7b3      	b.n	408098 <_free_r+0x84>
  408130:	4610      	mov	r0, r2
  408132:	e7cd      	b.n	4080d0 <_free_r+0xbc>
  408134:	1811      	adds	r1, r2, r0
  408136:	6849      	ldr	r1, [r1, #4]
  408138:	07c9      	lsls	r1, r1, #31
  40813a:	d444      	bmi.n	4081c6 <_free_r+0x1b2>
  40813c:	6891      	ldr	r1, [r2, #8]
  40813e:	68d2      	ldr	r2, [r2, #12]
  408140:	60ca      	str	r2, [r1, #12]
  408142:	4403      	add	r3, r0
  408144:	f043 0001 	orr.w	r0, r3, #1
  408148:	6091      	str	r1, [r2, #8]
  40814a:	6060      	str	r0, [r4, #4]
  40814c:	50e3      	str	r3, [r4, r3]
  40814e:	e7a3      	b.n	408098 <_free_r+0x84>
  408150:	2a14      	cmp	r2, #20
  408152:	d816      	bhi.n	408182 <_free_r+0x16e>
  408154:	f102 075c 	add.w	r7, r2, #92	; 0x5c
  408158:	00ff      	lsls	r7, r7, #3
  40815a:	f102 055b 	add.w	r5, r2, #91	; 0x5b
  40815e:	e7aa      	b.n	4080b6 <_free_r+0xa2>
  408160:	10aa      	asrs	r2, r5, #2
  408162:	2301      	movs	r3, #1
  408164:	684d      	ldr	r5, [r1, #4]
  408166:	4093      	lsls	r3, r2
  408168:	432b      	orrs	r3, r5
  40816a:	604b      	str	r3, [r1, #4]
  40816c:	4603      	mov	r3, r0
  40816e:	e7b0      	b.n	4080d2 <_free_r+0xbe>
  408170:	f043 0201 	orr.w	r2, r3, #1
  408174:	614c      	str	r4, [r1, #20]
  408176:	610c      	str	r4, [r1, #16]
  408178:	60e5      	str	r5, [r4, #12]
  40817a:	60a5      	str	r5, [r4, #8]
  40817c:	6062      	str	r2, [r4, #4]
  40817e:	50e3      	str	r3, [r4, r3]
  408180:	e78a      	b.n	408098 <_free_r+0x84>
  408182:	2a54      	cmp	r2, #84	; 0x54
  408184:	d806      	bhi.n	408194 <_free_r+0x180>
  408186:	0b1a      	lsrs	r2, r3, #12
  408188:	f102 076f 	add.w	r7, r2, #111	; 0x6f
  40818c:	00ff      	lsls	r7, r7, #3
  40818e:	f102 056e 	add.w	r5, r2, #110	; 0x6e
  408192:	e790      	b.n	4080b6 <_free_r+0xa2>
  408194:	f5b2 7faa 	cmp.w	r2, #340	; 0x154
  408198:	d806      	bhi.n	4081a8 <_free_r+0x194>
  40819a:	0bda      	lsrs	r2, r3, #15
  40819c:	f102 0778 	add.w	r7, r2, #120	; 0x78
  4081a0:	00ff      	lsls	r7, r7, #3
  4081a2:	f102 0577 	add.w	r5, r2, #119	; 0x77
  4081a6:	e786      	b.n	4080b6 <_free_r+0xa2>
  4081a8:	f240 5054 	movw	r0, #1364	; 0x554
  4081ac:	4282      	cmp	r2, r0
  4081ae:	d806      	bhi.n	4081be <_free_r+0x1aa>
  4081b0:	0c9a      	lsrs	r2, r3, #18
  4081b2:	f102 077d 	add.w	r7, r2, #125	; 0x7d
  4081b6:	00ff      	lsls	r7, r7, #3
  4081b8:	f102 057c 	add.w	r5, r2, #124	; 0x7c
  4081bc:	e77b      	b.n	4080b6 <_free_r+0xa2>
  4081be:	f44f 777e 	mov.w	r7, #1016	; 0x3f8
  4081c2:	257e      	movs	r5, #126	; 0x7e
  4081c4:	e777      	b.n	4080b6 <_free_r+0xa2>
  4081c6:	f043 0101 	orr.w	r1, r3, #1
  4081ca:	6061      	str	r1, [r4, #4]
  4081cc:	6013      	str	r3, [r2, #0]
  4081ce:	e763      	b.n	408098 <_free_r+0x84>
  4081d0:	204005d8 	.word	0x204005d8
  4081d4:	204005e0 	.word	0x204005e0
  4081d8:	204009e4 	.word	0x204009e4
  4081dc:	2040c430 	.word	0x2040c430

004081e0 <__sfvwrite_r>:
  4081e0:	6893      	ldr	r3, [r2, #8]
  4081e2:	2b00      	cmp	r3, #0
  4081e4:	d073      	beq.n	4082ce <__sfvwrite_r+0xee>
  4081e6:	e92d 4ff0 	stmdb	sp!, {r4, r5, r6, r7, r8, r9, sl, fp, lr}
  4081ea:	898b      	ldrh	r3, [r1, #12]
  4081ec:	b083      	sub	sp, #12
  4081ee:	460c      	mov	r4, r1
  4081f0:	0719      	lsls	r1, r3, #28
  4081f2:	9000      	str	r0, [sp, #0]
  4081f4:	4616      	mov	r6, r2
  4081f6:	d526      	bpl.n	408246 <__sfvwrite_r+0x66>
  4081f8:	6922      	ldr	r2, [r4, #16]
  4081fa:	b322      	cbz	r2, 408246 <__sfvwrite_r+0x66>
  4081fc:	f013 0002 	ands.w	r0, r3, #2
  408200:	6835      	ldr	r5, [r6, #0]
  408202:	d02c      	beq.n	40825e <__sfvwrite_r+0x7e>
  408204:	f04f 0900 	mov.w	r9, #0
  408208:	4fb0      	ldr	r7, [pc, #704]	; (4084cc <__sfvwrite_r+0x2ec>)
  40820a:	46c8      	mov	r8, r9
  40820c:	46b2      	mov	sl, r6
  40820e:	45b8      	cmp	r8, r7
  408210:	4643      	mov	r3, r8
  408212:	464a      	mov	r2, r9
  408214:	bf28      	it	cs
  408216:	463b      	movcs	r3, r7
  408218:	9800      	ldr	r0, [sp, #0]
  40821a:	f1b8 0f00 	cmp.w	r8, #0
  40821e:	d050      	beq.n	4082c2 <__sfvwrite_r+0xe2>
  408220:	69e1      	ldr	r1, [r4, #28]
  408222:	6a66      	ldr	r6, [r4, #36]	; 0x24
  408224:	47b0      	blx	r6
  408226:	2800      	cmp	r0, #0
  408228:	dd58      	ble.n	4082dc <__sfvwrite_r+0xfc>
  40822a:	f8da 3008 	ldr.w	r3, [sl, #8]
  40822e:	1a1b      	subs	r3, r3, r0
  408230:	4481      	add	r9, r0
  408232:	eba8 0800 	sub.w	r8, r8, r0
  408236:	f8ca 3008 	str.w	r3, [sl, #8]
  40823a:	2b00      	cmp	r3, #0
  40823c:	d1e7      	bne.n	40820e <__sfvwrite_r+0x2e>
  40823e:	2000      	movs	r0, #0
  408240:	b003      	add	sp, #12
  408242:	e8bd 8ff0 	ldmia.w	sp!, {r4, r5, r6, r7, r8, r9, sl, fp, pc}
  408246:	4621      	mov	r1, r4
  408248:	9800      	ldr	r0, [sp, #0]
  40824a:	f7ff fc51 	bl	407af0 <__swsetup_r>
  40824e:	2800      	cmp	r0, #0
  408250:	f040 8133 	bne.w	4084ba <__sfvwrite_r+0x2da>
  408254:	89a3      	ldrh	r3, [r4, #12]
  408256:	6835      	ldr	r5, [r6, #0]
  408258:	f013 0002 	ands.w	r0, r3, #2
  40825c:	d1d2      	bne.n	408204 <__sfvwrite_r+0x24>
  40825e:	f013 0901 	ands.w	r9, r3, #1
  408262:	d145      	bne.n	4082f0 <__sfvwrite_r+0x110>
  408264:	464f      	mov	r7, r9
  408266:	9601      	str	r6, [sp, #4]
  408268:	b337      	cbz	r7, 4082b8 <__sfvwrite_r+0xd8>
  40826a:	059a      	lsls	r2, r3, #22
  40826c:	f8d4 8008 	ldr.w	r8, [r4, #8]
  408270:	f140 8083 	bpl.w	40837a <__sfvwrite_r+0x19a>
  408274:	4547      	cmp	r7, r8
  408276:	46c3      	mov	fp, r8
  408278:	f0c0 80ab 	bcc.w	4083d2 <__sfvwrite_r+0x1f2>
  40827c:	f413 6f90 	tst.w	r3, #1152	; 0x480
  408280:	f040 80ac 	bne.w	4083dc <__sfvwrite_r+0x1fc>
  408284:	6820      	ldr	r0, [r4, #0]
  408286:	46ba      	mov	sl, r7
  408288:	465a      	mov	r2, fp
  40828a:	4649      	mov	r1, r9
  40828c:	f000 fcf8 	bl	408c80 <memmove>
  408290:	68a2      	ldr	r2, [r4, #8]
  408292:	6823      	ldr	r3, [r4, #0]
  408294:	eba2 0208 	sub.w	r2, r2, r8
  408298:	445b      	add	r3, fp
  40829a:	60a2      	str	r2, [r4, #8]
  40829c:	6023      	str	r3, [r4, #0]
  40829e:	9a01      	ldr	r2, [sp, #4]
  4082a0:	6893      	ldr	r3, [r2, #8]
  4082a2:	eba3 030a 	sub.w	r3, r3, sl
  4082a6:	44d1      	add	r9, sl
  4082a8:	eba7 070a 	sub.w	r7, r7, sl
  4082ac:	6093      	str	r3, [r2, #8]
  4082ae:	2b00      	cmp	r3, #0
  4082b0:	d0c5      	beq.n	40823e <__sfvwrite_r+0x5e>
  4082b2:	89a3      	ldrh	r3, [r4, #12]
  4082b4:	2f00      	cmp	r7, #0
  4082b6:	d1d8      	bne.n	40826a <__sfvwrite_r+0x8a>
  4082b8:	f8d5 9000 	ldr.w	r9, [r5]
  4082bc:	686f      	ldr	r7, [r5, #4]
  4082be:	3508      	adds	r5, #8
  4082c0:	e7d2      	b.n	408268 <__sfvwrite_r+0x88>
  4082c2:	f8d5 9000 	ldr.w	r9, [r5]
  4082c6:	f8d5 8004 	ldr.w	r8, [r5, #4]
  4082ca:	3508      	adds	r5, #8
  4082cc:	e79f      	b.n	40820e <__sfvwrite_r+0x2e>
  4082ce:	2000      	movs	r0, #0
  4082d0:	4770      	bx	lr
  4082d2:	4621      	mov	r1, r4
  4082d4:	9800      	ldr	r0, [sp, #0]
  4082d6:	f7ff fd1f 	bl	407d18 <_fflush_r>
  4082da:	b370      	cbz	r0, 40833a <__sfvwrite_r+0x15a>
  4082dc:	f9b4 300c 	ldrsh.w	r3, [r4, #12]
  4082e0:	f043 0340 	orr.w	r3, r3, #64	; 0x40
  4082e4:	f04f 30ff 	mov.w	r0, #4294967295
  4082e8:	81a3      	strh	r3, [r4, #12]
  4082ea:	b003      	add	sp, #12
  4082ec:	e8bd 8ff0 	ldmia.w	sp!, {r4, r5, r6, r7, r8, r9, sl, fp, pc}
  4082f0:	4681      	mov	r9, r0
  4082f2:	4633      	mov	r3, r6
  4082f4:	464e      	mov	r6, r9
  4082f6:	46a8      	mov	r8, r5
  4082f8:	469a      	mov	sl, r3
  4082fa:	464d      	mov	r5, r9
  4082fc:	b34e      	cbz	r6, 408352 <__sfvwrite_r+0x172>
  4082fe:	b380      	cbz	r0, 408362 <__sfvwrite_r+0x182>
  408300:	6820      	ldr	r0, [r4, #0]
  408302:	6923      	ldr	r3, [r4, #16]
  408304:	6962      	ldr	r2, [r4, #20]
  408306:	45b1      	cmp	r9, r6
  408308:	46cb      	mov	fp, r9
  40830a:	bf28      	it	cs
  40830c:	46b3      	movcs	fp, r6
  40830e:	4298      	cmp	r0, r3
  408310:	465f      	mov	r7, fp
  408312:	d904      	bls.n	40831e <__sfvwrite_r+0x13e>
  408314:	68a3      	ldr	r3, [r4, #8]
  408316:	4413      	add	r3, r2
  408318:	459b      	cmp	fp, r3
  40831a:	f300 80a6 	bgt.w	40846a <__sfvwrite_r+0x28a>
  40831e:	4593      	cmp	fp, r2
  408320:	db4b      	blt.n	4083ba <__sfvwrite_r+0x1da>
  408322:	4613      	mov	r3, r2
  408324:	6a67      	ldr	r7, [r4, #36]	; 0x24
  408326:	69e1      	ldr	r1, [r4, #28]
  408328:	9800      	ldr	r0, [sp, #0]
  40832a:	462a      	mov	r2, r5
  40832c:	47b8      	blx	r7
  40832e:	1e07      	subs	r7, r0, #0
  408330:	ddd4      	ble.n	4082dc <__sfvwrite_r+0xfc>
  408332:	ebb9 0907 	subs.w	r9, r9, r7
  408336:	d0cc      	beq.n	4082d2 <__sfvwrite_r+0xf2>
  408338:	2001      	movs	r0, #1
  40833a:	f8da 3008 	ldr.w	r3, [sl, #8]
  40833e:	1bdb      	subs	r3, r3, r7
  408340:	443d      	add	r5, r7
  408342:	1bf6      	subs	r6, r6, r7
  408344:	f8ca 3008 	str.w	r3, [sl, #8]
  408348:	2b00      	cmp	r3, #0
  40834a:	f43f af78 	beq.w	40823e <__sfvwrite_r+0x5e>
  40834e:	2e00      	cmp	r6, #0
  408350:	d1d5      	bne.n	4082fe <__sfvwrite_r+0x11e>
  408352:	f108 0308 	add.w	r3, r8, #8
  408356:	e913 0060 	ldmdb	r3, {r5, r6}
  40835a:	4698      	mov	r8, r3
  40835c:	3308      	adds	r3, #8
  40835e:	2e00      	cmp	r6, #0
  408360:	d0f9      	beq.n	408356 <__sfvwrite_r+0x176>
  408362:	4632      	mov	r2, r6
  408364:	210a      	movs	r1, #10
  408366:	4628      	mov	r0, r5
  408368:	f000 fc3a 	bl	408be0 <memchr>
  40836c:	2800      	cmp	r0, #0
  40836e:	f000 80a1 	beq.w	4084b4 <__sfvwrite_r+0x2d4>
  408372:	3001      	adds	r0, #1
  408374:	eba0 0905 	sub.w	r9, r0, r5
  408378:	e7c2      	b.n	408300 <__sfvwrite_r+0x120>
  40837a:	6820      	ldr	r0, [r4, #0]
  40837c:	6923      	ldr	r3, [r4, #16]
  40837e:	4298      	cmp	r0, r3
  408380:	d802      	bhi.n	408388 <__sfvwrite_r+0x1a8>
  408382:	6963      	ldr	r3, [r4, #20]
  408384:	429f      	cmp	r7, r3
  408386:	d25d      	bcs.n	408444 <__sfvwrite_r+0x264>
  408388:	45b8      	cmp	r8, r7
  40838a:	bf28      	it	cs
  40838c:	46b8      	movcs	r8, r7
  40838e:	4642      	mov	r2, r8
  408390:	4649      	mov	r1, r9
  408392:	f000 fc75 	bl	408c80 <memmove>
  408396:	68a3      	ldr	r3, [r4, #8]
  408398:	6822      	ldr	r2, [r4, #0]
  40839a:	eba3 0308 	sub.w	r3, r3, r8
  40839e:	4442      	add	r2, r8
  4083a0:	60a3      	str	r3, [r4, #8]
  4083a2:	6022      	str	r2, [r4, #0]
  4083a4:	b10b      	cbz	r3, 4083aa <__sfvwrite_r+0x1ca>
  4083a6:	46c2      	mov	sl, r8
  4083a8:	e779      	b.n	40829e <__sfvwrite_r+0xbe>
  4083aa:	4621      	mov	r1, r4
  4083ac:	9800      	ldr	r0, [sp, #0]
  4083ae:	f7ff fcb3 	bl	407d18 <_fflush_r>
  4083b2:	2800      	cmp	r0, #0
  4083b4:	d192      	bne.n	4082dc <__sfvwrite_r+0xfc>
  4083b6:	46c2      	mov	sl, r8
  4083b8:	e771      	b.n	40829e <__sfvwrite_r+0xbe>
  4083ba:	465a      	mov	r2, fp
  4083bc:	4629      	mov	r1, r5
  4083be:	f000 fc5f 	bl	408c80 <memmove>
  4083c2:	68a2      	ldr	r2, [r4, #8]
  4083c4:	6823      	ldr	r3, [r4, #0]
  4083c6:	eba2 020b 	sub.w	r2, r2, fp
  4083ca:	445b      	add	r3, fp
  4083cc:	60a2      	str	r2, [r4, #8]
  4083ce:	6023      	str	r3, [r4, #0]
  4083d0:	e7af      	b.n	408332 <__sfvwrite_r+0x152>
  4083d2:	6820      	ldr	r0, [r4, #0]
  4083d4:	46b8      	mov	r8, r7
  4083d6:	46ba      	mov	sl, r7
  4083d8:	46bb      	mov	fp, r7
  4083da:	e755      	b.n	408288 <__sfvwrite_r+0xa8>
  4083dc:	6962      	ldr	r2, [r4, #20]
  4083de:	6820      	ldr	r0, [r4, #0]
  4083e0:	6921      	ldr	r1, [r4, #16]
  4083e2:	eb02 0842 	add.w	r8, r2, r2, lsl #1
  4083e6:	eba0 0a01 	sub.w	sl, r0, r1
  4083ea:	eb08 78d8 	add.w	r8, r8, r8, lsr #31
  4083ee:	f10a 0001 	add.w	r0, sl, #1
  4083f2:	ea4f 0868 	mov.w	r8, r8, asr #1
  4083f6:	4438      	add	r0, r7
  4083f8:	4540      	cmp	r0, r8
  4083fa:	4642      	mov	r2, r8
  4083fc:	bf84      	itt	hi
  4083fe:	4680      	movhi	r8, r0
  408400:	4642      	movhi	r2, r8
  408402:	055b      	lsls	r3, r3, #21
  408404:	d544      	bpl.n	408490 <__sfvwrite_r+0x2b0>
  408406:	4611      	mov	r1, r2
  408408:	9800      	ldr	r0, [sp, #0]
  40840a:	f000 f921 	bl	408650 <_malloc_r>
  40840e:	4683      	mov	fp, r0
  408410:	2800      	cmp	r0, #0
  408412:	d055      	beq.n	4084c0 <__sfvwrite_r+0x2e0>
  408414:	4652      	mov	r2, sl
  408416:	6921      	ldr	r1, [r4, #16]
  408418:	f7fe fa60 	bl	4068dc <memcpy>
  40841c:	89a3      	ldrh	r3, [r4, #12]
  40841e:	f423 6390 	bic.w	r3, r3, #1152	; 0x480
  408422:	f043 0380 	orr.w	r3, r3, #128	; 0x80
  408426:	81a3      	strh	r3, [r4, #12]
  408428:	eb0b 000a 	add.w	r0, fp, sl
  40842c:	eba8 030a 	sub.w	r3, r8, sl
  408430:	f8c4 b010 	str.w	fp, [r4, #16]
  408434:	f8c4 8014 	str.w	r8, [r4, #20]
  408438:	6020      	str	r0, [r4, #0]
  40843a:	60a3      	str	r3, [r4, #8]
  40843c:	46b8      	mov	r8, r7
  40843e:	46ba      	mov	sl, r7
  408440:	46bb      	mov	fp, r7
  408442:	e721      	b.n	408288 <__sfvwrite_r+0xa8>
  408444:	f06f 4100 	mvn.w	r1, #2147483648	; 0x80000000
  408448:	42b9      	cmp	r1, r7
  40844a:	bf28      	it	cs
  40844c:	4639      	movcs	r1, r7
  40844e:	464a      	mov	r2, r9
  408450:	fb91 f1f3 	sdiv	r1, r1, r3
  408454:	9800      	ldr	r0, [sp, #0]
  408456:	6a66      	ldr	r6, [r4, #36]	; 0x24
  408458:	fb03 f301 	mul.w	r3, r3, r1
  40845c:	69e1      	ldr	r1, [r4, #28]
  40845e:	47b0      	blx	r6
  408460:	f1b0 0a00 	subs.w	sl, r0, #0
  408464:	f73f af1b 	bgt.w	40829e <__sfvwrite_r+0xbe>
  408468:	e738      	b.n	4082dc <__sfvwrite_r+0xfc>
  40846a:	461a      	mov	r2, r3
  40846c:	4629      	mov	r1, r5
  40846e:	9301      	str	r3, [sp, #4]
  408470:	f000 fc06 	bl	408c80 <memmove>
  408474:	6822      	ldr	r2, [r4, #0]
  408476:	9b01      	ldr	r3, [sp, #4]
  408478:	9800      	ldr	r0, [sp, #0]
  40847a:	441a      	add	r2, r3
  40847c:	6022      	str	r2, [r4, #0]
  40847e:	4621      	mov	r1, r4
  408480:	f7ff fc4a 	bl	407d18 <_fflush_r>
  408484:	9b01      	ldr	r3, [sp, #4]
  408486:	2800      	cmp	r0, #0
  408488:	f47f af28 	bne.w	4082dc <__sfvwrite_r+0xfc>
  40848c:	461f      	mov	r7, r3
  40848e:	e750      	b.n	408332 <__sfvwrite_r+0x152>
  408490:	9800      	ldr	r0, [sp, #0]
  408492:	f000 fc65 	bl	408d60 <_realloc_r>
  408496:	4683      	mov	fp, r0
  408498:	2800      	cmp	r0, #0
  40849a:	d1c5      	bne.n	408428 <__sfvwrite_r+0x248>
  40849c:	9d00      	ldr	r5, [sp, #0]
  40849e:	6921      	ldr	r1, [r4, #16]
  4084a0:	4628      	mov	r0, r5
  4084a2:	f7ff fdb7 	bl	408014 <_free_r>
  4084a6:	f9b4 300c 	ldrsh.w	r3, [r4, #12]
  4084aa:	220c      	movs	r2, #12
  4084ac:	f023 0380 	bic.w	r3, r3, #128	; 0x80
  4084b0:	602a      	str	r2, [r5, #0]
  4084b2:	e715      	b.n	4082e0 <__sfvwrite_r+0x100>
  4084b4:	f106 0901 	add.w	r9, r6, #1
  4084b8:	e722      	b.n	408300 <__sfvwrite_r+0x120>
  4084ba:	f04f 30ff 	mov.w	r0, #4294967295
  4084be:	e6bf      	b.n	408240 <__sfvwrite_r+0x60>
  4084c0:	9a00      	ldr	r2, [sp, #0]
  4084c2:	230c      	movs	r3, #12
  4084c4:	6013      	str	r3, [r2, #0]
  4084c6:	f9b4 300c 	ldrsh.w	r3, [r4, #12]
  4084ca:	e709      	b.n	4082e0 <__sfvwrite_r+0x100>
  4084cc:	7ffffc00 	.word	0x7ffffc00

004084d0 <_fwalk_reent>:
  4084d0:	e92d 43f8 	stmdb	sp!, {r3, r4, r5, r6, r7, r8, r9, lr}
  4084d4:	f510 7738 	adds.w	r7, r0, #736	; 0x2e0
  4084d8:	d01f      	beq.n	40851a <_fwalk_reent+0x4a>
  4084da:	4688      	mov	r8, r1
  4084dc:	4606      	mov	r6, r0
  4084de:	f04f 0900 	mov.w	r9, #0
  4084e2:	687d      	ldr	r5, [r7, #4]
  4084e4:	68bc      	ldr	r4, [r7, #8]
  4084e6:	3d01      	subs	r5, #1
  4084e8:	d411      	bmi.n	40850e <_fwalk_reent+0x3e>
  4084ea:	89a3      	ldrh	r3, [r4, #12]
  4084ec:	2b01      	cmp	r3, #1
  4084ee:	f105 35ff 	add.w	r5, r5, #4294967295
  4084f2:	d908      	bls.n	408506 <_fwalk_reent+0x36>
  4084f4:	f9b4 300e 	ldrsh.w	r3, [r4, #14]
  4084f8:	3301      	adds	r3, #1
  4084fa:	4621      	mov	r1, r4
  4084fc:	4630      	mov	r0, r6
  4084fe:	d002      	beq.n	408506 <_fwalk_reent+0x36>
  408500:	47c0      	blx	r8
  408502:	ea49 0900 	orr.w	r9, r9, r0
  408506:	1c6b      	adds	r3, r5, #1
  408508:	f104 0468 	add.w	r4, r4, #104	; 0x68
  40850c:	d1ed      	bne.n	4084ea <_fwalk_reent+0x1a>
  40850e:	683f      	ldr	r7, [r7, #0]
  408510:	2f00      	cmp	r7, #0
  408512:	d1e6      	bne.n	4084e2 <_fwalk_reent+0x12>
  408514:	4648      	mov	r0, r9
  408516:	e8bd 83f8 	ldmia.w	sp!, {r3, r4, r5, r6, r7, r8, r9, pc}
  40851a:	46b9      	mov	r9, r7
  40851c:	4648      	mov	r0, r9
  40851e:	e8bd 83f8 	ldmia.w	sp!, {r3, r4, r5, r6, r7, r8, r9, pc}
  408522:	bf00      	nop

00408524 <__locale_mb_cur_max>:
  408524:	4b04      	ldr	r3, [pc, #16]	; (408538 <__locale_mb_cur_max+0x14>)
  408526:	4a05      	ldr	r2, [pc, #20]	; (40853c <__locale_mb_cur_max+0x18>)
  408528:	681b      	ldr	r3, [r3, #0]
  40852a:	6b5b      	ldr	r3, [r3, #52]	; 0x34
  40852c:	2b00      	cmp	r3, #0
  40852e:	bf08      	it	eq
  408530:	4613      	moveq	r3, r2
  408532:	f893 0128 	ldrb.w	r0, [r3, #296]	; 0x128
  408536:	4770      	bx	lr
  408538:	2040003c 	.word	0x2040003c
  40853c:	2040046c 	.word	0x2040046c

00408540 <__retarget_lock_init_recursive>:
  408540:	4770      	bx	lr
  408542:	bf00      	nop

00408544 <__retarget_lock_close_recursive>:
  408544:	4770      	bx	lr
  408546:	bf00      	nop

00408548 <__retarget_lock_acquire_recursive>:
  408548:	4770      	bx	lr
  40854a:	bf00      	nop

0040854c <__retarget_lock_release_recursive>:
  40854c:	4770      	bx	lr
  40854e:	bf00      	nop

00408550 <__swhatbuf_r>:
  408550:	b570      	push	{r4, r5, r6, lr}
  408552:	460c      	mov	r4, r1
  408554:	f9b1 100e 	ldrsh.w	r1, [r1, #14]
  408558:	2900      	cmp	r1, #0
  40855a:	b090      	sub	sp, #64	; 0x40
  40855c:	4615      	mov	r5, r2
  40855e:	461e      	mov	r6, r3
  408560:	db14      	blt.n	40858c <__swhatbuf_r+0x3c>
  408562:	aa01      	add	r2, sp, #4
  408564:	f000 ff74 	bl	409450 <_fstat_r>
  408568:	2800      	cmp	r0, #0
  40856a:	db0f      	blt.n	40858c <__swhatbuf_r+0x3c>
  40856c:	9a02      	ldr	r2, [sp, #8]
  40856e:	f402 4270 	and.w	r2, r2, #61440	; 0xf000
  408572:	f5a2 5200 	sub.w	r2, r2, #8192	; 0x2000
  408576:	fab2 f282 	clz	r2, r2
  40857a:	0952      	lsrs	r2, r2, #5
  40857c:	f44f 6380 	mov.w	r3, #1024	; 0x400
  408580:	f44f 6000 	mov.w	r0, #2048	; 0x800
  408584:	6032      	str	r2, [r6, #0]
  408586:	602b      	str	r3, [r5, #0]
  408588:	b010      	add	sp, #64	; 0x40
  40858a:	bd70      	pop	{r4, r5, r6, pc}
  40858c:	89a2      	ldrh	r2, [r4, #12]
  40858e:	2300      	movs	r3, #0
  408590:	f012 0080 	ands.w	r0, r2, #128	; 0x80
  408594:	6033      	str	r3, [r6, #0]
  408596:	d004      	beq.n	4085a2 <__swhatbuf_r+0x52>
  408598:	2240      	movs	r2, #64	; 0x40
  40859a:	4618      	mov	r0, r3
  40859c:	602a      	str	r2, [r5, #0]
  40859e:	b010      	add	sp, #64	; 0x40
  4085a0:	bd70      	pop	{r4, r5, r6, pc}
  4085a2:	f44f 6380 	mov.w	r3, #1024	; 0x400
  4085a6:	602b      	str	r3, [r5, #0]
  4085a8:	b010      	add	sp, #64	; 0x40
  4085aa:	bd70      	pop	{r4, r5, r6, pc}

004085ac <__smakebuf_r>:
  4085ac:	898a      	ldrh	r2, [r1, #12]
  4085ae:	0792      	lsls	r2, r2, #30
  4085b0:	460b      	mov	r3, r1
  4085b2:	d506      	bpl.n	4085c2 <__smakebuf_r+0x16>
  4085b4:	f101 0243 	add.w	r2, r1, #67	; 0x43
  4085b8:	2101      	movs	r1, #1
  4085ba:	601a      	str	r2, [r3, #0]
  4085bc:	611a      	str	r2, [r3, #16]
  4085be:	6159      	str	r1, [r3, #20]
  4085c0:	4770      	bx	lr
  4085c2:	b5f0      	push	{r4, r5, r6, r7, lr}
  4085c4:	b083      	sub	sp, #12
  4085c6:	ab01      	add	r3, sp, #4
  4085c8:	466a      	mov	r2, sp
  4085ca:	460c      	mov	r4, r1
  4085cc:	4606      	mov	r6, r0
  4085ce:	f7ff ffbf 	bl	408550 <__swhatbuf_r>
  4085d2:	9900      	ldr	r1, [sp, #0]
  4085d4:	4605      	mov	r5, r0
  4085d6:	4630      	mov	r0, r6
  4085d8:	f000 f83a 	bl	408650 <_malloc_r>
  4085dc:	f9b4 300c 	ldrsh.w	r3, [r4, #12]
  4085e0:	b1d8      	cbz	r0, 40861a <__smakebuf_r+0x6e>
  4085e2:	9a01      	ldr	r2, [sp, #4]
  4085e4:	4f15      	ldr	r7, [pc, #84]	; (40863c <__smakebuf_r+0x90>)
  4085e6:	9900      	ldr	r1, [sp, #0]
  4085e8:	63f7      	str	r7, [r6, #60]	; 0x3c
  4085ea:	f043 0380 	orr.w	r3, r3, #128	; 0x80
  4085ee:	81a3      	strh	r3, [r4, #12]
  4085f0:	6020      	str	r0, [r4, #0]
  4085f2:	6120      	str	r0, [r4, #16]
  4085f4:	6161      	str	r1, [r4, #20]
  4085f6:	b91a      	cbnz	r2, 408600 <__smakebuf_r+0x54>
  4085f8:	432b      	orrs	r3, r5
  4085fa:	81a3      	strh	r3, [r4, #12]
  4085fc:	b003      	add	sp, #12
  4085fe:	bdf0      	pop	{r4, r5, r6, r7, pc}
  408600:	4630      	mov	r0, r6
  408602:	f9b4 100e 	ldrsh.w	r1, [r4, #14]
  408606:	f000 ff37 	bl	409478 <_isatty_r>
  40860a:	b1a0      	cbz	r0, 408636 <__smakebuf_r+0x8a>
  40860c:	89a3      	ldrh	r3, [r4, #12]
  40860e:	f023 0303 	bic.w	r3, r3, #3
  408612:	f043 0301 	orr.w	r3, r3, #1
  408616:	b21b      	sxth	r3, r3
  408618:	e7ee      	b.n	4085f8 <__smakebuf_r+0x4c>
  40861a:	059a      	lsls	r2, r3, #22
  40861c:	d4ee      	bmi.n	4085fc <__smakebuf_r+0x50>
  40861e:	f023 0303 	bic.w	r3, r3, #3
  408622:	f104 0243 	add.w	r2, r4, #67	; 0x43
  408626:	f043 0302 	orr.w	r3, r3, #2
  40862a:	2101      	movs	r1, #1
  40862c:	81a3      	strh	r3, [r4, #12]
  40862e:	6022      	str	r2, [r4, #0]
  408630:	6122      	str	r2, [r4, #16]
  408632:	6161      	str	r1, [r4, #20]
  408634:	e7e2      	b.n	4085fc <__smakebuf_r+0x50>
  408636:	f9b4 300c 	ldrsh.w	r3, [r4, #12]
  40863a:	e7dd      	b.n	4085f8 <__smakebuf_r+0x4c>
  40863c:	00407d6d 	.word	0x00407d6d

00408640 <malloc>:
  408640:	4b02      	ldr	r3, [pc, #8]	; (40864c <malloc+0xc>)
  408642:	4601      	mov	r1, r0
  408644:	6818      	ldr	r0, [r3, #0]
  408646:	f000 b803 	b.w	408650 <_malloc_r>
  40864a:	bf00      	nop
  40864c:	2040003c 	.word	0x2040003c

00408650 <_malloc_r>:
  408650:	e92d 4ff0 	stmdb	sp!, {r4, r5, r6, r7, r8, r9, sl, fp, lr}
  408654:	f101 060b 	add.w	r6, r1, #11
  408658:	2e16      	cmp	r6, #22
  40865a:	b083      	sub	sp, #12
  40865c:	4605      	mov	r5, r0
  40865e:	f240 809e 	bls.w	40879e <_malloc_r+0x14e>
  408662:	f036 0607 	bics.w	r6, r6, #7
  408666:	f100 80bd 	bmi.w	4087e4 <_malloc_r+0x194>
  40866a:	42b1      	cmp	r1, r6
  40866c:	f200 80ba 	bhi.w	4087e4 <_malloc_r+0x194>
  408670:	f000 fb6a 	bl	408d48 <__malloc_lock>
  408674:	f5b6 7ffc 	cmp.w	r6, #504	; 0x1f8
  408678:	f0c0 8293 	bcc.w	408ba2 <_malloc_r+0x552>
  40867c:	0a73      	lsrs	r3, r6, #9
  40867e:	f000 80b8 	beq.w	4087f2 <_malloc_r+0x1a2>
  408682:	2b04      	cmp	r3, #4
  408684:	f200 8179 	bhi.w	40897a <_malloc_r+0x32a>
  408688:	09b3      	lsrs	r3, r6, #6
  40868a:	f103 0039 	add.w	r0, r3, #57	; 0x39
  40868e:	f103 0e38 	add.w	lr, r3, #56	; 0x38
  408692:	00c3      	lsls	r3, r0, #3
  408694:	4fbf      	ldr	r7, [pc, #764]	; (408994 <_malloc_r+0x344>)
  408696:	443b      	add	r3, r7
  408698:	f1a3 0108 	sub.w	r1, r3, #8
  40869c:	685c      	ldr	r4, [r3, #4]
  40869e:	42a1      	cmp	r1, r4
  4086a0:	d106      	bne.n	4086b0 <_malloc_r+0x60>
  4086a2:	e00c      	b.n	4086be <_malloc_r+0x6e>
  4086a4:	2a00      	cmp	r2, #0
  4086a6:	f280 80aa 	bge.w	4087fe <_malloc_r+0x1ae>
  4086aa:	68e4      	ldr	r4, [r4, #12]
  4086ac:	42a1      	cmp	r1, r4
  4086ae:	d006      	beq.n	4086be <_malloc_r+0x6e>
  4086b0:	6863      	ldr	r3, [r4, #4]
  4086b2:	f023 0303 	bic.w	r3, r3, #3
  4086b6:	1b9a      	subs	r2, r3, r6
  4086b8:	2a0f      	cmp	r2, #15
  4086ba:	ddf3      	ble.n	4086a4 <_malloc_r+0x54>
  4086bc:	4670      	mov	r0, lr
  4086be:	693c      	ldr	r4, [r7, #16]
  4086c0:	f8df e2e4 	ldr.w	lr, [pc, #740]	; 4089a8 <_malloc_r+0x358>
  4086c4:	4574      	cmp	r4, lr
  4086c6:	f000 81ab 	beq.w	408a20 <_malloc_r+0x3d0>
  4086ca:	6863      	ldr	r3, [r4, #4]
  4086cc:	f023 0303 	bic.w	r3, r3, #3
  4086d0:	1b9a      	subs	r2, r3, r6
  4086d2:	2a0f      	cmp	r2, #15
  4086d4:	f300 8190 	bgt.w	4089f8 <_malloc_r+0x3a8>
  4086d8:	2a00      	cmp	r2, #0
  4086da:	f8c7 e014 	str.w	lr, [r7, #20]
  4086de:	f8c7 e010 	str.w	lr, [r7, #16]
  4086e2:	f280 809d 	bge.w	408820 <_malloc_r+0x1d0>
  4086e6:	f5b3 7f00 	cmp.w	r3, #512	; 0x200
  4086ea:	f080 8161 	bcs.w	4089b0 <_malloc_r+0x360>
  4086ee:	08db      	lsrs	r3, r3, #3
  4086f0:	f103 0c01 	add.w	ip, r3, #1
  4086f4:	1099      	asrs	r1, r3, #2
  4086f6:	687a      	ldr	r2, [r7, #4]
  4086f8:	f857 803c 	ldr.w	r8, [r7, ip, lsl #3]
  4086fc:	f8c4 8008 	str.w	r8, [r4, #8]
  408700:	2301      	movs	r3, #1
  408702:	408b      	lsls	r3, r1
  408704:	eb07 01cc 	add.w	r1, r7, ip, lsl #3
  408708:	4313      	orrs	r3, r2
  40870a:	3908      	subs	r1, #8
  40870c:	60e1      	str	r1, [r4, #12]
  40870e:	607b      	str	r3, [r7, #4]
  408710:	f847 403c 	str.w	r4, [r7, ip, lsl #3]
  408714:	f8c8 400c 	str.w	r4, [r8, #12]
  408718:	1082      	asrs	r2, r0, #2
  40871a:	2401      	movs	r4, #1
  40871c:	4094      	lsls	r4, r2
  40871e:	429c      	cmp	r4, r3
  408720:	f200 808b 	bhi.w	40883a <_malloc_r+0x1ea>
  408724:	421c      	tst	r4, r3
  408726:	d106      	bne.n	408736 <_malloc_r+0xe6>
  408728:	f020 0003 	bic.w	r0, r0, #3
  40872c:	0064      	lsls	r4, r4, #1
  40872e:	421c      	tst	r4, r3
  408730:	f100 0004 	add.w	r0, r0, #4
  408734:	d0fa      	beq.n	40872c <_malloc_r+0xdc>
  408736:	eb07 09c0 	add.w	r9, r7, r0, lsl #3
  40873a:	46cc      	mov	ip, r9
  40873c:	4680      	mov	r8, r0
  40873e:	f8dc 300c 	ldr.w	r3, [ip, #12]
  408742:	459c      	cmp	ip, r3
  408744:	d107      	bne.n	408756 <_malloc_r+0x106>
  408746:	e16d      	b.n	408a24 <_malloc_r+0x3d4>
  408748:	2a00      	cmp	r2, #0
  40874a:	f280 817b 	bge.w	408a44 <_malloc_r+0x3f4>
  40874e:	68db      	ldr	r3, [r3, #12]
  408750:	459c      	cmp	ip, r3
  408752:	f000 8167 	beq.w	408a24 <_malloc_r+0x3d4>
  408756:	6859      	ldr	r1, [r3, #4]
  408758:	f021 0103 	bic.w	r1, r1, #3
  40875c:	1b8a      	subs	r2, r1, r6
  40875e:	2a0f      	cmp	r2, #15
  408760:	ddf2      	ble.n	408748 <_malloc_r+0xf8>
  408762:	f8d3 c00c 	ldr.w	ip, [r3, #12]
  408766:	f8d3 8008 	ldr.w	r8, [r3, #8]
  40876a:	9300      	str	r3, [sp, #0]
  40876c:	199c      	adds	r4, r3, r6
  40876e:	4628      	mov	r0, r5
  408770:	f046 0601 	orr.w	r6, r6, #1
  408774:	f042 0501 	orr.w	r5, r2, #1
  408778:	605e      	str	r6, [r3, #4]
  40877a:	f8c8 c00c 	str.w	ip, [r8, #12]
  40877e:	f8cc 8008 	str.w	r8, [ip, #8]
  408782:	617c      	str	r4, [r7, #20]
  408784:	613c      	str	r4, [r7, #16]
  408786:	f8c4 e00c 	str.w	lr, [r4, #12]
  40878a:	f8c4 e008 	str.w	lr, [r4, #8]
  40878e:	6065      	str	r5, [r4, #4]
  408790:	505a      	str	r2, [r3, r1]
  408792:	f000 fadf 	bl	408d54 <__malloc_unlock>
  408796:	9b00      	ldr	r3, [sp, #0]
  408798:	f103 0408 	add.w	r4, r3, #8
  40879c:	e01e      	b.n	4087dc <_malloc_r+0x18c>
  40879e:	2910      	cmp	r1, #16
  4087a0:	d820      	bhi.n	4087e4 <_malloc_r+0x194>
  4087a2:	f000 fad1 	bl	408d48 <__malloc_lock>
  4087a6:	2610      	movs	r6, #16
  4087a8:	2318      	movs	r3, #24
  4087aa:	2002      	movs	r0, #2
  4087ac:	4f79      	ldr	r7, [pc, #484]	; (408994 <_malloc_r+0x344>)
  4087ae:	443b      	add	r3, r7
  4087b0:	f1a3 0208 	sub.w	r2, r3, #8
  4087b4:	685c      	ldr	r4, [r3, #4]
  4087b6:	4294      	cmp	r4, r2
  4087b8:	f000 813d 	beq.w	408a36 <_malloc_r+0x3e6>
  4087bc:	6863      	ldr	r3, [r4, #4]
  4087be:	68e1      	ldr	r1, [r4, #12]
  4087c0:	68a6      	ldr	r6, [r4, #8]
  4087c2:	f023 0303 	bic.w	r3, r3, #3
  4087c6:	4423      	add	r3, r4
  4087c8:	4628      	mov	r0, r5
  4087ca:	685a      	ldr	r2, [r3, #4]
  4087cc:	60f1      	str	r1, [r6, #12]
  4087ce:	f042 0201 	orr.w	r2, r2, #1
  4087d2:	608e      	str	r6, [r1, #8]
  4087d4:	605a      	str	r2, [r3, #4]
  4087d6:	f000 fabd 	bl	408d54 <__malloc_unlock>
  4087da:	3408      	adds	r4, #8
  4087dc:	4620      	mov	r0, r4
  4087de:	b003      	add	sp, #12
  4087e0:	e8bd 8ff0 	ldmia.w	sp!, {r4, r5, r6, r7, r8, r9, sl, fp, pc}
  4087e4:	2400      	movs	r4, #0
  4087e6:	230c      	movs	r3, #12
  4087e8:	4620      	mov	r0, r4
  4087ea:	602b      	str	r3, [r5, #0]
  4087ec:	b003      	add	sp, #12
  4087ee:	e8bd 8ff0 	ldmia.w	sp!, {r4, r5, r6, r7, r8, r9, sl, fp, pc}
  4087f2:	2040      	movs	r0, #64	; 0x40
  4087f4:	f44f 7300 	mov.w	r3, #512	; 0x200
  4087f8:	f04f 0e3f 	mov.w	lr, #63	; 0x3f
  4087fc:	e74a      	b.n	408694 <_malloc_r+0x44>
  4087fe:	4423      	add	r3, r4
  408800:	68e1      	ldr	r1, [r4, #12]
  408802:	685a      	ldr	r2, [r3, #4]
  408804:	68a6      	ldr	r6, [r4, #8]
  408806:	f042 0201 	orr.w	r2, r2, #1
  40880a:	60f1      	str	r1, [r6, #12]
  40880c:	4628      	mov	r0, r5
  40880e:	608e      	str	r6, [r1, #8]
  408810:	605a      	str	r2, [r3, #4]
  408812:	f000 fa9f 	bl	408d54 <__malloc_unlock>
  408816:	3408      	adds	r4, #8
  408818:	4620      	mov	r0, r4
  40881a:	b003      	add	sp, #12
  40881c:	e8bd 8ff0 	ldmia.w	sp!, {r4, r5, r6, r7, r8, r9, sl, fp, pc}
  408820:	4423      	add	r3, r4
  408822:	4628      	mov	r0, r5
  408824:	685a      	ldr	r2, [r3, #4]
  408826:	f042 0201 	orr.w	r2, r2, #1
  40882a:	605a      	str	r2, [r3, #4]
  40882c:	f000 fa92 	bl	408d54 <__malloc_unlock>
  408830:	3408      	adds	r4, #8
  408832:	4620      	mov	r0, r4
  408834:	b003      	add	sp, #12
  408836:	e8bd 8ff0 	ldmia.w	sp!, {r4, r5, r6, r7, r8, r9, sl, fp, pc}
  40883a:	68bc      	ldr	r4, [r7, #8]
  40883c:	6863      	ldr	r3, [r4, #4]
  40883e:	f023 0803 	bic.w	r8, r3, #3
  408842:	45b0      	cmp	r8, r6
  408844:	d304      	bcc.n	408850 <_malloc_r+0x200>
  408846:	eba8 0306 	sub.w	r3, r8, r6
  40884a:	2b0f      	cmp	r3, #15
  40884c:	f300 8085 	bgt.w	40895a <_malloc_r+0x30a>
  408850:	f8df 9158 	ldr.w	r9, [pc, #344]	; 4089ac <_malloc_r+0x35c>
  408854:	4b50      	ldr	r3, [pc, #320]	; (408998 <_malloc_r+0x348>)
  408856:	f8d9 2000 	ldr.w	r2, [r9]
  40885a:	681b      	ldr	r3, [r3, #0]
  40885c:	3201      	adds	r2, #1
  40885e:	4433      	add	r3, r6
  408860:	eb04 0a08 	add.w	sl, r4, r8
  408864:	f000 8155 	beq.w	408b12 <_malloc_r+0x4c2>
  408868:	f503 5380 	add.w	r3, r3, #4096	; 0x1000
  40886c:	330f      	adds	r3, #15
  40886e:	f423 6b7f 	bic.w	fp, r3, #4080	; 0xff0
  408872:	f02b 0b0f 	bic.w	fp, fp, #15
  408876:	4659      	mov	r1, fp
  408878:	4628      	mov	r0, r5
  40887a:	f000 fc17 	bl	4090ac <_sbrk_r>
  40887e:	1c41      	adds	r1, r0, #1
  408880:	4602      	mov	r2, r0
  408882:	f000 80fc 	beq.w	408a7e <_malloc_r+0x42e>
  408886:	4582      	cmp	sl, r0
  408888:	f200 80f7 	bhi.w	408a7a <_malloc_r+0x42a>
  40888c:	4b43      	ldr	r3, [pc, #268]	; (40899c <_malloc_r+0x34c>)
  40888e:	6819      	ldr	r1, [r3, #0]
  408890:	4459      	add	r1, fp
  408892:	6019      	str	r1, [r3, #0]
  408894:	f000 814d 	beq.w	408b32 <_malloc_r+0x4e2>
  408898:	f8d9 0000 	ldr.w	r0, [r9]
  40889c:	3001      	adds	r0, #1
  40889e:	bf1b      	ittet	ne
  4088a0:	eba2 0a0a 	subne.w	sl, r2, sl
  4088a4:	4451      	addne	r1, sl
  4088a6:	f8c9 2000 	streq.w	r2, [r9]
  4088aa:	6019      	strne	r1, [r3, #0]
  4088ac:	f012 0107 	ands.w	r1, r2, #7
  4088b0:	f000 8115 	beq.w	408ade <_malloc_r+0x48e>
  4088b4:	f1c1 0008 	rsb	r0, r1, #8
  4088b8:	f5c1 5180 	rsb	r1, r1, #4096	; 0x1000
  4088bc:	4402      	add	r2, r0
  4088be:	3108      	adds	r1, #8
  4088c0:	eb02 090b 	add.w	r9, r2, fp
  4088c4:	f3c9 090b 	ubfx	r9, r9, #0, #12
  4088c8:	eba1 0909 	sub.w	r9, r1, r9
  4088cc:	4649      	mov	r1, r9
  4088ce:	4628      	mov	r0, r5
  4088d0:	9301      	str	r3, [sp, #4]
  4088d2:	9200      	str	r2, [sp, #0]
  4088d4:	f000 fbea 	bl	4090ac <_sbrk_r>
  4088d8:	1c43      	adds	r3, r0, #1
  4088da:	e89d 000c 	ldmia.w	sp, {r2, r3}
  4088de:	f000 8143 	beq.w	408b68 <_malloc_r+0x518>
  4088e2:	1a80      	subs	r0, r0, r2
  4088e4:	4448      	add	r0, r9
  4088e6:	f040 0001 	orr.w	r0, r0, #1
  4088ea:	6819      	ldr	r1, [r3, #0]
  4088ec:	60ba      	str	r2, [r7, #8]
  4088ee:	4449      	add	r1, r9
  4088f0:	42bc      	cmp	r4, r7
  4088f2:	6050      	str	r0, [r2, #4]
  4088f4:	6019      	str	r1, [r3, #0]
  4088f6:	d017      	beq.n	408928 <_malloc_r+0x2d8>
  4088f8:	f1b8 0f0f 	cmp.w	r8, #15
  4088fc:	f240 80fb 	bls.w	408af6 <_malloc_r+0x4a6>
  408900:	6860      	ldr	r0, [r4, #4]
  408902:	f1a8 020c 	sub.w	r2, r8, #12
  408906:	f022 0207 	bic.w	r2, r2, #7
  40890a:	eb04 0e02 	add.w	lr, r4, r2
  40890e:	f000 0001 	and.w	r0, r0, #1
  408912:	f04f 0c05 	mov.w	ip, #5
  408916:	4310      	orrs	r0, r2
  408918:	2a0f      	cmp	r2, #15
  40891a:	6060      	str	r0, [r4, #4]
  40891c:	f8ce c004 	str.w	ip, [lr, #4]
  408920:	f8ce c008 	str.w	ip, [lr, #8]
  408924:	f200 8117 	bhi.w	408b56 <_malloc_r+0x506>
  408928:	4b1d      	ldr	r3, [pc, #116]	; (4089a0 <_malloc_r+0x350>)
  40892a:	68bc      	ldr	r4, [r7, #8]
  40892c:	681a      	ldr	r2, [r3, #0]
  40892e:	4291      	cmp	r1, r2
  408930:	bf88      	it	hi
  408932:	6019      	strhi	r1, [r3, #0]
  408934:	4b1b      	ldr	r3, [pc, #108]	; (4089a4 <_malloc_r+0x354>)
  408936:	681a      	ldr	r2, [r3, #0]
  408938:	4291      	cmp	r1, r2
  40893a:	6862      	ldr	r2, [r4, #4]
  40893c:	bf88      	it	hi
  40893e:	6019      	strhi	r1, [r3, #0]
  408940:	f022 0203 	bic.w	r2, r2, #3
  408944:	4296      	cmp	r6, r2
  408946:	eba2 0306 	sub.w	r3, r2, r6
  40894a:	d801      	bhi.n	408950 <_malloc_r+0x300>
  40894c:	2b0f      	cmp	r3, #15
  40894e:	dc04      	bgt.n	40895a <_malloc_r+0x30a>
  408950:	4628      	mov	r0, r5
  408952:	f000 f9ff 	bl	408d54 <__malloc_unlock>
  408956:	2400      	movs	r4, #0
  408958:	e740      	b.n	4087dc <_malloc_r+0x18c>
  40895a:	19a2      	adds	r2, r4, r6
  40895c:	f043 0301 	orr.w	r3, r3, #1
  408960:	f046 0601 	orr.w	r6, r6, #1
  408964:	6066      	str	r6, [r4, #4]
  408966:	4628      	mov	r0, r5
  408968:	60ba      	str	r2, [r7, #8]
  40896a:	6053      	str	r3, [r2, #4]
  40896c:	f000 f9f2 	bl	408d54 <__malloc_unlock>
  408970:	3408      	adds	r4, #8
  408972:	4620      	mov	r0, r4
  408974:	b003      	add	sp, #12
  408976:	e8bd 8ff0 	ldmia.w	sp!, {r4, r5, r6, r7, r8, r9, sl, fp, pc}
  40897a:	2b14      	cmp	r3, #20
  40897c:	d971      	bls.n	408a62 <_malloc_r+0x412>
  40897e:	2b54      	cmp	r3, #84	; 0x54
  408980:	f200 80a3 	bhi.w	408aca <_malloc_r+0x47a>
  408984:	0b33      	lsrs	r3, r6, #12
  408986:	f103 006f 	add.w	r0, r3, #111	; 0x6f
  40898a:	f103 0e6e 	add.w	lr, r3, #110	; 0x6e
  40898e:	00c3      	lsls	r3, r0, #3
  408990:	e680      	b.n	408694 <_malloc_r+0x44>
  408992:	bf00      	nop
  408994:	204005d8 	.word	0x204005d8
  408998:	2040c430 	.word	0x2040c430
  40899c:	2040c400 	.word	0x2040c400
  4089a0:	2040c428 	.word	0x2040c428
  4089a4:	2040c42c 	.word	0x2040c42c
  4089a8:	204005e0 	.word	0x204005e0
  4089ac:	204009e0 	.word	0x204009e0
  4089b0:	0a5a      	lsrs	r2, r3, #9
  4089b2:	2a04      	cmp	r2, #4
  4089b4:	d95b      	bls.n	408a6e <_malloc_r+0x41e>
  4089b6:	2a14      	cmp	r2, #20
  4089b8:	f200 80ae 	bhi.w	408b18 <_malloc_r+0x4c8>
  4089bc:	f102 015c 	add.w	r1, r2, #92	; 0x5c
  4089c0:	00c9      	lsls	r1, r1, #3
  4089c2:	325b      	adds	r2, #91	; 0x5b
  4089c4:	eb07 0c01 	add.w	ip, r7, r1
  4089c8:	5879      	ldr	r1, [r7, r1]
  4089ca:	f1ac 0c08 	sub.w	ip, ip, #8
  4089ce:	458c      	cmp	ip, r1
  4089d0:	f000 8088 	beq.w	408ae4 <_malloc_r+0x494>
  4089d4:	684a      	ldr	r2, [r1, #4]
  4089d6:	f022 0203 	bic.w	r2, r2, #3
  4089da:	4293      	cmp	r3, r2
  4089dc:	d273      	bcs.n	408ac6 <_malloc_r+0x476>
  4089de:	6889      	ldr	r1, [r1, #8]
  4089e0:	458c      	cmp	ip, r1
  4089e2:	d1f7      	bne.n	4089d4 <_malloc_r+0x384>
  4089e4:	f8dc 200c 	ldr.w	r2, [ip, #12]
  4089e8:	687b      	ldr	r3, [r7, #4]
  4089ea:	60e2      	str	r2, [r4, #12]
  4089ec:	f8c4 c008 	str.w	ip, [r4, #8]
  4089f0:	6094      	str	r4, [r2, #8]
  4089f2:	f8cc 400c 	str.w	r4, [ip, #12]
  4089f6:	e68f      	b.n	408718 <_malloc_r+0xc8>
  4089f8:	19a1      	adds	r1, r4, r6
  4089fa:	f046 0c01 	orr.w	ip, r6, #1
  4089fe:	f042 0601 	orr.w	r6, r2, #1
  408a02:	f8c4 c004 	str.w	ip, [r4, #4]
  408a06:	4628      	mov	r0, r5
  408a08:	6179      	str	r1, [r7, #20]
  408a0a:	6139      	str	r1, [r7, #16]
  408a0c:	f8c1 e00c 	str.w	lr, [r1, #12]
  408a10:	f8c1 e008 	str.w	lr, [r1, #8]
  408a14:	604e      	str	r6, [r1, #4]
  408a16:	50e2      	str	r2, [r4, r3]
  408a18:	f000 f99c 	bl	408d54 <__malloc_unlock>
  408a1c:	3408      	adds	r4, #8
  408a1e:	e6dd      	b.n	4087dc <_malloc_r+0x18c>
  408a20:	687b      	ldr	r3, [r7, #4]
  408a22:	e679      	b.n	408718 <_malloc_r+0xc8>
  408a24:	f108 0801 	add.w	r8, r8, #1
  408a28:	f018 0f03 	tst.w	r8, #3
  408a2c:	f10c 0c08 	add.w	ip, ip, #8
  408a30:	f47f ae85 	bne.w	40873e <_malloc_r+0xee>
  408a34:	e02d      	b.n	408a92 <_malloc_r+0x442>
  408a36:	68dc      	ldr	r4, [r3, #12]
  408a38:	42a3      	cmp	r3, r4
  408a3a:	bf08      	it	eq
  408a3c:	3002      	addeq	r0, #2
  408a3e:	f43f ae3e 	beq.w	4086be <_malloc_r+0x6e>
  408a42:	e6bb      	b.n	4087bc <_malloc_r+0x16c>
  408a44:	4419      	add	r1, r3
  408a46:	461c      	mov	r4, r3
  408a48:	684a      	ldr	r2, [r1, #4]
  408a4a:	68db      	ldr	r3, [r3, #12]
  408a4c:	f854 6f08 	ldr.w	r6, [r4, #8]!
  408a50:	f042 0201 	orr.w	r2, r2, #1
  408a54:	604a      	str	r2, [r1, #4]
  408a56:	4628      	mov	r0, r5
  408a58:	60f3      	str	r3, [r6, #12]
  408a5a:	609e      	str	r6, [r3, #8]
  408a5c:	f000 f97a 	bl	408d54 <__malloc_unlock>
  408a60:	e6bc      	b.n	4087dc <_malloc_r+0x18c>
  408a62:	f103 005c 	add.w	r0, r3, #92	; 0x5c
  408a66:	f103 0e5b 	add.w	lr, r3, #91	; 0x5b
  408a6a:	00c3      	lsls	r3, r0, #3
  408a6c:	e612      	b.n	408694 <_malloc_r+0x44>
  408a6e:	099a      	lsrs	r2, r3, #6
  408a70:	f102 0139 	add.w	r1, r2, #57	; 0x39
  408a74:	00c9      	lsls	r1, r1, #3
  408a76:	3238      	adds	r2, #56	; 0x38
  408a78:	e7a4      	b.n	4089c4 <_malloc_r+0x374>
  408a7a:	42bc      	cmp	r4, r7
  408a7c:	d054      	beq.n	408b28 <_malloc_r+0x4d8>
  408a7e:	68bc      	ldr	r4, [r7, #8]
  408a80:	6862      	ldr	r2, [r4, #4]
  408a82:	f022 0203 	bic.w	r2, r2, #3
  408a86:	e75d      	b.n	408944 <_malloc_r+0x2f4>
  408a88:	f859 3908 	ldr.w	r3, [r9], #-8
  408a8c:	4599      	cmp	r9, r3
  408a8e:	f040 8086 	bne.w	408b9e <_malloc_r+0x54e>
  408a92:	f010 0f03 	tst.w	r0, #3
  408a96:	f100 30ff 	add.w	r0, r0, #4294967295
  408a9a:	d1f5      	bne.n	408a88 <_malloc_r+0x438>
  408a9c:	687b      	ldr	r3, [r7, #4]
  408a9e:	ea23 0304 	bic.w	r3, r3, r4
  408aa2:	607b      	str	r3, [r7, #4]
  408aa4:	0064      	lsls	r4, r4, #1
  408aa6:	429c      	cmp	r4, r3
  408aa8:	f63f aec7 	bhi.w	40883a <_malloc_r+0x1ea>
  408aac:	2c00      	cmp	r4, #0
  408aae:	f43f aec4 	beq.w	40883a <_malloc_r+0x1ea>
  408ab2:	421c      	tst	r4, r3
  408ab4:	4640      	mov	r0, r8
  408ab6:	f47f ae3e 	bne.w	408736 <_malloc_r+0xe6>
  408aba:	0064      	lsls	r4, r4, #1
  408abc:	421c      	tst	r4, r3
  408abe:	f100 0004 	add.w	r0, r0, #4
  408ac2:	d0fa      	beq.n	408aba <_malloc_r+0x46a>
  408ac4:	e637      	b.n	408736 <_malloc_r+0xe6>
  408ac6:	468c      	mov	ip, r1
  408ac8:	e78c      	b.n	4089e4 <_malloc_r+0x394>
  408aca:	f5b3 7faa 	cmp.w	r3, #340	; 0x154
  408ace:	d815      	bhi.n	408afc <_malloc_r+0x4ac>
  408ad0:	0bf3      	lsrs	r3, r6, #15
  408ad2:	f103 0078 	add.w	r0, r3, #120	; 0x78
  408ad6:	f103 0e77 	add.w	lr, r3, #119	; 0x77
  408ada:	00c3      	lsls	r3, r0, #3
  408adc:	e5da      	b.n	408694 <_malloc_r+0x44>
  408ade:	f44f 5180 	mov.w	r1, #4096	; 0x1000
  408ae2:	e6ed      	b.n	4088c0 <_malloc_r+0x270>
  408ae4:	687b      	ldr	r3, [r7, #4]
  408ae6:	1092      	asrs	r2, r2, #2
  408ae8:	2101      	movs	r1, #1
  408aea:	fa01 f202 	lsl.w	r2, r1, r2
  408aee:	4313      	orrs	r3, r2
  408af0:	607b      	str	r3, [r7, #4]
  408af2:	4662      	mov	r2, ip
  408af4:	e779      	b.n	4089ea <_malloc_r+0x39a>
  408af6:	2301      	movs	r3, #1
  408af8:	6053      	str	r3, [r2, #4]
  408afa:	e729      	b.n	408950 <_malloc_r+0x300>
  408afc:	f240 5254 	movw	r2, #1364	; 0x554
  408b00:	4293      	cmp	r3, r2
  408b02:	d822      	bhi.n	408b4a <_malloc_r+0x4fa>
  408b04:	0cb3      	lsrs	r3, r6, #18
  408b06:	f103 007d 	add.w	r0, r3, #125	; 0x7d
  408b0a:	f103 0e7c 	add.w	lr, r3, #124	; 0x7c
  408b0e:	00c3      	lsls	r3, r0, #3
  408b10:	e5c0      	b.n	408694 <_malloc_r+0x44>
  408b12:	f103 0b10 	add.w	fp, r3, #16
  408b16:	e6ae      	b.n	408876 <_malloc_r+0x226>
  408b18:	2a54      	cmp	r2, #84	; 0x54
  408b1a:	d829      	bhi.n	408b70 <_malloc_r+0x520>
  408b1c:	0b1a      	lsrs	r2, r3, #12
  408b1e:	f102 016f 	add.w	r1, r2, #111	; 0x6f
  408b22:	00c9      	lsls	r1, r1, #3
  408b24:	326e      	adds	r2, #110	; 0x6e
  408b26:	e74d      	b.n	4089c4 <_malloc_r+0x374>
  408b28:	4b20      	ldr	r3, [pc, #128]	; (408bac <_malloc_r+0x55c>)
  408b2a:	6819      	ldr	r1, [r3, #0]
  408b2c:	4459      	add	r1, fp
  408b2e:	6019      	str	r1, [r3, #0]
  408b30:	e6b2      	b.n	408898 <_malloc_r+0x248>
  408b32:	f3ca 000b 	ubfx	r0, sl, #0, #12
  408b36:	2800      	cmp	r0, #0
  408b38:	f47f aeae 	bne.w	408898 <_malloc_r+0x248>
  408b3c:	eb08 030b 	add.w	r3, r8, fp
  408b40:	68ba      	ldr	r2, [r7, #8]
  408b42:	f043 0301 	orr.w	r3, r3, #1
  408b46:	6053      	str	r3, [r2, #4]
  408b48:	e6ee      	b.n	408928 <_malloc_r+0x2d8>
  408b4a:	207f      	movs	r0, #127	; 0x7f
  408b4c:	f44f 737e 	mov.w	r3, #1016	; 0x3f8
  408b50:	f04f 0e7e 	mov.w	lr, #126	; 0x7e
  408b54:	e59e      	b.n	408694 <_malloc_r+0x44>
  408b56:	f104 0108 	add.w	r1, r4, #8
  408b5a:	4628      	mov	r0, r5
  408b5c:	9300      	str	r3, [sp, #0]
  408b5e:	f7ff fa59 	bl	408014 <_free_r>
  408b62:	9b00      	ldr	r3, [sp, #0]
  408b64:	6819      	ldr	r1, [r3, #0]
  408b66:	e6df      	b.n	408928 <_malloc_r+0x2d8>
  408b68:	2001      	movs	r0, #1
  408b6a:	f04f 0900 	mov.w	r9, #0
  408b6e:	e6bc      	b.n	4088ea <_malloc_r+0x29a>
  408b70:	f5b2 7faa 	cmp.w	r2, #340	; 0x154
  408b74:	d805      	bhi.n	408b82 <_malloc_r+0x532>
  408b76:	0bda      	lsrs	r2, r3, #15
  408b78:	f102 0178 	add.w	r1, r2, #120	; 0x78
  408b7c:	00c9      	lsls	r1, r1, #3
  408b7e:	3277      	adds	r2, #119	; 0x77
  408b80:	e720      	b.n	4089c4 <_malloc_r+0x374>
  408b82:	f240 5154 	movw	r1, #1364	; 0x554
  408b86:	428a      	cmp	r2, r1
  408b88:	d805      	bhi.n	408b96 <_malloc_r+0x546>
  408b8a:	0c9a      	lsrs	r2, r3, #18
  408b8c:	f102 017d 	add.w	r1, r2, #125	; 0x7d
  408b90:	00c9      	lsls	r1, r1, #3
  408b92:	327c      	adds	r2, #124	; 0x7c
  408b94:	e716      	b.n	4089c4 <_malloc_r+0x374>
  408b96:	f44f 717e 	mov.w	r1, #1016	; 0x3f8
  408b9a:	227e      	movs	r2, #126	; 0x7e
  408b9c:	e712      	b.n	4089c4 <_malloc_r+0x374>
  408b9e:	687b      	ldr	r3, [r7, #4]
  408ba0:	e780      	b.n	408aa4 <_malloc_r+0x454>
  408ba2:	08f0      	lsrs	r0, r6, #3
  408ba4:	f106 0308 	add.w	r3, r6, #8
  408ba8:	e600      	b.n	4087ac <_malloc_r+0x15c>
  408baa:	bf00      	nop
  408bac:	2040c400 	.word	0x2040c400

00408bb0 <__ascii_mbtowc>:
  408bb0:	b082      	sub	sp, #8
  408bb2:	b149      	cbz	r1, 408bc8 <__ascii_mbtowc+0x18>
  408bb4:	b15a      	cbz	r2, 408bce <__ascii_mbtowc+0x1e>
  408bb6:	b16b      	cbz	r3, 408bd4 <__ascii_mbtowc+0x24>
  408bb8:	7813      	ldrb	r3, [r2, #0]
  408bba:	600b      	str	r3, [r1, #0]
  408bbc:	7812      	ldrb	r2, [r2, #0]
  408bbe:	1c10      	adds	r0, r2, #0
  408bc0:	bf18      	it	ne
  408bc2:	2001      	movne	r0, #1
  408bc4:	b002      	add	sp, #8
  408bc6:	4770      	bx	lr
  408bc8:	a901      	add	r1, sp, #4
  408bca:	2a00      	cmp	r2, #0
  408bcc:	d1f3      	bne.n	408bb6 <__ascii_mbtowc+0x6>
  408bce:	4610      	mov	r0, r2
  408bd0:	b002      	add	sp, #8
  408bd2:	4770      	bx	lr
  408bd4:	f06f 0001 	mvn.w	r0, #1
  408bd8:	e7f4      	b.n	408bc4 <__ascii_mbtowc+0x14>
  408bda:	bf00      	nop
  408bdc:	0000      	movs	r0, r0
	...

00408be0 <memchr>:
  408be0:	f001 01ff 	and.w	r1, r1, #255	; 0xff
  408be4:	2a10      	cmp	r2, #16
  408be6:	db2b      	blt.n	408c40 <memchr+0x60>
  408be8:	f010 0f07 	tst.w	r0, #7
  408bec:	d008      	beq.n	408c00 <memchr+0x20>
  408bee:	f810 3b01 	ldrb.w	r3, [r0], #1
  408bf2:	3a01      	subs	r2, #1
  408bf4:	428b      	cmp	r3, r1
  408bf6:	d02d      	beq.n	408c54 <memchr+0x74>
  408bf8:	f010 0f07 	tst.w	r0, #7
  408bfc:	b342      	cbz	r2, 408c50 <memchr+0x70>
  408bfe:	d1f6      	bne.n	408bee <memchr+0xe>
  408c00:	b4f0      	push	{r4, r5, r6, r7}
  408c02:	ea41 2101 	orr.w	r1, r1, r1, lsl #8
  408c06:	ea41 4101 	orr.w	r1, r1, r1, lsl #16
  408c0a:	f022 0407 	bic.w	r4, r2, #7
  408c0e:	f07f 0700 	mvns.w	r7, #0
  408c12:	2300      	movs	r3, #0
  408c14:	e8f0 5602 	ldrd	r5, r6, [r0], #8
  408c18:	3c08      	subs	r4, #8
  408c1a:	ea85 0501 	eor.w	r5, r5, r1
  408c1e:	ea86 0601 	eor.w	r6, r6, r1
  408c22:	fa85 f547 	uadd8	r5, r5, r7
  408c26:	faa3 f587 	sel	r5, r3, r7
  408c2a:	fa86 f647 	uadd8	r6, r6, r7
  408c2e:	faa5 f687 	sel	r6, r5, r7
  408c32:	b98e      	cbnz	r6, 408c58 <memchr+0x78>
  408c34:	d1ee      	bne.n	408c14 <memchr+0x34>
  408c36:	bcf0      	pop	{r4, r5, r6, r7}
  408c38:	f001 01ff 	and.w	r1, r1, #255	; 0xff
  408c3c:	f002 0207 	and.w	r2, r2, #7
  408c40:	b132      	cbz	r2, 408c50 <memchr+0x70>
  408c42:	f810 3b01 	ldrb.w	r3, [r0], #1
  408c46:	3a01      	subs	r2, #1
  408c48:	ea83 0301 	eor.w	r3, r3, r1
  408c4c:	b113      	cbz	r3, 408c54 <memchr+0x74>
  408c4e:	d1f8      	bne.n	408c42 <memchr+0x62>
  408c50:	2000      	movs	r0, #0
  408c52:	4770      	bx	lr
  408c54:	3801      	subs	r0, #1
  408c56:	4770      	bx	lr
  408c58:	2d00      	cmp	r5, #0
  408c5a:	bf06      	itte	eq
  408c5c:	4635      	moveq	r5, r6
  408c5e:	3803      	subeq	r0, #3
  408c60:	3807      	subne	r0, #7
  408c62:	f015 0f01 	tst.w	r5, #1
  408c66:	d107      	bne.n	408c78 <memchr+0x98>
  408c68:	3001      	adds	r0, #1
  408c6a:	f415 7f80 	tst.w	r5, #256	; 0x100
  408c6e:	bf02      	ittt	eq
  408c70:	3001      	addeq	r0, #1
  408c72:	f415 3fc0 	tsteq.w	r5, #98304	; 0x18000
  408c76:	3001      	addeq	r0, #1
  408c78:	bcf0      	pop	{r4, r5, r6, r7}
  408c7a:	3801      	subs	r0, #1
  408c7c:	4770      	bx	lr
  408c7e:	bf00      	nop

00408c80 <memmove>:
  408c80:	4288      	cmp	r0, r1
  408c82:	b5f0      	push	{r4, r5, r6, r7, lr}
  408c84:	d90d      	bls.n	408ca2 <memmove+0x22>
  408c86:	188b      	adds	r3, r1, r2
  408c88:	4298      	cmp	r0, r3
  408c8a:	d20a      	bcs.n	408ca2 <memmove+0x22>
  408c8c:	1884      	adds	r4, r0, r2
  408c8e:	2a00      	cmp	r2, #0
  408c90:	d051      	beq.n	408d36 <memmove+0xb6>
  408c92:	4622      	mov	r2, r4
  408c94:	f813 4d01 	ldrb.w	r4, [r3, #-1]!
  408c98:	f802 4d01 	strb.w	r4, [r2, #-1]!
  408c9c:	4299      	cmp	r1, r3
  408c9e:	d1f9      	bne.n	408c94 <memmove+0x14>
  408ca0:	bdf0      	pop	{r4, r5, r6, r7, pc}
  408ca2:	2a0f      	cmp	r2, #15
  408ca4:	d948      	bls.n	408d38 <memmove+0xb8>
  408ca6:	ea41 0300 	orr.w	r3, r1, r0
  408caa:	079b      	lsls	r3, r3, #30
  408cac:	d146      	bne.n	408d3c <memmove+0xbc>
  408cae:	f100 0410 	add.w	r4, r0, #16
  408cb2:	f101 0310 	add.w	r3, r1, #16
  408cb6:	4615      	mov	r5, r2
  408cb8:	f853 6c10 	ldr.w	r6, [r3, #-16]
  408cbc:	f844 6c10 	str.w	r6, [r4, #-16]
  408cc0:	f853 6c0c 	ldr.w	r6, [r3, #-12]
  408cc4:	f844 6c0c 	str.w	r6, [r4, #-12]
  408cc8:	f853 6c08 	ldr.w	r6, [r3, #-8]
  408ccc:	f844 6c08 	str.w	r6, [r4, #-8]
  408cd0:	3d10      	subs	r5, #16
  408cd2:	f853 6c04 	ldr.w	r6, [r3, #-4]
  408cd6:	f844 6c04 	str.w	r6, [r4, #-4]
  408cda:	2d0f      	cmp	r5, #15
  408cdc:	f103 0310 	add.w	r3, r3, #16
  408ce0:	f104 0410 	add.w	r4, r4, #16
  408ce4:	d8e8      	bhi.n	408cb8 <memmove+0x38>
  408ce6:	f1a2 0310 	sub.w	r3, r2, #16
  408cea:	f023 030f 	bic.w	r3, r3, #15
  408cee:	f002 0e0f 	and.w	lr, r2, #15
  408cf2:	3310      	adds	r3, #16
  408cf4:	f1be 0f03 	cmp.w	lr, #3
  408cf8:	4419      	add	r1, r3
  408cfa:	4403      	add	r3, r0
  408cfc:	d921      	bls.n	408d42 <memmove+0xc2>
  408cfe:	1f1e      	subs	r6, r3, #4
  408d00:	460d      	mov	r5, r1
  408d02:	4674      	mov	r4, lr
  408d04:	3c04      	subs	r4, #4
  408d06:	f855 7b04 	ldr.w	r7, [r5], #4
  408d0a:	f846 7f04 	str.w	r7, [r6, #4]!
  408d0e:	2c03      	cmp	r4, #3
  408d10:	d8f8      	bhi.n	408d04 <memmove+0x84>
  408d12:	f1ae 0404 	sub.w	r4, lr, #4
  408d16:	f024 0403 	bic.w	r4, r4, #3
  408d1a:	3404      	adds	r4, #4
  408d1c:	4421      	add	r1, r4
  408d1e:	4423      	add	r3, r4
  408d20:	f002 0203 	and.w	r2, r2, #3
  408d24:	b162      	cbz	r2, 408d40 <memmove+0xc0>
  408d26:	3b01      	subs	r3, #1
  408d28:	440a      	add	r2, r1
  408d2a:	f811 4b01 	ldrb.w	r4, [r1], #1
  408d2e:	f803 4f01 	strb.w	r4, [r3, #1]!
  408d32:	428a      	cmp	r2, r1
  408d34:	d1f9      	bne.n	408d2a <memmove+0xaa>
  408d36:	bdf0      	pop	{r4, r5, r6, r7, pc}
  408d38:	4603      	mov	r3, r0
  408d3a:	e7f3      	b.n	408d24 <memmove+0xa4>
  408d3c:	4603      	mov	r3, r0
  408d3e:	e7f2      	b.n	408d26 <memmove+0xa6>
  408d40:	bdf0      	pop	{r4, r5, r6, r7, pc}
  408d42:	4672      	mov	r2, lr
  408d44:	e7ee      	b.n	408d24 <memmove+0xa4>
  408d46:	bf00      	nop

00408d48 <__malloc_lock>:
  408d48:	4801      	ldr	r0, [pc, #4]	; (408d50 <__malloc_lock+0x8>)
  408d4a:	f7ff bbfd 	b.w	408548 <__retarget_lock_acquire_recursive>
  408d4e:	bf00      	nop
  408d50:	2040c538 	.word	0x2040c538

00408d54 <__malloc_unlock>:
  408d54:	4801      	ldr	r0, [pc, #4]	; (408d5c <__malloc_unlock+0x8>)
  408d56:	f7ff bbf9 	b.w	40854c <__retarget_lock_release_recursive>
  408d5a:	bf00      	nop
  408d5c:	2040c538 	.word	0x2040c538

00408d60 <_realloc_r>:
  408d60:	2900      	cmp	r1, #0
  408d62:	f000 8095 	beq.w	408e90 <_realloc_r+0x130>
  408d66:	e92d 4ff0 	stmdb	sp!, {r4, r5, r6, r7, r8, r9, sl, fp, lr}
  408d6a:	460d      	mov	r5, r1
  408d6c:	4616      	mov	r6, r2
  408d6e:	b083      	sub	sp, #12
  408d70:	4680      	mov	r8, r0
  408d72:	f106 070b 	add.w	r7, r6, #11
  408d76:	f7ff ffe7 	bl	408d48 <__malloc_lock>
  408d7a:	f855 ec04 	ldr.w	lr, [r5, #-4]
  408d7e:	2f16      	cmp	r7, #22
  408d80:	f02e 0403 	bic.w	r4, lr, #3
  408d84:	f1a5 0908 	sub.w	r9, r5, #8
  408d88:	d83c      	bhi.n	408e04 <_realloc_r+0xa4>
  408d8a:	2210      	movs	r2, #16
  408d8c:	4617      	mov	r7, r2
  408d8e:	42be      	cmp	r6, r7
  408d90:	d83d      	bhi.n	408e0e <_realloc_r+0xae>
  408d92:	4294      	cmp	r4, r2
  408d94:	da43      	bge.n	408e1e <_realloc_r+0xbe>
  408d96:	4bc4      	ldr	r3, [pc, #784]	; (4090a8 <_realloc_r+0x348>)
  408d98:	6899      	ldr	r1, [r3, #8]
  408d9a:	eb09 0004 	add.w	r0, r9, r4
  408d9e:	4288      	cmp	r0, r1
  408da0:	f000 80b4 	beq.w	408f0c <_realloc_r+0x1ac>
  408da4:	6843      	ldr	r3, [r0, #4]
  408da6:	f023 0101 	bic.w	r1, r3, #1
  408daa:	4401      	add	r1, r0
  408dac:	6849      	ldr	r1, [r1, #4]
  408dae:	07c9      	lsls	r1, r1, #31
  408db0:	d54c      	bpl.n	408e4c <_realloc_r+0xec>
  408db2:	f01e 0f01 	tst.w	lr, #1
  408db6:	f000 809b 	beq.w	408ef0 <_realloc_r+0x190>
  408dba:	4631      	mov	r1, r6
  408dbc:	4640      	mov	r0, r8
  408dbe:	f7ff fc47 	bl	408650 <_malloc_r>
  408dc2:	4606      	mov	r6, r0
  408dc4:	2800      	cmp	r0, #0
  408dc6:	d03a      	beq.n	408e3e <_realloc_r+0xde>
  408dc8:	f855 3c04 	ldr.w	r3, [r5, #-4]
  408dcc:	f023 0301 	bic.w	r3, r3, #1
  408dd0:	444b      	add	r3, r9
  408dd2:	f1a0 0208 	sub.w	r2, r0, #8
  408dd6:	429a      	cmp	r2, r3
  408dd8:	f000 8121 	beq.w	40901e <_realloc_r+0x2be>
  408ddc:	1f22      	subs	r2, r4, #4
  408dde:	2a24      	cmp	r2, #36	; 0x24
  408de0:	f200 8107 	bhi.w	408ff2 <_realloc_r+0x292>
  408de4:	2a13      	cmp	r2, #19
  408de6:	f200 80db 	bhi.w	408fa0 <_realloc_r+0x240>
  408dea:	4603      	mov	r3, r0
  408dec:	462a      	mov	r2, r5
  408dee:	6811      	ldr	r1, [r2, #0]
  408df0:	6019      	str	r1, [r3, #0]
  408df2:	6851      	ldr	r1, [r2, #4]
  408df4:	6059      	str	r1, [r3, #4]
  408df6:	6892      	ldr	r2, [r2, #8]
  408df8:	609a      	str	r2, [r3, #8]
  408dfa:	4629      	mov	r1, r5
  408dfc:	4640      	mov	r0, r8
  408dfe:	f7ff f909 	bl	408014 <_free_r>
  408e02:	e01c      	b.n	408e3e <_realloc_r+0xde>
  408e04:	f027 0707 	bic.w	r7, r7, #7
  408e08:	2f00      	cmp	r7, #0
  408e0a:	463a      	mov	r2, r7
  408e0c:	dabf      	bge.n	408d8e <_realloc_r+0x2e>
  408e0e:	2600      	movs	r6, #0
  408e10:	230c      	movs	r3, #12
  408e12:	4630      	mov	r0, r6
  408e14:	f8c8 3000 	str.w	r3, [r8]
  408e18:	b003      	add	sp, #12
  408e1a:	e8bd 8ff0 	ldmia.w	sp!, {r4, r5, r6, r7, r8, r9, sl, fp, pc}
  408e1e:	462e      	mov	r6, r5
  408e20:	1be3      	subs	r3, r4, r7
  408e22:	2b0f      	cmp	r3, #15
  408e24:	d81e      	bhi.n	408e64 <_realloc_r+0x104>
  408e26:	f8d9 3004 	ldr.w	r3, [r9, #4]
  408e2a:	f003 0301 	and.w	r3, r3, #1
  408e2e:	4323      	orrs	r3, r4
  408e30:	444c      	add	r4, r9
  408e32:	f8c9 3004 	str.w	r3, [r9, #4]
  408e36:	6863      	ldr	r3, [r4, #4]
  408e38:	f043 0301 	orr.w	r3, r3, #1
  408e3c:	6063      	str	r3, [r4, #4]
  408e3e:	4640      	mov	r0, r8
  408e40:	f7ff ff88 	bl	408d54 <__malloc_unlock>
  408e44:	4630      	mov	r0, r6
  408e46:	b003      	add	sp, #12
  408e48:	e8bd 8ff0 	ldmia.w	sp!, {r4, r5, r6, r7, r8, r9, sl, fp, pc}
  408e4c:	f023 0303 	bic.w	r3, r3, #3
  408e50:	18e1      	adds	r1, r4, r3
  408e52:	4291      	cmp	r1, r2
  408e54:	db1f      	blt.n	408e96 <_realloc_r+0x136>
  408e56:	68c3      	ldr	r3, [r0, #12]
  408e58:	6882      	ldr	r2, [r0, #8]
  408e5a:	462e      	mov	r6, r5
  408e5c:	60d3      	str	r3, [r2, #12]
  408e5e:	460c      	mov	r4, r1
  408e60:	609a      	str	r2, [r3, #8]
  408e62:	e7dd      	b.n	408e20 <_realloc_r+0xc0>
  408e64:	f8d9 2004 	ldr.w	r2, [r9, #4]
  408e68:	eb09 0107 	add.w	r1, r9, r7
  408e6c:	f002 0201 	and.w	r2, r2, #1
  408e70:	444c      	add	r4, r9
  408e72:	f043 0301 	orr.w	r3, r3, #1
  408e76:	4317      	orrs	r7, r2
  408e78:	f8c9 7004 	str.w	r7, [r9, #4]
  408e7c:	604b      	str	r3, [r1, #4]
  408e7e:	6863      	ldr	r3, [r4, #4]
  408e80:	f043 0301 	orr.w	r3, r3, #1
  408e84:	3108      	adds	r1, #8
  408e86:	6063      	str	r3, [r4, #4]
  408e88:	4640      	mov	r0, r8
  408e8a:	f7ff f8c3 	bl	408014 <_free_r>
  408e8e:	e7d6      	b.n	408e3e <_realloc_r+0xde>
  408e90:	4611      	mov	r1, r2
  408e92:	f7ff bbdd 	b.w	408650 <_malloc_r>
  408e96:	f01e 0f01 	tst.w	lr, #1
  408e9a:	d18e      	bne.n	408dba <_realloc_r+0x5a>
  408e9c:	f855 1c08 	ldr.w	r1, [r5, #-8]
  408ea0:	eba9 0a01 	sub.w	sl, r9, r1
  408ea4:	f8da 1004 	ldr.w	r1, [sl, #4]
  408ea8:	f021 0103 	bic.w	r1, r1, #3
  408eac:	440b      	add	r3, r1
  408eae:	4423      	add	r3, r4
  408eb0:	4293      	cmp	r3, r2
  408eb2:	db25      	blt.n	408f00 <_realloc_r+0x1a0>
  408eb4:	68c2      	ldr	r2, [r0, #12]
  408eb6:	6881      	ldr	r1, [r0, #8]
  408eb8:	4656      	mov	r6, sl
  408eba:	60ca      	str	r2, [r1, #12]
  408ebc:	6091      	str	r1, [r2, #8]
  408ebe:	f8da 100c 	ldr.w	r1, [sl, #12]
  408ec2:	f856 0f08 	ldr.w	r0, [r6, #8]!
  408ec6:	1f22      	subs	r2, r4, #4
  408ec8:	2a24      	cmp	r2, #36	; 0x24
  408eca:	60c1      	str	r1, [r0, #12]
  408ecc:	6088      	str	r0, [r1, #8]
  408ece:	f200 8094 	bhi.w	408ffa <_realloc_r+0x29a>
  408ed2:	2a13      	cmp	r2, #19
  408ed4:	d96f      	bls.n	408fb6 <_realloc_r+0x256>
  408ed6:	6829      	ldr	r1, [r5, #0]
  408ed8:	f8ca 1008 	str.w	r1, [sl, #8]
  408edc:	6869      	ldr	r1, [r5, #4]
  408ede:	f8ca 100c 	str.w	r1, [sl, #12]
  408ee2:	2a1b      	cmp	r2, #27
  408ee4:	f200 80a2 	bhi.w	40902c <_realloc_r+0x2cc>
  408ee8:	3508      	adds	r5, #8
  408eea:	f10a 0210 	add.w	r2, sl, #16
  408eee:	e063      	b.n	408fb8 <_realloc_r+0x258>
  408ef0:	f855 3c08 	ldr.w	r3, [r5, #-8]
  408ef4:	eba9 0a03 	sub.w	sl, r9, r3
  408ef8:	f8da 1004 	ldr.w	r1, [sl, #4]
  408efc:	f021 0103 	bic.w	r1, r1, #3
  408f00:	1863      	adds	r3, r4, r1
  408f02:	4293      	cmp	r3, r2
  408f04:	f6ff af59 	blt.w	408dba <_realloc_r+0x5a>
  408f08:	4656      	mov	r6, sl
  408f0a:	e7d8      	b.n	408ebe <_realloc_r+0x15e>
  408f0c:	6841      	ldr	r1, [r0, #4]
  408f0e:	f021 0b03 	bic.w	fp, r1, #3
  408f12:	44a3      	add	fp, r4
  408f14:	f107 0010 	add.w	r0, r7, #16
  408f18:	4583      	cmp	fp, r0
  408f1a:	da56      	bge.n	408fca <_realloc_r+0x26a>
  408f1c:	f01e 0f01 	tst.w	lr, #1
  408f20:	f47f af4b 	bne.w	408dba <_realloc_r+0x5a>
  408f24:	f855 1c08 	ldr.w	r1, [r5, #-8]
  408f28:	eba9 0a01 	sub.w	sl, r9, r1
  408f2c:	f8da 1004 	ldr.w	r1, [sl, #4]
  408f30:	f021 0103 	bic.w	r1, r1, #3
  408f34:	448b      	add	fp, r1
  408f36:	4558      	cmp	r0, fp
  408f38:	dce2      	bgt.n	408f00 <_realloc_r+0x1a0>
  408f3a:	4656      	mov	r6, sl
  408f3c:	f8da 100c 	ldr.w	r1, [sl, #12]
  408f40:	f856 0f08 	ldr.w	r0, [r6, #8]!
  408f44:	1f22      	subs	r2, r4, #4
  408f46:	2a24      	cmp	r2, #36	; 0x24
  408f48:	60c1      	str	r1, [r0, #12]
  408f4a:	6088      	str	r0, [r1, #8]
  408f4c:	f200 808f 	bhi.w	40906e <_realloc_r+0x30e>
  408f50:	2a13      	cmp	r2, #19
  408f52:	f240 808a 	bls.w	40906a <_realloc_r+0x30a>
  408f56:	6829      	ldr	r1, [r5, #0]
  408f58:	f8ca 1008 	str.w	r1, [sl, #8]
  408f5c:	6869      	ldr	r1, [r5, #4]
  408f5e:	f8ca 100c 	str.w	r1, [sl, #12]
  408f62:	2a1b      	cmp	r2, #27
  408f64:	f200 808a 	bhi.w	40907c <_realloc_r+0x31c>
  408f68:	3508      	adds	r5, #8
  408f6a:	f10a 0210 	add.w	r2, sl, #16
  408f6e:	6829      	ldr	r1, [r5, #0]
  408f70:	6011      	str	r1, [r2, #0]
  408f72:	6869      	ldr	r1, [r5, #4]
  408f74:	6051      	str	r1, [r2, #4]
  408f76:	68a9      	ldr	r1, [r5, #8]
  408f78:	6091      	str	r1, [r2, #8]
  408f7a:	eb0a 0107 	add.w	r1, sl, r7
  408f7e:	ebab 0207 	sub.w	r2, fp, r7
  408f82:	f042 0201 	orr.w	r2, r2, #1
  408f86:	6099      	str	r1, [r3, #8]
  408f88:	604a      	str	r2, [r1, #4]
  408f8a:	f8da 3004 	ldr.w	r3, [sl, #4]
  408f8e:	f003 0301 	and.w	r3, r3, #1
  408f92:	431f      	orrs	r7, r3
  408f94:	4640      	mov	r0, r8
  408f96:	f8ca 7004 	str.w	r7, [sl, #4]
  408f9a:	f7ff fedb 	bl	408d54 <__malloc_unlock>
  408f9e:	e751      	b.n	408e44 <_realloc_r+0xe4>
  408fa0:	682b      	ldr	r3, [r5, #0]
  408fa2:	6003      	str	r3, [r0, #0]
  408fa4:	686b      	ldr	r3, [r5, #4]
  408fa6:	6043      	str	r3, [r0, #4]
  408fa8:	2a1b      	cmp	r2, #27
  408faa:	d82d      	bhi.n	409008 <_realloc_r+0x2a8>
  408fac:	f100 0308 	add.w	r3, r0, #8
  408fb0:	f105 0208 	add.w	r2, r5, #8
  408fb4:	e71b      	b.n	408dee <_realloc_r+0x8e>
  408fb6:	4632      	mov	r2, r6
  408fb8:	6829      	ldr	r1, [r5, #0]
  408fba:	6011      	str	r1, [r2, #0]
  408fbc:	6869      	ldr	r1, [r5, #4]
  408fbe:	6051      	str	r1, [r2, #4]
  408fc0:	68a9      	ldr	r1, [r5, #8]
  408fc2:	6091      	str	r1, [r2, #8]
  408fc4:	461c      	mov	r4, r3
  408fc6:	46d1      	mov	r9, sl
  408fc8:	e72a      	b.n	408e20 <_realloc_r+0xc0>
  408fca:	eb09 0107 	add.w	r1, r9, r7
  408fce:	ebab 0b07 	sub.w	fp, fp, r7
  408fd2:	f04b 0201 	orr.w	r2, fp, #1
  408fd6:	6099      	str	r1, [r3, #8]
  408fd8:	604a      	str	r2, [r1, #4]
  408fda:	f855 3c04 	ldr.w	r3, [r5, #-4]
  408fde:	f003 0301 	and.w	r3, r3, #1
  408fe2:	431f      	orrs	r7, r3
  408fe4:	4640      	mov	r0, r8
  408fe6:	f845 7c04 	str.w	r7, [r5, #-4]
  408fea:	f7ff feb3 	bl	408d54 <__malloc_unlock>
  408fee:	462e      	mov	r6, r5
  408ff0:	e728      	b.n	408e44 <_realloc_r+0xe4>
  408ff2:	4629      	mov	r1, r5
  408ff4:	f7ff fe44 	bl	408c80 <memmove>
  408ff8:	e6ff      	b.n	408dfa <_realloc_r+0x9a>
  408ffa:	4629      	mov	r1, r5
  408ffc:	4630      	mov	r0, r6
  408ffe:	461c      	mov	r4, r3
  409000:	46d1      	mov	r9, sl
  409002:	f7ff fe3d 	bl	408c80 <memmove>
  409006:	e70b      	b.n	408e20 <_realloc_r+0xc0>
  409008:	68ab      	ldr	r3, [r5, #8]
  40900a:	6083      	str	r3, [r0, #8]
  40900c:	68eb      	ldr	r3, [r5, #12]
  40900e:	60c3      	str	r3, [r0, #12]
  409010:	2a24      	cmp	r2, #36	; 0x24
  409012:	d017      	beq.n	409044 <_realloc_r+0x2e4>
  409014:	f100 0310 	add.w	r3, r0, #16
  409018:	f105 0210 	add.w	r2, r5, #16
  40901c:	e6e7      	b.n	408dee <_realloc_r+0x8e>
  40901e:	f850 3c04 	ldr.w	r3, [r0, #-4]
  409022:	f023 0303 	bic.w	r3, r3, #3
  409026:	441c      	add	r4, r3
  409028:	462e      	mov	r6, r5
  40902a:	e6f9      	b.n	408e20 <_realloc_r+0xc0>
  40902c:	68a9      	ldr	r1, [r5, #8]
  40902e:	f8ca 1010 	str.w	r1, [sl, #16]
  409032:	68e9      	ldr	r1, [r5, #12]
  409034:	f8ca 1014 	str.w	r1, [sl, #20]
  409038:	2a24      	cmp	r2, #36	; 0x24
  40903a:	d00c      	beq.n	409056 <_realloc_r+0x2f6>
  40903c:	3510      	adds	r5, #16
  40903e:	f10a 0218 	add.w	r2, sl, #24
  409042:	e7b9      	b.n	408fb8 <_realloc_r+0x258>
  409044:	692b      	ldr	r3, [r5, #16]
  409046:	6103      	str	r3, [r0, #16]
  409048:	696b      	ldr	r3, [r5, #20]
  40904a:	6143      	str	r3, [r0, #20]
  40904c:	f105 0218 	add.w	r2, r5, #24
  409050:	f100 0318 	add.w	r3, r0, #24
  409054:	e6cb      	b.n	408dee <_realloc_r+0x8e>
  409056:	692a      	ldr	r2, [r5, #16]
  409058:	f8ca 2018 	str.w	r2, [sl, #24]
  40905c:	696a      	ldr	r2, [r5, #20]
  40905e:	f8ca 201c 	str.w	r2, [sl, #28]
  409062:	3518      	adds	r5, #24
  409064:	f10a 0220 	add.w	r2, sl, #32
  409068:	e7a6      	b.n	408fb8 <_realloc_r+0x258>
  40906a:	4632      	mov	r2, r6
  40906c:	e77f      	b.n	408f6e <_realloc_r+0x20e>
  40906e:	4629      	mov	r1, r5
  409070:	4630      	mov	r0, r6
  409072:	9301      	str	r3, [sp, #4]
  409074:	f7ff fe04 	bl	408c80 <memmove>
  409078:	9b01      	ldr	r3, [sp, #4]
  40907a:	e77e      	b.n	408f7a <_realloc_r+0x21a>
  40907c:	68a9      	ldr	r1, [r5, #8]
  40907e:	f8ca 1010 	str.w	r1, [sl, #16]
  409082:	68e9      	ldr	r1, [r5, #12]
  409084:	f8ca 1014 	str.w	r1, [sl, #20]
  409088:	2a24      	cmp	r2, #36	; 0x24
  40908a:	d003      	beq.n	409094 <_realloc_r+0x334>
  40908c:	3510      	adds	r5, #16
  40908e:	f10a 0218 	add.w	r2, sl, #24
  409092:	e76c      	b.n	408f6e <_realloc_r+0x20e>
  409094:	692a      	ldr	r2, [r5, #16]
  409096:	f8ca 2018 	str.w	r2, [sl, #24]
  40909a:	696a      	ldr	r2, [r5, #20]
  40909c:	f8ca 201c 	str.w	r2, [sl, #28]
  4090a0:	3518      	adds	r5, #24
  4090a2:	f10a 0220 	add.w	r2, sl, #32
  4090a6:	e762      	b.n	408f6e <_realloc_r+0x20e>
  4090a8:	204005d8 	.word	0x204005d8

004090ac <_sbrk_r>:
  4090ac:	b538      	push	{r3, r4, r5, lr}
  4090ae:	4c07      	ldr	r4, [pc, #28]	; (4090cc <_sbrk_r+0x20>)
  4090b0:	2300      	movs	r3, #0
  4090b2:	4605      	mov	r5, r0
  4090b4:	4608      	mov	r0, r1
  4090b6:	6023      	str	r3, [r4, #0]
  4090b8:	f7f9 f9c4 	bl	402444 <_sbrk>
  4090bc:	1c43      	adds	r3, r0, #1
  4090be:	d000      	beq.n	4090c2 <_sbrk_r+0x16>
  4090c0:	bd38      	pop	{r3, r4, r5, pc}
  4090c2:	6823      	ldr	r3, [r4, #0]
  4090c4:	2b00      	cmp	r3, #0
  4090c6:	d0fb      	beq.n	4090c0 <_sbrk_r+0x14>
  4090c8:	602b      	str	r3, [r5, #0]
  4090ca:	bd38      	pop	{r3, r4, r5, pc}
  4090cc:	2040c54c 	.word	0x2040c54c

004090d0 <__sread>:
  4090d0:	b510      	push	{r4, lr}
  4090d2:	460c      	mov	r4, r1
  4090d4:	f9b1 100e 	ldrsh.w	r1, [r1, #14]
  4090d8:	f000 f9f6 	bl	4094c8 <_read_r>
  4090dc:	2800      	cmp	r0, #0
  4090de:	db03      	blt.n	4090e8 <__sread+0x18>
  4090e0:	6d23      	ldr	r3, [r4, #80]	; 0x50
  4090e2:	4403      	add	r3, r0
  4090e4:	6523      	str	r3, [r4, #80]	; 0x50
  4090e6:	bd10      	pop	{r4, pc}
  4090e8:	89a3      	ldrh	r3, [r4, #12]
  4090ea:	f423 5380 	bic.w	r3, r3, #4096	; 0x1000
  4090ee:	81a3      	strh	r3, [r4, #12]
  4090f0:	bd10      	pop	{r4, pc}
  4090f2:	bf00      	nop

004090f4 <__swrite>:
  4090f4:	e92d 41f0 	stmdb	sp!, {r4, r5, r6, r7, r8, lr}
  4090f8:	4616      	mov	r6, r2
  4090fa:	f9b1 200c 	ldrsh.w	r2, [r1, #12]
  4090fe:	461f      	mov	r7, r3
  409100:	05d3      	lsls	r3, r2, #23
  409102:	460c      	mov	r4, r1
  409104:	4605      	mov	r5, r0
  409106:	d507      	bpl.n	409118 <__swrite+0x24>
  409108:	2200      	movs	r2, #0
  40910a:	2302      	movs	r3, #2
  40910c:	f9b1 100e 	ldrsh.w	r1, [r1, #14]
  409110:	f000 f9c4 	bl	40949c <_lseek_r>
  409114:	f9b4 200c 	ldrsh.w	r2, [r4, #12]
  409118:	f9b4 100e 	ldrsh.w	r1, [r4, #14]
  40911c:	f422 5280 	bic.w	r2, r2, #4096	; 0x1000
  409120:	81a2      	strh	r2, [r4, #12]
  409122:	463b      	mov	r3, r7
  409124:	4632      	mov	r2, r6
  409126:	4628      	mov	r0, r5
  409128:	e8bd 41f0 	ldmia.w	sp!, {r4, r5, r6, r7, r8, lr}
  40912c:	f000 b8a4 	b.w	409278 <_write_r>

00409130 <__sseek>:
  409130:	b510      	push	{r4, lr}
  409132:	460c      	mov	r4, r1
  409134:	f9b1 100e 	ldrsh.w	r1, [r1, #14]
  409138:	f000 f9b0 	bl	40949c <_lseek_r>
  40913c:	89a3      	ldrh	r3, [r4, #12]
  40913e:	1c42      	adds	r2, r0, #1
  409140:	bf0e      	itee	eq
  409142:	f423 5380 	biceq.w	r3, r3, #4096	; 0x1000
  409146:	f443 5380 	orrne.w	r3, r3, #4096	; 0x1000
  40914a:	6520      	strne	r0, [r4, #80]	; 0x50
  40914c:	81a3      	strh	r3, [r4, #12]
  40914e:	bd10      	pop	{r4, pc}

00409150 <__sclose>:
  409150:	f9b1 100e 	ldrsh.w	r1, [r1, #14]
  409154:	f000 b908 	b.w	409368 <_close_r>

00409158 <__swbuf_r>:
  409158:	b5f8      	push	{r3, r4, r5, r6, r7, lr}
  40915a:	460d      	mov	r5, r1
  40915c:	4614      	mov	r4, r2
  40915e:	4606      	mov	r6, r0
  409160:	b110      	cbz	r0, 409168 <__swbuf_r+0x10>
  409162:	6b83      	ldr	r3, [r0, #56]	; 0x38
  409164:	2b00      	cmp	r3, #0
  409166:	d04b      	beq.n	409200 <__swbuf_r+0xa8>
  409168:	f9b4 200c 	ldrsh.w	r2, [r4, #12]
  40916c:	69a3      	ldr	r3, [r4, #24]
  40916e:	60a3      	str	r3, [r4, #8]
  409170:	b291      	uxth	r1, r2
  409172:	0708      	lsls	r0, r1, #28
  409174:	d539      	bpl.n	4091ea <__swbuf_r+0x92>
  409176:	6923      	ldr	r3, [r4, #16]
  409178:	2b00      	cmp	r3, #0
  40917a:	d036      	beq.n	4091ea <__swbuf_r+0x92>
  40917c:	b2ed      	uxtb	r5, r5
  40917e:	0489      	lsls	r1, r1, #18
  409180:	462f      	mov	r7, r5
  409182:	d515      	bpl.n	4091b0 <__swbuf_r+0x58>
  409184:	6822      	ldr	r2, [r4, #0]
  409186:	6961      	ldr	r1, [r4, #20]
  409188:	1ad3      	subs	r3, r2, r3
  40918a:	428b      	cmp	r3, r1
  40918c:	da1c      	bge.n	4091c8 <__swbuf_r+0x70>
  40918e:	3301      	adds	r3, #1
  409190:	68a1      	ldr	r1, [r4, #8]
  409192:	1c50      	adds	r0, r2, #1
  409194:	3901      	subs	r1, #1
  409196:	60a1      	str	r1, [r4, #8]
  409198:	6020      	str	r0, [r4, #0]
  40919a:	7015      	strb	r5, [r2, #0]
  40919c:	6962      	ldr	r2, [r4, #20]
  40919e:	429a      	cmp	r2, r3
  4091a0:	d01a      	beq.n	4091d8 <__swbuf_r+0x80>
  4091a2:	89a3      	ldrh	r3, [r4, #12]
  4091a4:	07db      	lsls	r3, r3, #31
  4091a6:	d501      	bpl.n	4091ac <__swbuf_r+0x54>
  4091a8:	2d0a      	cmp	r5, #10
  4091aa:	d015      	beq.n	4091d8 <__swbuf_r+0x80>
  4091ac:	4638      	mov	r0, r7
  4091ae:	bdf8      	pop	{r3, r4, r5, r6, r7, pc}
  4091b0:	6e61      	ldr	r1, [r4, #100]	; 0x64
  4091b2:	f442 5200 	orr.w	r2, r2, #8192	; 0x2000
  4091b6:	f421 5100 	bic.w	r1, r1, #8192	; 0x2000
  4091ba:	81a2      	strh	r2, [r4, #12]
  4091bc:	6822      	ldr	r2, [r4, #0]
  4091be:	6661      	str	r1, [r4, #100]	; 0x64
  4091c0:	6961      	ldr	r1, [r4, #20]
  4091c2:	1ad3      	subs	r3, r2, r3
  4091c4:	428b      	cmp	r3, r1
  4091c6:	dbe2      	blt.n	40918e <__swbuf_r+0x36>
  4091c8:	4621      	mov	r1, r4
  4091ca:	4630      	mov	r0, r6
  4091cc:	f7fe fda4 	bl	407d18 <_fflush_r>
  4091d0:	b940      	cbnz	r0, 4091e4 <__swbuf_r+0x8c>
  4091d2:	6822      	ldr	r2, [r4, #0]
  4091d4:	2301      	movs	r3, #1
  4091d6:	e7db      	b.n	409190 <__swbuf_r+0x38>
  4091d8:	4621      	mov	r1, r4
  4091da:	4630      	mov	r0, r6
  4091dc:	f7fe fd9c 	bl	407d18 <_fflush_r>
  4091e0:	2800      	cmp	r0, #0
  4091e2:	d0e3      	beq.n	4091ac <__swbuf_r+0x54>
  4091e4:	f04f 37ff 	mov.w	r7, #4294967295
  4091e8:	e7e0      	b.n	4091ac <__swbuf_r+0x54>
  4091ea:	4621      	mov	r1, r4
  4091ec:	4630      	mov	r0, r6
  4091ee:	f7fe fc7f 	bl	407af0 <__swsetup_r>
  4091f2:	2800      	cmp	r0, #0
  4091f4:	d1f6      	bne.n	4091e4 <__swbuf_r+0x8c>
  4091f6:	f9b4 200c 	ldrsh.w	r2, [r4, #12]
  4091fa:	6923      	ldr	r3, [r4, #16]
  4091fc:	b291      	uxth	r1, r2
  4091fe:	e7bd      	b.n	40917c <__swbuf_r+0x24>
  409200:	f7fe fde2 	bl	407dc8 <__sinit>
  409204:	e7b0      	b.n	409168 <__swbuf_r+0x10>
  409206:	bf00      	nop

00409208 <_wcrtomb_r>:
  409208:	b5f0      	push	{r4, r5, r6, r7, lr}
  40920a:	4606      	mov	r6, r0
  40920c:	b085      	sub	sp, #20
  40920e:	461f      	mov	r7, r3
  409210:	b189      	cbz	r1, 409236 <_wcrtomb_r+0x2e>
  409212:	4c10      	ldr	r4, [pc, #64]	; (409254 <_wcrtomb_r+0x4c>)
  409214:	4d10      	ldr	r5, [pc, #64]	; (409258 <_wcrtomb_r+0x50>)
  409216:	6824      	ldr	r4, [r4, #0]
  409218:	6b64      	ldr	r4, [r4, #52]	; 0x34
  40921a:	2c00      	cmp	r4, #0
  40921c:	bf08      	it	eq
  40921e:	462c      	moveq	r4, r5
  409220:	f8d4 40e0 	ldr.w	r4, [r4, #224]	; 0xe0
  409224:	47a0      	blx	r4
  409226:	1c43      	adds	r3, r0, #1
  409228:	d103      	bne.n	409232 <_wcrtomb_r+0x2a>
  40922a:	2200      	movs	r2, #0
  40922c:	238a      	movs	r3, #138	; 0x8a
  40922e:	603a      	str	r2, [r7, #0]
  409230:	6033      	str	r3, [r6, #0]
  409232:	b005      	add	sp, #20
  409234:	bdf0      	pop	{r4, r5, r6, r7, pc}
  409236:	460c      	mov	r4, r1
  409238:	4906      	ldr	r1, [pc, #24]	; (409254 <_wcrtomb_r+0x4c>)
  40923a:	4a07      	ldr	r2, [pc, #28]	; (409258 <_wcrtomb_r+0x50>)
  40923c:	6809      	ldr	r1, [r1, #0]
  40923e:	6b49      	ldr	r1, [r1, #52]	; 0x34
  409240:	2900      	cmp	r1, #0
  409242:	bf08      	it	eq
  409244:	4611      	moveq	r1, r2
  409246:	4622      	mov	r2, r4
  409248:	f8d1 40e0 	ldr.w	r4, [r1, #224]	; 0xe0
  40924c:	a901      	add	r1, sp, #4
  40924e:	47a0      	blx	r4
  409250:	e7e9      	b.n	409226 <_wcrtomb_r+0x1e>
  409252:	bf00      	nop
  409254:	2040003c 	.word	0x2040003c
  409258:	2040046c 	.word	0x2040046c

0040925c <__ascii_wctomb>:
  40925c:	b121      	cbz	r1, 409268 <__ascii_wctomb+0xc>
  40925e:	2aff      	cmp	r2, #255	; 0xff
  409260:	d804      	bhi.n	40926c <__ascii_wctomb+0x10>
  409262:	700a      	strb	r2, [r1, #0]
  409264:	2001      	movs	r0, #1
  409266:	4770      	bx	lr
  409268:	4608      	mov	r0, r1
  40926a:	4770      	bx	lr
  40926c:	238a      	movs	r3, #138	; 0x8a
  40926e:	6003      	str	r3, [r0, #0]
  409270:	f04f 30ff 	mov.w	r0, #4294967295
  409274:	4770      	bx	lr
  409276:	bf00      	nop

00409278 <_write_r>:
  409278:	b570      	push	{r4, r5, r6, lr}
  40927a:	460d      	mov	r5, r1
  40927c:	4c08      	ldr	r4, [pc, #32]	; (4092a0 <_write_r+0x28>)
  40927e:	4611      	mov	r1, r2
  409280:	4606      	mov	r6, r0
  409282:	461a      	mov	r2, r3
  409284:	4628      	mov	r0, r5
  409286:	2300      	movs	r3, #0
  409288:	6023      	str	r3, [r4, #0]
  40928a:	f7fc fe99 	bl	405fc0 <_write>
  40928e:	1c43      	adds	r3, r0, #1
  409290:	d000      	beq.n	409294 <_write_r+0x1c>
  409292:	bd70      	pop	{r4, r5, r6, pc}
  409294:	6823      	ldr	r3, [r4, #0]
  409296:	2b00      	cmp	r3, #0
  409298:	d0fb      	beq.n	409292 <_write_r+0x1a>
  40929a:	6033      	str	r3, [r6, #0]
  40929c:	bd70      	pop	{r4, r5, r6, pc}
  40929e:	bf00      	nop
  4092a0:	2040c54c 	.word	0x2040c54c

004092a4 <__register_exitproc>:
  4092a4:	e92d 43f8 	stmdb	sp!, {r3, r4, r5, r6, r7, r8, r9, lr}
  4092a8:	4d2c      	ldr	r5, [pc, #176]	; (40935c <__register_exitproc+0xb8>)
  4092aa:	4606      	mov	r6, r0
  4092ac:	6828      	ldr	r0, [r5, #0]
  4092ae:	4698      	mov	r8, r3
  4092b0:	460f      	mov	r7, r1
  4092b2:	4691      	mov	r9, r2
  4092b4:	f7ff f948 	bl	408548 <__retarget_lock_acquire_recursive>
  4092b8:	4b29      	ldr	r3, [pc, #164]	; (409360 <__register_exitproc+0xbc>)
  4092ba:	681c      	ldr	r4, [r3, #0]
  4092bc:	f8d4 3148 	ldr.w	r3, [r4, #328]	; 0x148
  4092c0:	2b00      	cmp	r3, #0
  4092c2:	d03e      	beq.n	409342 <__register_exitproc+0x9e>
  4092c4:	685a      	ldr	r2, [r3, #4]
  4092c6:	2a1f      	cmp	r2, #31
  4092c8:	dc1c      	bgt.n	409304 <__register_exitproc+0x60>
  4092ca:	f102 0e01 	add.w	lr, r2, #1
  4092ce:	b176      	cbz	r6, 4092ee <__register_exitproc+0x4a>
  4092d0:	eb03 0182 	add.w	r1, r3, r2, lsl #2
  4092d4:	2401      	movs	r4, #1
  4092d6:	f8c1 9088 	str.w	r9, [r1, #136]	; 0x88
  4092da:	f8d3 0188 	ldr.w	r0, [r3, #392]	; 0x188
  4092de:	4094      	lsls	r4, r2
  4092e0:	4320      	orrs	r0, r4
  4092e2:	2e02      	cmp	r6, #2
  4092e4:	f8c3 0188 	str.w	r0, [r3, #392]	; 0x188
  4092e8:	f8c1 8108 	str.w	r8, [r1, #264]	; 0x108
  4092ec:	d023      	beq.n	409336 <__register_exitproc+0x92>
  4092ee:	3202      	adds	r2, #2
  4092f0:	f8c3 e004 	str.w	lr, [r3, #4]
  4092f4:	6828      	ldr	r0, [r5, #0]
  4092f6:	f843 7022 	str.w	r7, [r3, r2, lsl #2]
  4092fa:	f7ff f927 	bl	40854c <__retarget_lock_release_recursive>
  4092fe:	2000      	movs	r0, #0
  409300:	e8bd 83f8 	ldmia.w	sp!, {r3, r4, r5, r6, r7, r8, r9, pc}
  409304:	4b17      	ldr	r3, [pc, #92]	; (409364 <__register_exitproc+0xc0>)
  409306:	b30b      	cbz	r3, 40934c <__register_exitproc+0xa8>
  409308:	f44f 70c8 	mov.w	r0, #400	; 0x190
  40930c:	f7ff f998 	bl	408640 <malloc>
  409310:	4603      	mov	r3, r0
  409312:	b1d8      	cbz	r0, 40934c <__register_exitproc+0xa8>
  409314:	f8d4 2148 	ldr.w	r2, [r4, #328]	; 0x148
  409318:	6002      	str	r2, [r0, #0]
  40931a:	2100      	movs	r1, #0
  40931c:	6041      	str	r1, [r0, #4]
  40931e:	460a      	mov	r2, r1
  409320:	f8c4 0148 	str.w	r0, [r4, #328]	; 0x148
  409324:	f04f 0e01 	mov.w	lr, #1
  409328:	f8c0 1188 	str.w	r1, [r0, #392]	; 0x188
  40932c:	f8c0 118c 	str.w	r1, [r0, #396]	; 0x18c
  409330:	2e00      	cmp	r6, #0
  409332:	d0dc      	beq.n	4092ee <__register_exitproc+0x4a>
  409334:	e7cc      	b.n	4092d0 <__register_exitproc+0x2c>
  409336:	f8d3 118c 	ldr.w	r1, [r3, #396]	; 0x18c
  40933a:	430c      	orrs	r4, r1
  40933c:	f8c3 418c 	str.w	r4, [r3, #396]	; 0x18c
  409340:	e7d5      	b.n	4092ee <__register_exitproc+0x4a>
  409342:	f504 73a6 	add.w	r3, r4, #332	; 0x14c
  409346:	f8c4 3148 	str.w	r3, [r4, #328]	; 0x148
  40934a:	e7bb      	b.n	4092c4 <__register_exitproc+0x20>
  40934c:	6828      	ldr	r0, [r5, #0]
  40934e:	f7ff f8fd 	bl	40854c <__retarget_lock_release_recursive>
  409352:	f04f 30ff 	mov.w	r0, #4294967295
  409356:	e8bd 83f8 	ldmia.w	sp!, {r3, r4, r5, r6, r7, r8, r9, pc}
  40935a:	bf00      	nop
  40935c:	20400468 	.word	0x20400468
  409360:	0040a0b8 	.word	0x0040a0b8
  409364:	00408641 	.word	0x00408641

00409368 <_close_r>:
  409368:	b538      	push	{r3, r4, r5, lr}
  40936a:	4c07      	ldr	r4, [pc, #28]	; (409388 <_close_r+0x20>)
  40936c:	2300      	movs	r3, #0
  40936e:	4605      	mov	r5, r0
  409370:	4608      	mov	r0, r1
  409372:	6023      	str	r3, [r4, #0]
  409374:	f7f9 f882 	bl	40247c <_close>
  409378:	1c43      	adds	r3, r0, #1
  40937a:	d000      	beq.n	40937e <_close_r+0x16>
  40937c:	bd38      	pop	{r3, r4, r5, pc}
  40937e:	6823      	ldr	r3, [r4, #0]
  409380:	2b00      	cmp	r3, #0
  409382:	d0fb      	beq.n	40937c <_close_r+0x14>
  409384:	602b      	str	r3, [r5, #0]
  409386:	bd38      	pop	{r3, r4, r5, pc}
  409388:	2040c54c 	.word	0x2040c54c

0040938c <_fclose_r>:
  40938c:	b570      	push	{r4, r5, r6, lr}
  40938e:	b159      	cbz	r1, 4093a8 <_fclose_r+0x1c>
  409390:	4605      	mov	r5, r0
  409392:	460c      	mov	r4, r1
  409394:	b110      	cbz	r0, 40939c <_fclose_r+0x10>
  409396:	6b83      	ldr	r3, [r0, #56]	; 0x38
  409398:	2b00      	cmp	r3, #0
  40939a:	d03c      	beq.n	409416 <_fclose_r+0x8a>
  40939c:	6e63      	ldr	r3, [r4, #100]	; 0x64
  40939e:	07d8      	lsls	r0, r3, #31
  4093a0:	d505      	bpl.n	4093ae <_fclose_r+0x22>
  4093a2:	f9b4 300c 	ldrsh.w	r3, [r4, #12]
  4093a6:	b92b      	cbnz	r3, 4093b4 <_fclose_r+0x28>
  4093a8:	2600      	movs	r6, #0
  4093aa:	4630      	mov	r0, r6
  4093ac:	bd70      	pop	{r4, r5, r6, pc}
  4093ae:	89a3      	ldrh	r3, [r4, #12]
  4093b0:	0599      	lsls	r1, r3, #22
  4093b2:	d53c      	bpl.n	40942e <_fclose_r+0xa2>
  4093b4:	4621      	mov	r1, r4
  4093b6:	4628      	mov	r0, r5
  4093b8:	f7fe fc0e 	bl	407bd8 <__sflush_r>
  4093bc:	6ae3      	ldr	r3, [r4, #44]	; 0x2c
  4093be:	4606      	mov	r6, r0
  4093c0:	b133      	cbz	r3, 4093d0 <_fclose_r+0x44>
  4093c2:	69e1      	ldr	r1, [r4, #28]
  4093c4:	4628      	mov	r0, r5
  4093c6:	4798      	blx	r3
  4093c8:	2800      	cmp	r0, #0
  4093ca:	bfb8      	it	lt
  4093cc:	f04f 36ff 	movlt.w	r6, #4294967295
  4093d0:	89a3      	ldrh	r3, [r4, #12]
  4093d2:	061a      	lsls	r2, r3, #24
  4093d4:	d422      	bmi.n	40941c <_fclose_r+0x90>
  4093d6:	6b21      	ldr	r1, [r4, #48]	; 0x30
  4093d8:	b141      	cbz	r1, 4093ec <_fclose_r+0x60>
  4093da:	f104 0340 	add.w	r3, r4, #64	; 0x40
  4093de:	4299      	cmp	r1, r3
  4093e0:	d002      	beq.n	4093e8 <_fclose_r+0x5c>
  4093e2:	4628      	mov	r0, r5
  4093e4:	f7fe fe16 	bl	408014 <_free_r>
  4093e8:	2300      	movs	r3, #0
  4093ea:	6323      	str	r3, [r4, #48]	; 0x30
  4093ec:	6c61      	ldr	r1, [r4, #68]	; 0x44
  4093ee:	b121      	cbz	r1, 4093fa <_fclose_r+0x6e>
  4093f0:	4628      	mov	r0, r5
  4093f2:	f7fe fe0f 	bl	408014 <_free_r>
  4093f6:	2300      	movs	r3, #0
  4093f8:	6463      	str	r3, [r4, #68]	; 0x44
  4093fa:	f7fe fd11 	bl	407e20 <__sfp_lock_acquire>
  4093fe:	6e63      	ldr	r3, [r4, #100]	; 0x64
  409400:	2200      	movs	r2, #0
  409402:	07db      	lsls	r3, r3, #31
  409404:	81a2      	strh	r2, [r4, #12]
  409406:	d50e      	bpl.n	409426 <_fclose_r+0x9a>
  409408:	6da0      	ldr	r0, [r4, #88]	; 0x58
  40940a:	f7ff f89b 	bl	408544 <__retarget_lock_close_recursive>
  40940e:	f7fe fd0d 	bl	407e2c <__sfp_lock_release>
  409412:	4630      	mov	r0, r6
  409414:	bd70      	pop	{r4, r5, r6, pc}
  409416:	f7fe fcd7 	bl	407dc8 <__sinit>
  40941a:	e7bf      	b.n	40939c <_fclose_r+0x10>
  40941c:	6921      	ldr	r1, [r4, #16]
  40941e:	4628      	mov	r0, r5
  409420:	f7fe fdf8 	bl	408014 <_free_r>
  409424:	e7d7      	b.n	4093d6 <_fclose_r+0x4a>
  409426:	6da0      	ldr	r0, [r4, #88]	; 0x58
  409428:	f7ff f890 	bl	40854c <__retarget_lock_release_recursive>
  40942c:	e7ec      	b.n	409408 <_fclose_r+0x7c>
  40942e:	6da0      	ldr	r0, [r4, #88]	; 0x58
  409430:	f7ff f88a 	bl	408548 <__retarget_lock_acquire_recursive>
  409434:	f9b4 300c 	ldrsh.w	r3, [r4, #12]
  409438:	2b00      	cmp	r3, #0
  40943a:	d1bb      	bne.n	4093b4 <_fclose_r+0x28>
  40943c:	6e66      	ldr	r6, [r4, #100]	; 0x64
  40943e:	f016 0601 	ands.w	r6, r6, #1
  409442:	d1b1      	bne.n	4093a8 <_fclose_r+0x1c>
  409444:	6da0      	ldr	r0, [r4, #88]	; 0x58
  409446:	f7ff f881 	bl	40854c <__retarget_lock_release_recursive>
  40944a:	4630      	mov	r0, r6
  40944c:	bd70      	pop	{r4, r5, r6, pc}
  40944e:	bf00      	nop

00409450 <_fstat_r>:
  409450:	b538      	push	{r3, r4, r5, lr}
  409452:	460b      	mov	r3, r1
  409454:	4c07      	ldr	r4, [pc, #28]	; (409474 <_fstat_r+0x24>)
  409456:	4605      	mov	r5, r0
  409458:	4611      	mov	r1, r2
  40945a:	4618      	mov	r0, r3
  40945c:	2300      	movs	r3, #0
  40945e:	6023      	str	r3, [r4, #0]
  409460:	f7f9 f80f 	bl	402482 <_fstat>
  409464:	1c43      	adds	r3, r0, #1
  409466:	d000      	beq.n	40946a <_fstat_r+0x1a>
  409468:	bd38      	pop	{r3, r4, r5, pc}
  40946a:	6823      	ldr	r3, [r4, #0]
  40946c:	2b00      	cmp	r3, #0
  40946e:	d0fb      	beq.n	409468 <_fstat_r+0x18>
  409470:	602b      	str	r3, [r5, #0]
  409472:	bd38      	pop	{r3, r4, r5, pc}
  409474:	2040c54c 	.word	0x2040c54c

00409478 <_isatty_r>:
  409478:	b538      	push	{r3, r4, r5, lr}
  40947a:	4c07      	ldr	r4, [pc, #28]	; (409498 <_isatty_r+0x20>)
  40947c:	2300      	movs	r3, #0
  40947e:	4605      	mov	r5, r0
  409480:	4608      	mov	r0, r1
  409482:	6023      	str	r3, [r4, #0]
  409484:	f7f9 f802 	bl	40248c <_isatty>
  409488:	1c43      	adds	r3, r0, #1
  40948a:	d000      	beq.n	40948e <_isatty_r+0x16>
  40948c:	bd38      	pop	{r3, r4, r5, pc}
  40948e:	6823      	ldr	r3, [r4, #0]
  409490:	2b00      	cmp	r3, #0
  409492:	d0fb      	beq.n	40948c <_isatty_r+0x14>
  409494:	602b      	str	r3, [r5, #0]
  409496:	bd38      	pop	{r3, r4, r5, pc}
  409498:	2040c54c 	.word	0x2040c54c

0040949c <_lseek_r>:
  40949c:	b570      	push	{r4, r5, r6, lr}
  40949e:	460d      	mov	r5, r1
  4094a0:	4c08      	ldr	r4, [pc, #32]	; (4094c4 <_lseek_r+0x28>)
  4094a2:	4611      	mov	r1, r2
  4094a4:	4606      	mov	r6, r0
  4094a6:	461a      	mov	r2, r3
  4094a8:	4628      	mov	r0, r5
  4094aa:	2300      	movs	r3, #0
  4094ac:	6023      	str	r3, [r4, #0]
  4094ae:	f7f8 ffef 	bl	402490 <_lseek>
  4094b2:	1c43      	adds	r3, r0, #1
  4094b4:	d000      	beq.n	4094b8 <_lseek_r+0x1c>
  4094b6:	bd70      	pop	{r4, r5, r6, pc}
  4094b8:	6823      	ldr	r3, [r4, #0]
  4094ba:	2b00      	cmp	r3, #0
  4094bc:	d0fb      	beq.n	4094b6 <_lseek_r+0x1a>
  4094be:	6033      	str	r3, [r6, #0]
  4094c0:	bd70      	pop	{r4, r5, r6, pc}
  4094c2:	bf00      	nop
  4094c4:	2040c54c 	.word	0x2040c54c

004094c8 <_read_r>:
  4094c8:	b570      	push	{r4, r5, r6, lr}
  4094ca:	460d      	mov	r5, r1
  4094cc:	4c08      	ldr	r4, [pc, #32]	; (4094f0 <_read_r+0x28>)
  4094ce:	4611      	mov	r1, r2
  4094d0:	4606      	mov	r6, r0
  4094d2:	461a      	mov	r2, r3
  4094d4:	4628      	mov	r0, r5
  4094d6:	2300      	movs	r3, #0
  4094d8:	6023      	str	r3, [r4, #0]
  4094da:	f7fc fd53 	bl	405f84 <_read>
  4094de:	1c43      	adds	r3, r0, #1
  4094e0:	d000      	beq.n	4094e4 <_read_r+0x1c>
  4094e2:	bd70      	pop	{r4, r5, r6, pc}
  4094e4:	6823      	ldr	r3, [r4, #0]
  4094e6:	2b00      	cmp	r3, #0
  4094e8:	d0fb      	beq.n	4094e2 <_read_r+0x1a>
  4094ea:	6033      	str	r3, [r6, #0]
  4094ec:	bd70      	pop	{r4, r5, r6, pc}
  4094ee:	bf00      	nop
  4094f0:	2040c54c 	.word	0x2040c54c

004094f4 <__aeabi_uldivmod>:
  4094f4:	b953      	cbnz	r3, 40950c <__aeabi_uldivmod+0x18>
  4094f6:	b94a      	cbnz	r2, 40950c <__aeabi_uldivmod+0x18>
  4094f8:	2900      	cmp	r1, #0
  4094fa:	bf08      	it	eq
  4094fc:	2800      	cmpeq	r0, #0
  4094fe:	bf1c      	itt	ne
  409500:	f04f 31ff 	movne.w	r1, #4294967295
  409504:	f04f 30ff 	movne.w	r0, #4294967295
  409508:	f000 b97a 	b.w	409800 <__aeabi_idiv0>
  40950c:	f1ad 0c08 	sub.w	ip, sp, #8
  409510:	e96d ce04 	strd	ip, lr, [sp, #-16]!
  409514:	f000 f806 	bl	409524 <__udivmoddi4>
  409518:	f8dd e004 	ldr.w	lr, [sp, #4]
  40951c:	e9dd 2302 	ldrd	r2, r3, [sp, #8]
  409520:	b004      	add	sp, #16
  409522:	4770      	bx	lr

00409524 <__udivmoddi4>:
  409524:	e92d 47f0 	stmdb	sp!, {r4, r5, r6, r7, r8, r9, sl, lr}
  409528:	468c      	mov	ip, r1
  40952a:	460d      	mov	r5, r1
  40952c:	4604      	mov	r4, r0
  40952e:	9e08      	ldr	r6, [sp, #32]
  409530:	2b00      	cmp	r3, #0
  409532:	d151      	bne.n	4095d8 <__udivmoddi4+0xb4>
  409534:	428a      	cmp	r2, r1
  409536:	4617      	mov	r7, r2
  409538:	d96d      	bls.n	409616 <__udivmoddi4+0xf2>
  40953a:	fab2 fe82 	clz	lr, r2
  40953e:	f1be 0f00 	cmp.w	lr, #0
  409542:	d00b      	beq.n	40955c <__udivmoddi4+0x38>
  409544:	f1ce 0c20 	rsb	ip, lr, #32
  409548:	fa01 f50e 	lsl.w	r5, r1, lr
  40954c:	fa20 fc0c 	lsr.w	ip, r0, ip
  409550:	fa02 f70e 	lsl.w	r7, r2, lr
  409554:	ea4c 0c05 	orr.w	ip, ip, r5
  409558:	fa00 f40e 	lsl.w	r4, r0, lr
  40955c:	ea4f 4a17 	mov.w	sl, r7, lsr #16
  409560:	0c25      	lsrs	r5, r4, #16
  409562:	fbbc f8fa 	udiv	r8, ip, sl
  409566:	fa1f f987 	uxth.w	r9, r7
  40956a:	fb0a cc18 	mls	ip, sl, r8, ip
  40956e:	ea45 450c 	orr.w	r5, r5, ip, lsl #16
  409572:	fb08 f309 	mul.w	r3, r8, r9
  409576:	42ab      	cmp	r3, r5
  409578:	d90a      	bls.n	409590 <__udivmoddi4+0x6c>
  40957a:	19ed      	adds	r5, r5, r7
  40957c:	f108 32ff 	add.w	r2, r8, #4294967295
  409580:	f080 8123 	bcs.w	4097ca <__udivmoddi4+0x2a6>
  409584:	42ab      	cmp	r3, r5
  409586:	f240 8120 	bls.w	4097ca <__udivmoddi4+0x2a6>
  40958a:	f1a8 0802 	sub.w	r8, r8, #2
  40958e:	443d      	add	r5, r7
  409590:	1aed      	subs	r5, r5, r3
  409592:	b2a4      	uxth	r4, r4
  409594:	fbb5 f0fa 	udiv	r0, r5, sl
  409598:	fb0a 5510 	mls	r5, sl, r0, r5
  40959c:	ea44 4405 	orr.w	r4, r4, r5, lsl #16
  4095a0:	fb00 f909 	mul.w	r9, r0, r9
  4095a4:	45a1      	cmp	r9, r4
  4095a6:	d909      	bls.n	4095bc <__udivmoddi4+0x98>
  4095a8:	19e4      	adds	r4, r4, r7
  4095aa:	f100 33ff 	add.w	r3, r0, #4294967295
  4095ae:	f080 810a 	bcs.w	4097c6 <__udivmoddi4+0x2a2>
  4095b2:	45a1      	cmp	r9, r4
  4095b4:	f240 8107 	bls.w	4097c6 <__udivmoddi4+0x2a2>
  4095b8:	3802      	subs	r0, #2
  4095ba:	443c      	add	r4, r7
  4095bc:	eba4 0409 	sub.w	r4, r4, r9
  4095c0:	ea40 4008 	orr.w	r0, r0, r8, lsl #16
  4095c4:	2100      	movs	r1, #0
  4095c6:	2e00      	cmp	r6, #0
  4095c8:	d061      	beq.n	40968e <__udivmoddi4+0x16a>
  4095ca:	fa24 f40e 	lsr.w	r4, r4, lr
  4095ce:	2300      	movs	r3, #0
  4095d0:	6034      	str	r4, [r6, #0]
  4095d2:	6073      	str	r3, [r6, #4]
  4095d4:	e8bd 87f0 	ldmia.w	sp!, {r4, r5, r6, r7, r8, r9, sl, pc}
  4095d8:	428b      	cmp	r3, r1
  4095da:	d907      	bls.n	4095ec <__udivmoddi4+0xc8>
  4095dc:	2e00      	cmp	r6, #0
  4095de:	d054      	beq.n	40968a <__udivmoddi4+0x166>
  4095e0:	2100      	movs	r1, #0
  4095e2:	e886 0021 	stmia.w	r6, {r0, r5}
  4095e6:	4608      	mov	r0, r1
  4095e8:	e8bd 87f0 	ldmia.w	sp!, {r4, r5, r6, r7, r8, r9, sl, pc}
  4095ec:	fab3 f183 	clz	r1, r3
  4095f0:	2900      	cmp	r1, #0
  4095f2:	f040 808e 	bne.w	409712 <__udivmoddi4+0x1ee>
  4095f6:	42ab      	cmp	r3, r5
  4095f8:	d302      	bcc.n	409600 <__udivmoddi4+0xdc>
  4095fa:	4282      	cmp	r2, r0
  4095fc:	f200 80fa 	bhi.w	4097f4 <__udivmoddi4+0x2d0>
  409600:	1a84      	subs	r4, r0, r2
  409602:	eb65 0503 	sbc.w	r5, r5, r3
  409606:	2001      	movs	r0, #1
  409608:	46ac      	mov	ip, r5
  40960a:	2e00      	cmp	r6, #0
  40960c:	d03f      	beq.n	40968e <__udivmoddi4+0x16a>
  40960e:	e886 1010 	stmia.w	r6, {r4, ip}
  409612:	e8bd 87f0 	ldmia.w	sp!, {r4, r5, r6, r7, r8, r9, sl, pc}
  409616:	b912      	cbnz	r2, 40961e <__udivmoddi4+0xfa>
  409618:	2701      	movs	r7, #1
  40961a:	fbb7 f7f2 	udiv	r7, r7, r2
  40961e:	fab7 fe87 	clz	lr, r7
  409622:	f1be 0f00 	cmp.w	lr, #0
  409626:	d134      	bne.n	409692 <__udivmoddi4+0x16e>
  409628:	1beb      	subs	r3, r5, r7
  40962a:	0c3a      	lsrs	r2, r7, #16
  40962c:	fa1f fc87 	uxth.w	ip, r7
  409630:	2101      	movs	r1, #1
  409632:	fbb3 f8f2 	udiv	r8, r3, r2
  409636:	0c25      	lsrs	r5, r4, #16
  409638:	fb02 3318 	mls	r3, r2, r8, r3
  40963c:	ea45 4503 	orr.w	r5, r5, r3, lsl #16
  409640:	fb0c f308 	mul.w	r3, ip, r8
  409644:	42ab      	cmp	r3, r5
  409646:	d907      	bls.n	409658 <__udivmoddi4+0x134>
  409648:	19ed      	adds	r5, r5, r7
  40964a:	f108 30ff 	add.w	r0, r8, #4294967295
  40964e:	d202      	bcs.n	409656 <__udivmoddi4+0x132>
  409650:	42ab      	cmp	r3, r5
  409652:	f200 80d1 	bhi.w	4097f8 <__udivmoddi4+0x2d4>
  409656:	4680      	mov	r8, r0
  409658:	1aed      	subs	r5, r5, r3
  40965a:	b2a3      	uxth	r3, r4
  40965c:	fbb5 f0f2 	udiv	r0, r5, r2
  409660:	fb02 5510 	mls	r5, r2, r0, r5
  409664:	ea43 4405 	orr.w	r4, r3, r5, lsl #16
  409668:	fb0c fc00 	mul.w	ip, ip, r0
  40966c:	45a4      	cmp	ip, r4
  40966e:	d907      	bls.n	409680 <__udivmoddi4+0x15c>
  409670:	19e4      	adds	r4, r4, r7
  409672:	f100 33ff 	add.w	r3, r0, #4294967295
  409676:	d202      	bcs.n	40967e <__udivmoddi4+0x15a>
  409678:	45a4      	cmp	ip, r4
  40967a:	f200 80b8 	bhi.w	4097ee <__udivmoddi4+0x2ca>
  40967e:	4618      	mov	r0, r3
  409680:	eba4 040c 	sub.w	r4, r4, ip
  409684:	ea40 4008 	orr.w	r0, r0, r8, lsl #16
  409688:	e79d      	b.n	4095c6 <__udivmoddi4+0xa2>
  40968a:	4631      	mov	r1, r6
  40968c:	4630      	mov	r0, r6
  40968e:	e8bd 87f0 	ldmia.w	sp!, {r4, r5, r6, r7, r8, r9, sl, pc}
  409692:	f1ce 0420 	rsb	r4, lr, #32
  409696:	fa05 f30e 	lsl.w	r3, r5, lr
  40969a:	fa07 f70e 	lsl.w	r7, r7, lr
  40969e:	fa20 f804 	lsr.w	r8, r0, r4
  4096a2:	0c3a      	lsrs	r2, r7, #16
  4096a4:	fa25 f404 	lsr.w	r4, r5, r4
  4096a8:	ea48 0803 	orr.w	r8, r8, r3
  4096ac:	fbb4 f1f2 	udiv	r1, r4, r2
  4096b0:	ea4f 4518 	mov.w	r5, r8, lsr #16
  4096b4:	fb02 4411 	mls	r4, r2, r1, r4
  4096b8:	fa1f fc87 	uxth.w	ip, r7
  4096bc:	ea45 4504 	orr.w	r5, r5, r4, lsl #16
  4096c0:	fb01 f30c 	mul.w	r3, r1, ip
  4096c4:	42ab      	cmp	r3, r5
  4096c6:	fa00 f40e 	lsl.w	r4, r0, lr
  4096ca:	d909      	bls.n	4096e0 <__udivmoddi4+0x1bc>
  4096cc:	19ed      	adds	r5, r5, r7
  4096ce:	f101 30ff 	add.w	r0, r1, #4294967295
  4096d2:	f080 808a 	bcs.w	4097ea <__udivmoddi4+0x2c6>
  4096d6:	42ab      	cmp	r3, r5
  4096d8:	f240 8087 	bls.w	4097ea <__udivmoddi4+0x2c6>
  4096dc:	3902      	subs	r1, #2
  4096de:	443d      	add	r5, r7
  4096e0:	1aeb      	subs	r3, r5, r3
  4096e2:	fa1f f588 	uxth.w	r5, r8
  4096e6:	fbb3 f0f2 	udiv	r0, r3, r2
  4096ea:	fb02 3310 	mls	r3, r2, r0, r3
  4096ee:	ea45 4503 	orr.w	r5, r5, r3, lsl #16
  4096f2:	fb00 f30c 	mul.w	r3, r0, ip
  4096f6:	42ab      	cmp	r3, r5
  4096f8:	d907      	bls.n	40970a <__udivmoddi4+0x1e6>
  4096fa:	19ed      	adds	r5, r5, r7
  4096fc:	f100 38ff 	add.w	r8, r0, #4294967295
  409700:	d26f      	bcs.n	4097e2 <__udivmoddi4+0x2be>
  409702:	42ab      	cmp	r3, r5
  409704:	d96d      	bls.n	4097e2 <__udivmoddi4+0x2be>
  409706:	3802      	subs	r0, #2
  409708:	443d      	add	r5, r7
  40970a:	1aeb      	subs	r3, r5, r3
  40970c:	ea40 4101 	orr.w	r1, r0, r1, lsl #16
  409710:	e78f      	b.n	409632 <__udivmoddi4+0x10e>
  409712:	f1c1 0720 	rsb	r7, r1, #32
  409716:	fa22 f807 	lsr.w	r8, r2, r7
  40971a:	408b      	lsls	r3, r1
  40971c:	fa05 f401 	lsl.w	r4, r5, r1
  409720:	ea48 0303 	orr.w	r3, r8, r3
  409724:	fa20 fe07 	lsr.w	lr, r0, r7
  409728:	ea4f 4c13 	mov.w	ip, r3, lsr #16
  40972c:	40fd      	lsrs	r5, r7
  40972e:	ea4e 0e04 	orr.w	lr, lr, r4
  409732:	fbb5 f9fc 	udiv	r9, r5, ip
  409736:	ea4f 441e 	mov.w	r4, lr, lsr #16
  40973a:	fb0c 5519 	mls	r5, ip, r9, r5
  40973e:	fa1f f883 	uxth.w	r8, r3
  409742:	ea44 4505 	orr.w	r5, r4, r5, lsl #16
  409746:	fb09 f408 	mul.w	r4, r9, r8
  40974a:	42ac      	cmp	r4, r5
  40974c:	fa02 f201 	lsl.w	r2, r2, r1
  409750:	fa00 fa01 	lsl.w	sl, r0, r1
  409754:	d908      	bls.n	409768 <__udivmoddi4+0x244>
  409756:	18ed      	adds	r5, r5, r3
  409758:	f109 30ff 	add.w	r0, r9, #4294967295
  40975c:	d243      	bcs.n	4097e6 <__udivmoddi4+0x2c2>
  40975e:	42ac      	cmp	r4, r5
  409760:	d941      	bls.n	4097e6 <__udivmoddi4+0x2c2>
  409762:	f1a9 0902 	sub.w	r9, r9, #2
  409766:	441d      	add	r5, r3
  409768:	1b2d      	subs	r5, r5, r4
  40976a:	fa1f fe8e 	uxth.w	lr, lr
  40976e:	fbb5 f0fc 	udiv	r0, r5, ip
  409772:	fb0c 5510 	mls	r5, ip, r0, r5
  409776:	ea4e 4405 	orr.w	r4, lr, r5, lsl #16
  40977a:	fb00 f808 	mul.w	r8, r0, r8
  40977e:	45a0      	cmp	r8, r4
  409780:	d907      	bls.n	409792 <__udivmoddi4+0x26e>
  409782:	18e4      	adds	r4, r4, r3
  409784:	f100 35ff 	add.w	r5, r0, #4294967295
  409788:	d229      	bcs.n	4097de <__udivmoddi4+0x2ba>
  40978a:	45a0      	cmp	r8, r4
  40978c:	d927      	bls.n	4097de <__udivmoddi4+0x2ba>
  40978e:	3802      	subs	r0, #2
  409790:	441c      	add	r4, r3
  409792:	ea40 4009 	orr.w	r0, r0, r9, lsl #16
  409796:	eba4 0408 	sub.w	r4, r4, r8
  40979a:	fba0 8902 	umull	r8, r9, r0, r2
  40979e:	454c      	cmp	r4, r9
  4097a0:	46c6      	mov	lr, r8
  4097a2:	464d      	mov	r5, r9
  4097a4:	d315      	bcc.n	4097d2 <__udivmoddi4+0x2ae>
  4097a6:	d012      	beq.n	4097ce <__udivmoddi4+0x2aa>
  4097a8:	b156      	cbz	r6, 4097c0 <__udivmoddi4+0x29c>
  4097aa:	ebba 030e 	subs.w	r3, sl, lr
  4097ae:	eb64 0405 	sbc.w	r4, r4, r5
  4097b2:	fa04 f707 	lsl.w	r7, r4, r7
  4097b6:	40cb      	lsrs	r3, r1
  4097b8:	431f      	orrs	r7, r3
  4097ba:	40cc      	lsrs	r4, r1
  4097bc:	6037      	str	r7, [r6, #0]
  4097be:	6074      	str	r4, [r6, #4]
  4097c0:	2100      	movs	r1, #0
  4097c2:	e8bd 87f0 	ldmia.w	sp!, {r4, r5, r6, r7, r8, r9, sl, pc}
  4097c6:	4618      	mov	r0, r3
  4097c8:	e6f8      	b.n	4095bc <__udivmoddi4+0x98>
  4097ca:	4690      	mov	r8, r2
  4097cc:	e6e0      	b.n	409590 <__udivmoddi4+0x6c>
  4097ce:	45c2      	cmp	sl, r8
  4097d0:	d2ea      	bcs.n	4097a8 <__udivmoddi4+0x284>
  4097d2:	ebb8 0e02 	subs.w	lr, r8, r2
  4097d6:	eb69 0503 	sbc.w	r5, r9, r3
  4097da:	3801      	subs	r0, #1
  4097dc:	e7e4      	b.n	4097a8 <__udivmoddi4+0x284>
  4097de:	4628      	mov	r0, r5
  4097e0:	e7d7      	b.n	409792 <__udivmoddi4+0x26e>
  4097e2:	4640      	mov	r0, r8
  4097e4:	e791      	b.n	40970a <__udivmoddi4+0x1e6>
  4097e6:	4681      	mov	r9, r0
  4097e8:	e7be      	b.n	409768 <__udivmoddi4+0x244>
  4097ea:	4601      	mov	r1, r0
  4097ec:	e778      	b.n	4096e0 <__udivmoddi4+0x1bc>
  4097ee:	3802      	subs	r0, #2
  4097f0:	443c      	add	r4, r7
  4097f2:	e745      	b.n	409680 <__udivmoddi4+0x15c>
  4097f4:	4608      	mov	r0, r1
  4097f6:	e708      	b.n	40960a <__udivmoddi4+0xe6>
  4097f8:	f1a8 0802 	sub.w	r8, r8, #2
  4097fc:	443d      	add	r5, r7
  4097fe:	e72b      	b.n	409658 <__udivmoddi4+0x134>

00409800 <__aeabi_idiv0>:
  409800:	4770      	bx	lr
  409802:	bf00      	nop

00409804 <mmc_trans_multipliers>:
  409804:	0000 0000 000a 0000 000c 0000 000d 0000     ................
  409814:	000f 0000 0014 0000 001a 0000 001e 0000     ................
  409824:	0023 0000 0028 0000 002d 0000 0034 0000     #...(...-...4...
  409834:	0037 0000 003c 0000 0046 0000 0050 0000     7...<...F...P...

00409844 <sd_mmc_trans_units>:
  409844:	000a 0000 0064 0000 03e8 0000 2710 0000     ....d........'..
	...

00409860 <sd_trans_multipliers>:
  409860:	0000 0000 000a 0000 000c 0000 000d 0000     ................
  409870:	000f 0000 0014 0000 0019 0000 001e 0000     ................
  409880:	0023 0000 0028 0000 002d 0000 0032 0000     #...(...-...2...
  409890:	0037 0000 003c 0000 0046 0000 0050 0000     7...<...F...P...

004098a0 <LfnOfs>:
  4098a0:	0301 0705 0e09 1210 1614 1c18 001e 0000     ................

004098b0 <excvt.5681>:
  4098b0:	9a80 b690 b78e 808f d3d2 d8d4 ded7 8f8e     ................
  4098c0:	9290 e292 e399 ebea 9959 9d9a 9d9c 9f9e     ........Y.......
  4098d0:	d6b5 e9e0 a5a5 a7a6 a9a8 abaa 21ac afae     .............!..
  4098e0:	b1b0 b3b2 b5b4 b7b6 b9b8 bbba bdbc bfbe     ................
  4098f0:	c1c0 c3c2 c5c4 c7c7 c9c8 cbca cdcc cfce     ................
  409900:	d1d0 d3d2 d5d4 d7d6 d9d8 dbda dddc dfde     ................
  409910:	e1e0 e3e2 e5e5 e7e6 e9e7 ebea eded efee     ................
  409920:	f1f0 f3f2 f5f4 f7f6 f9f8 fbfa fdfc fffe     ................
  409930:	2a22 3c3a 3f3e 7f7c 0000 0000 2c2b 3d3b     "*:<>?|.....+,;=
  409940:	5d5b 0000                                   []..

00409944 <Tbl>:
  409944:	00c7 00fc 00e9 00e2 00e4 00e0 00e5 00e7     ................
  409954:	00ea 00eb 00e8 00ef 00ee 00ec 00c4 00c5     ................
  409964:	00c9 00e6 00c6 00f4 00f6 00f2 00fb 00f9     ................
  409974:	00ff 00d6 00dc 00f8 00a3 00d8 00d7 0192     ................
  409984:	00e1 00ed 00f3 00fa 00f1 00d1 00aa 00ba     ................
  409994:	00bf 00ae 00ac 00bd 00bc 00a1 00ab 00bb     ................
  4099a4:	2591 2592 2593 2502 2524 00c1 00c2 00c0     .%.%.%.%$%......
  4099b4:	00a9 2563 2551 2557 255d 00a2 00a5 2510     ..c%Q%W%]%.....%
  4099c4:	2514 2534 252c 251c 2500 253c 00e3 00c3     .%4%,%.%.%<%....
  4099d4:	255a 2554 2569 2566 2560 2550 256c 00a4     Z%T%i%f%`%P%l%..
  4099e4:	00f0 00d0 00ca 00cb 00c8 0131 00cd 00ce     ..........1.....
  4099f4:	00cf 2518 250c 2588 2584 00a6 00cc 2580     ...%.%.%.%.....%
  409a04:	00d3 00df 00d4 00d2 00f5 00d5 00b5 00fe     ................
  409a14:	00de 00da 00db 00d9 00fd 00dd 00af 00b4     ................
  409a24:	00ad 00b1 2017 00be 00b6 00a7 00f7 00b8     ..... ..........
  409a34:	00b0 00a8 00b7 00b9 00b3 00b2 25a0 00a0     .............%..

00409a44 <tbl_lower.5431>:
  409a44:	0061 0062 0063 0064 0065 0066 0067 0068     a.b.c.d.e.f.g.h.
  409a54:	0069 006a 006b 006c 006d 006e 006f 0070     i.j.k.l.m.n.o.p.
  409a64:	0071 0072 0073 0074 0075 0076 0077 0078     q.r.s.t.u.v.w.x.
  409a74:	0079 007a 00a1 00a2 00a3 00a5 00ac 00af     y.z.............
  409a84:	00e0 00e1 00e2 00e3 00e4 00e5 00e6 00e7     ................
  409a94:	00e8 00e9 00ea 00eb 00ec 00ed 00ee 00ef     ................
  409aa4:	00f0 00f1 00f2 00f3 00f4 00f5 00f6 00f8     ................
  409ab4:	00f9 00fa 00fb 00fc 00fd 00fe 00ff 0101     ................
  409ac4:	0103 0105 0107 0109 010b 010d 010f 0111     ................
  409ad4:	0113 0115 0117 0119 011b 011d 011f 0121     ..............!.
  409ae4:	0123 0125 0127 0129 012b 012d 012f 0131     #.%.'.).+.-./.1.
  409af4:	0133 0135 0137 013a 013c 013e 0140 0142     3.5.7.:.<.>.@.B.
  409b04:	0144 0146 0148 014b 014d 014f 0151 0153     D.F.H.K.M.O.Q.S.
  409b14:	0155 0157 0159 015b 015d 015f 0161 0163     U.W.Y.[.]._.a.c.
  409b24:	0165 0167 0169 016b 016d 016f 0171 0173     e.g.i.k.m.o.q.s.
  409b34:	0175 0177 017a 017c 017e 0192 03b1 03b2     u.w.z.|.~.......
  409b44:	03b3 03b4 03b5 03b6 03b7 03b8 03b9 03ba     ................
  409b54:	03bb 03bc 03bd 03be 03bf 03c0 03c1 03c3     ................
  409b64:	03c4 03c5 03c6 03c7 03c8 03c9 03ca 0430     ..............0.
  409b74:	0431 0432 0433 0434 0435 0436 0437 0438     1.2.3.4.5.6.7.8.
  409b84:	0439 043a 043b 043c 043d 043e 043f 0440     9.:.;.<.=.>.?.@.
  409b94:	0441 0442 0443 0444 0445 0446 0447 0448     A.B.C.D.E.F.G.H.
  409ba4:	0449 044a 044b 044c 044d 044e 044f 0451     I.J.K.L.M.N.O.Q.
  409bb4:	0452 0453 0454 0455 0456 0457 0458 0459     R.S.T.U.V.W.X.Y.
  409bc4:	045a 045b 045c 045e 045f 2170 2171 2172     Z.[.\.^._.p!q!r!
  409bd4:	2173 2174 2175 2176 2177 2178 2179 217a     s!t!u!v!w!x!y!z!
  409be4:	217b 217c 217d 217e 217f ff41 ff42 ff43     {!|!}!~!.!A.B.C.
  409bf4:	ff44 ff45 ff46 ff47 ff48 ff49 ff4a ff4b     D.E.F.G.H.I.J.K.
  409c04:	ff4c ff4d ff4e ff4f ff50 ff51 ff52 ff53     L.M.N.O.P.Q.R.S.
  409c14:	ff54 ff55 ff56 ff57 ff58 ff59 ff5a 0000     T.U.V.W.X.Y.Z...

00409c24 <tbl_upper.5432>:
  409c24:	0041 0042 0043 0044 0045 0046 0047 0048     A.B.C.D.E.F.G.H.
  409c34:	0049 004a 004b 004c 004d 004e 004f 0050     I.J.K.L.M.N.O.P.
  409c44:	0051 0052 0053 0054 0055 0056 0057 0058     Q.R.S.T.U.V.W.X.
  409c54:	0059 005a 0021 ffe0 ffe1 ffe5 ffe2 ffe3     Y.Z.!...........
  409c64:	00c0 00c1 00c2 00c3 00c4 00c5 00c6 00c7     ................
  409c74:	00c8 00c9 00ca 00cb 00cc 00cd 00ce 00cf     ................
  409c84:	00d0 00d1 00d2 00d3 00d4 00d5 00d6 00d8     ................
  409c94:	00d9 00da 00db 00dc 00dd 00de 0178 0100     ............x...
  409ca4:	0102 0104 0106 0108 010a 010c 010e 0110     ................
  409cb4:	0112 0114 0116 0118 011a 011c 011e 0120     .............. .
  409cc4:	0122 0124 0126 0128 012a 012c 012e 0130     ".$.&.(.*.,...0.
  409cd4:	0132 0134 0136 0139 013b 013d 013f 0141     2.4.6.9.;.=.?.A.
  409ce4:	0143 0145 0147 014a 014c 014e 0150 0152     C.E.G.J.L.N.P.R.
  409cf4:	0154 0156 0158 015a 015c 015e 0160 0162     T.V.X.Z.\.^.`.b.
  409d04:	0164 0166 0168 016a 016c 016e 0170 0172     d.f.h.j.l.n.p.r.
  409d14:	0174 0176 0179 017b 017d 0191 0391 0392     t.v.y.{.}.......
  409d24:	0393 0394 0395 0396 0397 0398 0399 039a     ................
  409d34:	039b 039c 039d 039e 039f 03a0 03a1 03a3     ................
  409d44:	03a4 03a5 03a6 03a7 03a8 03a9 03aa 0410     ................
  409d54:	0411 0412 0413 0414 0415 0416 0417 0418     ................
  409d64:	0419 041a 041b 041c 041d 041e 041f 0420     .............. .
  409d74:	0421 0422 0423 0424 0425 0426 0427 0428     !.".#.$.%.&.'.(.
  409d84:	0429 042a 042b 042c 042d 042e 042f 0401     ).*.+.,.-.../...
  409d94:	0402 0403 0404 0405 0406 0407 0408 0409     ................
  409da4:	040a 040b 040c 040e 040f 2160 2161 2162     ..........`!a!b!
  409db4:	2163 2164 2165 2166 2167 2168 2169 216a     c!d!e!f!g!h!i!j!
  409dc4:	216b 216c 216d 216e 216f ff21 ff22 ff23     k!l!m!n!o!!.".#.
  409dd4:	ff24 ff25 ff26 ff27 ff28 ff29 ff2a ff2b     $.%.&.'.(.).*.+.
  409de4:	ff2c ff2d ff2e ff2f ff30 ff31 ff32 ff33     ,.-.../.0.1.2.3.
  409df4:	ff34 ff35 ff36 ff37 ff38 ff39 ff3a 0000     4.5.6.7.8.9.:...
  409e04:	4449 454c 0000 0000 6d54 5172 0000 0000     IDLE....TmrQ....
  409e14:	6d54 2072 7653 0063 6954 656d 7473 6d61     Tmr Svc.Timestam
  409e24:	3a70 2520 2064 3e2d 5420 6d65 3a70 2520     p: %d -> Temp: %
  409e34:	0a64 0000 0000 0000 0000 0000 0000 0000     d...............
	...
  409e50:	2d2d 5720 4e49 3143 3035 2030 6577 7461     -- WINC1500 weat
  409e60:	6568 2072 6c63 6569 746e 6520 6178 706d     her client examp
  409e70:	656c 2d20 0d2d 2d0a 202d 4153 454d 3037     le --..-- SAME70
  409e80:	582d 4c50 2044 2d2d 0a0d 2d2d 4320 6d6f     -XPLD --..-- Com
  409e90:	6970 656c 3a64 4d20 7961 3320 2030 3032     piled: May 30 20
  409ea0:	3931 3120 3a34 3433 313a 2036 2d2d 0a0d     19 14:34:16 --..
  409eb0:	0000 0000 6461 0063 6146 6c69 6465 7420     ....adc.Failed t
  409ec0:	206f 7263 6165 6574 7420 7365 2074 6461     o create test ad
  409ed0:	2063 6174 6b73 0a0d 0000 0000 5353 6143     c task......SSCa
  409ee0:	6472 0000 6146 6c69 6465 7420 206f 7263     rd..Failed to cr
  409ef0:	6165 6574 7420 7365 2074 4453 6143 6472     eate test SDCard
  409f00:	7420 7361 0d6b 000a 650a 746e 6f72 2075      task....entrou 
  409f10:	616e 7420 7361 206b 6461 0a63 0000 0000     na task adc.....
  409f20:	0a0c 2d0d 202d 4453 4d2f 434d 532f 4944     ...-- SD/MMC/SDI
  409f30:	204f 6143 6472 4520 6178 706d 656c 6f20     O Card Example o
  409f40:	206e 6146 4674 2073 2d2d 0d0a 0000 0000     n FatFs --......
  409f50:	3431 333a 3a34 3631 0000 0000 614d 2079     14:34:16....May 
  409f60:	3033 3220 3130 0039 2d2d 4320 6d6f 6970     30 2019.-- Compi
  409f70:	656c 3a64 2520 2073 7325 2d20 0a2d 000d     led: %s %s --...
  409f80:	6c50 6165 6573 7020 756c 2067 6e61 5320     Please plug an S
  409f90:	2c44 4d20 434d 6f20 2072 4453 4f49 6320     D, MMC or SDIO c
  409fa0:	7261 2064 6e69 7320 6f6c 2e74 0d0a 0000     ard in slot.....
  409fb0:	6143 6472 6920 736e 6174 6c6c 4620 4941     Card install FAI
  409fc0:	0a4c 000d 6c50 6165 6573 7520 706e 756c     L...Please unplu
  409fd0:	2067 6e61 2064 6572 702d 756c 2067 6874     g and re-plug th
  409fe0:	2065 6163 6472 0a2e 000d 0000 6f4d 6e75     e card......Moun
  409ff0:	2074 6964 6b73 2820 5f66 6f6d 6e75 2974     t disk (f_mount)
  40a000:	2e2e 0d2e 000a 0000 465b 4941 5d4c 7220     ........[FAIL] r
  40a010:	7365 2520 0d64 000a 4d5b 756f 746e 6e69     es %d...[Mountin
  40a020:	2067 4453 4143 4452 5320 6375 6563 7373     g SDCARD Success
  40a030:	7566 5d6c 0a0d 0000 704f 6e65 6e69 2f67     ful]....Opening/
  40a040:	7243 6165 6974 676e 6120 6620 6c69 2065     Creating a file 
  40a050:	6628 6f5f 6570 296e 2e2e 0d2e 000a 0000     (f_open)........
  40a060:	6843 6765 756f 5420 6d65 2070 6e49 6f66     Chegou Temp Info
  40a070:	6d72 7461 6f69 3a6e 2520 0064 465b 4941     rmation: %d.[FAI
  40a080:	5d4c 0a0d 0000 0000 4f5b 5d4b 0a0d 0000     L]......[OK]....
  40a090:	3a30 6e61 6c61 676f 742e 7478 0000 0000     0:analog.txt....
  40a0a0:	7473 6361 206b 766f 7265 6c66 776f 2520     stack overflow %
  40a0b0:	2078 7325 0a0d 0000                         x %s....

0040a0b8 <_global_impure_ptr>:
  40a0b8:	0040 2040 3130 3332 3534 3736 3938 4241     @.@ 0123456789AB
  40a0c8:	4443 4645 0000 0000 3130 3332 3534 3736     CDEF....01234567
  40a0d8:	3938 6261 6463 6665 0000 0000 6e28 6c75     89abcdef....(nul
  40a0e8:	296c 0000                                   l)..

0040a0ec <blanks.7217>:
  40a0ec:	2020 2020 2020 2020 2020 2020 2020 2020                     

0040a0fc <zeroes.7218>:
  40a0fc:	3030 3030 3030 3030 3030 3030 3030 3030     0000000000000000
  40a10c:	0043 0000 4f50 4953 0058 0000 002e 0000     C...POSIX.......

0040a11c <_ctype_>:
  40a11c:	2000 2020 2020 2020 2020 2828 2828 2028     .         ((((( 
  40a12c:	2020 2020 2020 2020 2020 2020 2020 2020                     
  40a13c:	8820 1010 1010 1010 1010 1010 1010 1010      ...............
  40a14c:	0410 0404 0404 0404 0404 1004 1010 1010     ................
  40a15c:	1010 4141 4141 4141 0101 0101 0101 0101     ..AAAAAA........
  40a16c:	0101 0101 0101 0101 0101 0101 1010 1010     ................
  40a17c:	1010 4242 4242 4242 0202 0202 0202 0202     ..BBBBBB........
  40a18c:	0202 0202 0202 0202 0202 0202 1010 1010     ................
  40a19c:	0020 0000 0000 0000 0000 0000 0000 0000      ...............
	...

0040a220 <_init>:
  40a220:	b5f8      	push	{r3, r4, r5, r6, r7, lr}
  40a222:	bf00      	nop
  40a224:	bcf8      	pop	{r3, r4, r5, r6, r7}
  40a226:	bc08      	pop	{r3}
  40a228:	469e      	mov	lr, r3
  40a22a:	4770      	bx	lr

0040a22c <__init_array_start>:
  40a22c:	00407bb9 	.word	0x00407bb9

0040a230 <__frame_dummy_init_array_entry>:
  40a230:	0040018d                                ..@.

0040a234 <_fini>:
  40a234:	b5f8      	push	{r3, r4, r5, r6, r7, lr}
  40a236:	bf00      	nop
  40a238:	bcf8      	pop	{r3, r4, r5, r6, r7}
  40a23a:	bc08      	pop	{r3}
  40a23c:	469e      	mov	lr, r3
  40a23e:	4770      	bx	lr

0040a240 <__fini_array_start>:
  40a240:	00400169 	.word	0x00400169

Disassembly of section .relocate:

20400000 <portable_delay_cycles>:
RAMFUNC
void portable_delay_cycles(unsigned long n)
{
	UNUSED(n);

	__asm (
20400000:	f3bf 8f5f 	dmb	sy
20400004:	3801      	subs	r0, #1
20400006:	d1fb      	bne.n	20400000 <portable_delay_cycles>
20400008:	4770      	bx	lr
	...

2040000c <sd_mmc_cards>:
	...
20400014:	0050 0000 0000 0000 0000 0000 0000 0000     P...............
	...

20400030 <g_interrupt_enabled>:
20400030:	0001 0000                                   ....

20400034 <SystemCoreClock>:
20400034:	0900 003d                                   ..=.

20400038 <uxCriticalNesting>:
20400038:	aaaa aaaa                                   ....

2040003c <_impure_ptr>:
2040003c:	0040 2040                                   @.@ 

20400040 <impure_data>:
20400040:	0000 0000 032c 2040 0394 2040 03fc 2040     ....,.@ ..@ ..@ 
	...
204000e8:	0001 0000 0000 0000 330e abcd 1234 e66d     .........3..4.m.
204000f8:	deec 0005 000b 0000 0000 0000 0000 0000     ................
	...

20400468 <__atexit_recursive_mutex>:
20400468:	c528 2040                                   (.@ 

2040046c <__global_locale>:
2040046c:	0043 0000 0000 0000 0000 0000 0000 0000     C...............
	...
2040048c:	0043 0000 0000 0000 0000 0000 0000 0000     C...............
	...
204004ac:	0043 0000 0000 0000 0000 0000 0000 0000     C...............
	...
204004cc:	0043 0000 0000 0000 0000 0000 0000 0000     C...............
	...
204004ec:	0043 0000 0000 0000 0000 0000 0000 0000     C...............
	...
2040050c:	0043 0000 0000 0000 0000 0000 0000 0000     C...............
	...
2040052c:	0043 0000 0000 0000 0000 0000 0000 0000     C...............
	...
2040054c:	925d 0040 8bb1 0040 0000 0000 a11c 0040     ].@...@.......@.
2040055c:	a118 0040 9eb0 0040 9eb0 0040 9eb0 0040     ..@...@...@...@.
2040056c:	9eb0 0040 9eb0 0040 9eb0 0040 9eb0 0040     ..@...@...@...@.
2040057c:	9eb0 0040 9eb0 0040 ffff ffff ffff ffff     ..@...@.........
2040058c:	ffff ffff ffff 0000 0001 5341 4943 0049     ..........ASCII.
	...
204005b4:	0000 5341 4943 0049 0000 0000 0000 0000     ..ASCII.........
	...

204005d8 <__malloc_av_>:
	...
204005e0:	05d8 2040 05d8 2040 05e0 2040 05e0 2040     ..@ ..@ ..@ ..@ 
204005f0:	05e8 2040 05e8 2040 05f0 2040 05f0 2040     ..@ ..@ ..@ ..@ 
20400600:	05f8 2040 05f8 2040 0600 2040 0600 2040     ..@ ..@ ..@ ..@ 
20400610:	0608 2040 0608 2040 0610 2040 0610 2040     ..@ ..@ ..@ ..@ 
20400620:	0618 2040 0618 2040 0620 2040 0620 2040     ..@ ..@  .@  .@ 
20400630:	0628 2040 0628 2040 0630 2040 0630 2040     (.@ (.@ 0.@ 0.@ 
20400640:	0638 2040 0638 2040 0640 2040 0640 2040     8.@ 8.@ @.@ @.@ 
20400650:	0648 2040 0648 2040 0650 2040 0650 2040     H.@ H.@ P.@ P.@ 
20400660:	0658 2040 0658 2040 0660 2040 0660 2040     X.@ X.@ `.@ `.@ 
20400670:	0668 2040 0668 2040 0670 2040 0670 2040     h.@ h.@ p.@ p.@ 
20400680:	0678 2040 0678 2040 0680 2040 0680 2040     x.@ x.@ ..@ ..@ 
20400690:	0688 2040 0688 2040 0690 2040 0690 2040     ..@ ..@ ..@ ..@ 
204006a0:	0698 2040 0698 2040 06a0 2040 06a0 2040     ..@ ..@ ..@ ..@ 
204006b0:	06a8 2040 06a8 2040 06b0 2040 06b0 2040     ..@ ..@ ..@ ..@ 
204006c0:	06b8 2040 06b8 2040 06c0 2040 06c0 2040     ..@ ..@ ..@ ..@ 
204006d0:	06c8 2040 06c8 2040 06d0 2040 06d0 2040     ..@ ..@ ..@ ..@ 
204006e0:	06d8 2040 06d8 2040 06e0 2040 06e0 2040     ..@ ..@ ..@ ..@ 
204006f0:	06e8 2040 06e8 2040 06f0 2040 06f0 2040     ..@ ..@ ..@ ..@ 
20400700:	06f8 2040 06f8 2040 0700 2040 0700 2040     ..@ ..@ ..@ ..@ 
20400710:	0708 2040 0708 2040 0710 2040 0710 2040     ..@ ..@ ..@ ..@ 
20400720:	0718 2040 0718 2040 0720 2040 0720 2040     ..@ ..@  .@  .@ 
20400730:	0728 2040 0728 2040 0730 2040 0730 2040     (.@ (.@ 0.@ 0.@ 
20400740:	0738 2040 0738 2040 0740 2040 0740 2040     8.@ 8.@ @.@ @.@ 
20400750:	0748 2040 0748 2040 0750 2040 0750 2040     H.@ H.@ P.@ P.@ 
20400760:	0758 2040 0758 2040 0760 2040 0760 2040     X.@ X.@ `.@ `.@ 
20400770:	0768 2040 0768 2040 0770 2040 0770 2040     h.@ h.@ p.@ p.@ 
20400780:	0778 2040 0778 2040 0780 2040 0780 2040     x.@ x.@ ..@ ..@ 
20400790:	0788 2040 0788 2040 0790 2040 0790 2040     ..@ ..@ ..@ ..@ 
204007a0:	0798 2040 0798 2040 07a0 2040 07a0 2040     ..@ ..@ ..@ ..@ 
204007b0:	07a8 2040 07a8 2040 07b0 2040 07b0 2040     ..@ ..@ ..@ ..@ 
204007c0:	07b8 2040 07b8 2040 07c0 2040 07c0 2040     ..@ ..@ ..@ ..@ 
204007d0:	07c8 2040 07c8 2040 07d0 2040 07d0 2040     ..@ ..@ ..@ ..@ 
204007e0:	07d8 2040 07d8 2040 07e0 2040 07e0 2040     ..@ ..@ ..@ ..@ 
204007f0:	07e8 2040 07e8 2040 07f0 2040 07f0 2040     ..@ ..@ ..@ ..@ 
20400800:	07f8 2040 07f8 2040 0800 2040 0800 2040     ..@ ..@ ..@ ..@ 
20400810:	0808 2040 0808 2040 0810 2040 0810 2040     ..@ ..@ ..@ ..@ 
20400820:	0818 2040 0818 2040 0820 2040 0820 2040     ..@ ..@  .@  .@ 
20400830:	0828 2040 0828 2040 0830 2040 0830 2040     (.@ (.@ 0.@ 0.@ 
20400840:	0838 2040 0838 2040 0840 2040 0840 2040     8.@ 8.@ @.@ @.@ 
20400850:	0848 2040 0848 2040 0850 2040 0850 2040     H.@ H.@ P.@ P.@ 
20400860:	0858 2040 0858 2040 0860 2040 0860 2040     X.@ X.@ `.@ `.@ 
20400870:	0868 2040 0868 2040 0870 2040 0870 2040     h.@ h.@ p.@ p.@ 
20400880:	0878 2040 0878 2040 0880 2040 0880 2040     x.@ x.@ ..@ ..@ 
20400890:	0888 2040 0888 2040 0890 2040 0890 2040     ..@ ..@ ..@ ..@ 
204008a0:	0898 2040 0898 2040 08a0 2040 08a0 2040     ..@ ..@ ..@ ..@ 
204008b0:	08a8 2040 08a8 2040 08b0 2040 08b0 2040     ..@ ..@ ..@ ..@ 
204008c0:	08b8 2040 08b8 2040 08c0 2040 08c0 2040     ..@ ..@ ..@ ..@ 
204008d0:	08c8 2040 08c8 2040 08d0 2040 08d0 2040     ..@ ..@ ..@ ..@ 
204008e0:	08d8 2040 08d8 2040 08e0 2040 08e0 2040     ..@ ..@ ..@ ..@ 
204008f0:	08e8 2040 08e8 2040 08f0 2040 08f0 2040     ..@ ..@ ..@ ..@ 
20400900:	08f8 2040 08f8 2040 0900 2040 0900 2040     ..@ ..@ ..@ ..@ 
20400910:	0908 2040 0908 2040 0910 2040 0910 2040     ..@ ..@ ..@ ..@ 
20400920:	0918 2040 0918 2040 0920 2040 0920 2040     ..@ ..@  .@  .@ 
20400930:	0928 2040 0928 2040 0930 2040 0930 2040     (.@ (.@ 0.@ 0.@ 
20400940:	0938 2040 0938 2040 0940 2040 0940 2040     8.@ 8.@ @.@ @.@ 
20400950:	0948 2040 0948 2040 0950 2040 0950 2040     H.@ H.@ P.@ P.@ 
20400960:	0958 2040 0958 2040 0960 2040 0960 2040     X.@ X.@ `.@ `.@ 
20400970:	0968 2040 0968 2040 0970 2040 0970 2040     h.@ h.@ p.@ p.@ 
20400980:	0978 2040 0978 2040 0980 2040 0980 2040     x.@ x.@ ..@ ..@ 
20400990:	0988 2040 0988 2040 0990 2040 0990 2040     ..@ ..@ ..@ ..@ 
204009a0:	0998 2040 0998 2040 09a0 2040 09a0 2040     ..@ ..@ ..@ ..@ 
204009b0:	09a8 2040 09a8 2040 09b0 2040 09b0 2040     ..@ ..@ ..@ ..@ 
204009c0:	09b8 2040 09b8 2040 09c0 2040 09c0 2040     ..@ ..@ ..@ ..@ 
204009d0:	09c8 2040 09c8 2040 09d0 2040 09d0 2040     ..@ ..@ ..@ ..@ 

204009e0 <__malloc_sbrk_base>:
204009e0:	ffff ffff                                   ....

204009e4 <__malloc_trim_threshold>:
204009e4:	0000 0002                                   ....
